
2D-Detumbling-ACS.elf:     file format elf32-littlearm

Sections:
Idx Name          Size      VMA       LMA       File off  Algn
  0 .isr_vector   000000c0  08000000  08000000  00001000  2**0
                  CONTENTS, ALLOC, LOAD, READONLY, DATA
  1 .text         000043ac  080000c0  080000c0  000010c0  2**2
                  CONTENTS, ALLOC, LOAD, READONLY, CODE
  2 .rodata       000000ac  0800446c  0800446c  0000546c  2**2
                  CONTENTS, ALLOC, LOAD, READONLY, DATA
  3 .ARM.extab    00000000  08004518  08004518  0000600c  2**0
                  CONTENTS, READONLY
  4 .ARM          00000000  08004518  08004518  0000600c  2**0
                  CONTENTS, READONLY
  5 .preinit_array 00000000  08004518  08004518  0000600c  2**0
                  CONTENTS, ALLOC, LOAD, DATA
  6 .init_array   00000004  08004518  08004518  00005518  2**2
                  CONTENTS, ALLOC, LOAD, READONLY, DATA
  7 .fini_array   00000004  0800451c  0800451c  0000551c  2**2
                  CONTENTS, ALLOC, LOAD, READONLY, DATA
  8 .data         0000000c  20000000  08004520  00006000  2**2
                  CONTENTS, ALLOC, LOAD, DATA
  9 .bss          00000104  2000000c  0800452c  0000600c  2**2
                  ALLOC
 10 ._user_heap_stack 00000600  20000110  0800452c  00006110  2**0
                  ALLOC
 11 .ARM.attributes 00000028  00000000  00000000  0000600c  2**0
                  CONTENTS, READONLY
 12 .debug_info   0000b170  00000000  00000000  00006034  2**0
                  CONTENTS, READONLY, DEBUGGING, OCTETS
 13 .debug_abbrev 00001c30  00000000  00000000  000111a4  2**0
                  CONTENTS, READONLY, DEBUGGING, OCTETS
 14 .debug_aranges 00000c48  00000000  00000000  00012dd8  2**3
                  CONTENTS, READONLY, DEBUGGING, OCTETS
 15 .debug_rnglists 000009a5  00000000  00000000  00013a20  2**0
                  CONTENTS, READONLY, DEBUGGING, OCTETS
 16 .debug_macro  00011da3  00000000  00000000  000143c5  2**0
                  CONTENTS, READONLY, DEBUGGING, OCTETS
 17 .debug_line   0000f645  00000000  00000000  00026168  2**0
                  CONTENTS, READONLY, DEBUGGING, OCTETS
 18 .debug_str    0006da3f  00000000  00000000  000357ad  2**0
                  CONTENTS, READONLY, DEBUGGING, OCTETS
 19 .comment      00000043  00000000  00000000  000a31ec  2**0
                  CONTENTS, READONLY
 20 .debug_frame  00002d94  00000000  00000000  000a3230  2**2
                  CONTENTS, READONLY, DEBUGGING, OCTETS
 21 .debug_line_str 0000007d  00000000  00000000  000a5fc4  2**0
                  CONTENTS, READONLY, DEBUGGING, OCTETS

Disassembly of section .text:

080000c0 <__do_global_dtors_aux>:
 80000c0:	b510      	push	{r4, lr}
 80000c2:	4c06      	ldr	r4, [pc, #24]	@ (80000dc <__do_global_dtors_aux+0x1c>)
 80000c4:	7823      	ldrb	r3, [r4, #0]
 80000c6:	2b00      	cmp	r3, #0
 80000c8:	d107      	bne.n	80000da <__do_global_dtors_aux+0x1a>
 80000ca:	4b05      	ldr	r3, [pc, #20]	@ (80000e0 <__do_global_dtors_aux+0x20>)
 80000cc:	2b00      	cmp	r3, #0
 80000ce:	d002      	beq.n	80000d6 <__do_global_dtors_aux+0x16>
 80000d0:	4804      	ldr	r0, [pc, #16]	@ (80000e4 <__do_global_dtors_aux+0x24>)
 80000d2:	e000      	b.n	80000d6 <__do_global_dtors_aux+0x16>
 80000d4:	bf00      	nop
 80000d6:	2301      	movs	r3, #1
 80000d8:	7023      	strb	r3, [r4, #0]
 80000da:	bd10      	pop	{r4, pc}
 80000dc:	2000000c 	.word	0x2000000c
 80000e0:	00000000 	.word	0x00000000
 80000e4:	08004454 	.word	0x08004454

080000e8 <frame_dummy>:
 80000e8:	4b04      	ldr	r3, [pc, #16]	@ (80000fc <frame_dummy+0x14>)
 80000ea:	b510      	push	{r4, lr}
 80000ec:	2b00      	cmp	r3, #0
 80000ee:	d003      	beq.n	80000f8 <frame_dummy+0x10>
 80000f0:	4903      	ldr	r1, [pc, #12]	@ (8000100 <frame_dummy+0x18>)
 80000f2:	4804      	ldr	r0, [pc, #16]	@ (8000104 <frame_dummy+0x1c>)
 80000f4:	e000      	b.n	80000f8 <frame_dummy+0x10>
 80000f6:	bf00      	nop
 80000f8:	bd10      	pop	{r4, pc}
 80000fa:	46c0      	nop			@ (mov r8, r8)
 80000fc:	00000000 	.word	0x00000000
 8000100:	20000010 	.word	0x20000010
 8000104:	08004454 	.word	0x08004454

08000108 <__udivsi3>:
 8000108:	2200      	movs	r2, #0
 800010a:	0843      	lsrs	r3, r0, #1
 800010c:	428b      	cmp	r3, r1
 800010e:	d374      	bcc.n	80001fa <__udivsi3+0xf2>
 8000110:	0903      	lsrs	r3, r0, #4
 8000112:	428b      	cmp	r3, r1
 8000114:	d35f      	bcc.n	80001d6 <__udivsi3+0xce>
 8000116:	0a03      	lsrs	r3, r0, #8
 8000118:	428b      	cmp	r3, r1
 800011a:	d344      	bcc.n	80001a6 <__udivsi3+0x9e>
 800011c:	0b03      	lsrs	r3, r0, #12
 800011e:	428b      	cmp	r3, r1
 8000120:	d328      	bcc.n	8000174 <__udivsi3+0x6c>
 8000122:	0c03      	lsrs	r3, r0, #16
 8000124:	428b      	cmp	r3, r1
 8000126:	d30d      	bcc.n	8000144 <__udivsi3+0x3c>
 8000128:	22ff      	movs	r2, #255	@ 0xff
 800012a:	0209      	lsls	r1, r1, #8
 800012c:	ba12      	rev	r2, r2
 800012e:	0c03      	lsrs	r3, r0, #16
 8000130:	428b      	cmp	r3, r1
 8000132:	d302      	bcc.n	800013a <__udivsi3+0x32>
 8000134:	1212      	asrs	r2, r2, #8
 8000136:	0209      	lsls	r1, r1, #8
 8000138:	d065      	beq.n	8000206 <__udivsi3+0xfe>
 800013a:	0b03      	lsrs	r3, r0, #12
 800013c:	428b      	cmp	r3, r1
 800013e:	d319      	bcc.n	8000174 <__udivsi3+0x6c>
 8000140:	e000      	b.n	8000144 <__udivsi3+0x3c>
 8000142:	0a09      	lsrs	r1, r1, #8
 8000144:	0bc3      	lsrs	r3, r0, #15
 8000146:	428b      	cmp	r3, r1
 8000148:	d301      	bcc.n	800014e <__udivsi3+0x46>
 800014a:	03cb      	lsls	r3, r1, #15
 800014c:	1ac0      	subs	r0, r0, r3
 800014e:	4152      	adcs	r2, r2
 8000150:	0b83      	lsrs	r3, r0, #14
 8000152:	428b      	cmp	r3, r1
 8000154:	d301      	bcc.n	800015a <__udivsi3+0x52>
 8000156:	038b      	lsls	r3, r1, #14
 8000158:	1ac0      	subs	r0, r0, r3
 800015a:	4152      	adcs	r2, r2
 800015c:	0b43      	lsrs	r3, r0, #13
 800015e:	428b      	cmp	r3, r1
 8000160:	d301      	bcc.n	8000166 <__udivsi3+0x5e>
 8000162:	034b      	lsls	r3, r1, #13
 8000164:	1ac0      	subs	r0, r0, r3
 8000166:	4152      	adcs	r2, r2
 8000168:	0b03      	lsrs	r3, r0, #12
 800016a:	428b      	cmp	r3, r1
 800016c:	d301      	bcc.n	8000172 <__udivsi3+0x6a>
 800016e:	030b      	lsls	r3, r1, #12
 8000170:	1ac0      	subs	r0, r0, r3
 8000172:	4152      	adcs	r2, r2
 8000174:	0ac3      	lsrs	r3, r0, #11
 8000176:	428b      	cmp	r3, r1
 8000178:	d301      	bcc.n	800017e <__udivsi3+0x76>
 800017a:	02cb      	lsls	r3, r1, #11
 800017c:	1ac0      	subs	r0, r0, r3
 800017e:	4152      	adcs	r2, r2
 8000180:	0a83      	lsrs	r3, r0, #10
 8000182:	428b      	cmp	r3, r1
 8000184:	d301      	bcc.n	800018a <__udivsi3+0x82>
 8000186:	028b      	lsls	r3, r1, #10
 8000188:	1ac0      	subs	r0, r0, r3
 800018a:	4152      	adcs	r2, r2
 800018c:	0a43      	lsrs	r3, r0, #9
 800018e:	428b      	cmp	r3, r1
 8000190:	d301      	bcc.n	8000196 <__udivsi3+0x8e>
 8000192:	024b      	lsls	r3, r1, #9
 8000194:	1ac0      	subs	r0, r0, r3
 8000196:	4152      	adcs	r2, r2
 8000198:	0a03      	lsrs	r3, r0, #8
 800019a:	428b      	cmp	r3, r1
 800019c:	d301      	bcc.n	80001a2 <__udivsi3+0x9a>
 800019e:	020b      	lsls	r3, r1, #8
 80001a0:	1ac0      	subs	r0, r0, r3
 80001a2:	4152      	adcs	r2, r2
 80001a4:	d2cd      	bcs.n	8000142 <__udivsi3+0x3a>
 80001a6:	09c3      	lsrs	r3, r0, #7
 80001a8:	428b      	cmp	r3, r1
 80001aa:	d301      	bcc.n	80001b0 <__udivsi3+0xa8>
 80001ac:	01cb      	lsls	r3, r1, #7
 80001ae:	1ac0      	subs	r0, r0, r3
 80001b0:	4152      	adcs	r2, r2
 80001b2:	0983      	lsrs	r3, r0, #6
 80001b4:	428b      	cmp	r3, r1
 80001b6:	d301      	bcc.n	80001bc <__udivsi3+0xb4>
 80001b8:	018b      	lsls	r3, r1, #6
 80001ba:	1ac0      	subs	r0, r0, r3
 80001bc:	4152      	adcs	r2, r2
 80001be:	0943      	lsrs	r3, r0, #5
 80001c0:	428b      	cmp	r3, r1
 80001c2:	d301      	bcc.n	80001c8 <__udivsi3+0xc0>
 80001c4:	014b      	lsls	r3, r1, #5
 80001c6:	1ac0      	subs	r0, r0, r3
 80001c8:	4152      	adcs	r2, r2
 80001ca:	0903      	lsrs	r3, r0, #4
 80001cc:	428b      	cmp	r3, r1
 80001ce:	d301      	bcc.n	80001d4 <__udivsi3+0xcc>
 80001d0:	010b      	lsls	r3, r1, #4
 80001d2:	1ac0      	subs	r0, r0, r3
 80001d4:	4152      	adcs	r2, r2
 80001d6:	08c3      	lsrs	r3, r0, #3
 80001d8:	428b      	cmp	r3, r1
 80001da:	d301      	bcc.n	80001e0 <__udivsi3+0xd8>
 80001dc:	00cb      	lsls	r3, r1, #3
 80001de:	1ac0      	subs	r0, r0, r3
 80001e0:	4152      	adcs	r2, r2
 80001e2:	0883      	lsrs	r3, r0, #2
 80001e4:	428b      	cmp	r3, r1
 80001e6:	d301      	bcc.n	80001ec <__udivsi3+0xe4>
 80001e8:	008b      	lsls	r3, r1, #2
 80001ea:	1ac0      	subs	r0, r0, r3
 80001ec:	4152      	adcs	r2, r2
 80001ee:	0843      	lsrs	r3, r0, #1
 80001f0:	428b      	cmp	r3, r1
 80001f2:	d301      	bcc.n	80001f8 <__udivsi3+0xf0>
 80001f4:	004b      	lsls	r3, r1, #1
 80001f6:	1ac0      	subs	r0, r0, r3
 80001f8:	4152      	adcs	r2, r2
 80001fa:	1a41      	subs	r1, r0, r1
 80001fc:	d200      	bcs.n	8000200 <__udivsi3+0xf8>
 80001fe:	4601      	mov	r1, r0
 8000200:	4152      	adcs	r2, r2
 8000202:	4610      	mov	r0, r2
 8000204:	4770      	bx	lr
 8000206:	e7ff      	b.n	8000208 <__udivsi3+0x100>
 8000208:	b501      	push	{r0, lr}
 800020a:	2000      	movs	r0, #0
 800020c:	f000 f806 	bl	800021c <__aeabi_idiv0>
 8000210:	bd02      	pop	{r1, pc}
 8000212:	46c0      	nop			@ (mov r8, r8)

08000214 <__aeabi_uidivmod>:
 8000214:	2900      	cmp	r1, #0
 8000216:	d0f7      	beq.n	8000208 <__udivsi3+0x100>
 8000218:	e776      	b.n	8000108 <__udivsi3>
 800021a:	4770      	bx	lr

0800021c <__aeabi_idiv0>:
 800021c:	4770      	bx	lr
 800021e:	46c0      	nop			@ (mov r8, r8)

08000220 <__aeabi_fadd>:
 8000220:	b5f8      	push	{r3, r4, r5, r6, r7, lr}
 8000222:	024b      	lsls	r3, r1, #9
 8000224:	0a5a      	lsrs	r2, r3, #9
 8000226:	4694      	mov	ip, r2
 8000228:	004a      	lsls	r2, r1, #1
 800022a:	0fc9      	lsrs	r1, r1, #31
 800022c:	46ce      	mov	lr, r9
 800022e:	4647      	mov	r7, r8
 8000230:	4689      	mov	r9, r1
 8000232:	0045      	lsls	r5, r0, #1
 8000234:	0246      	lsls	r6, r0, #9
 8000236:	0e2d      	lsrs	r5, r5, #24
 8000238:	0e12      	lsrs	r2, r2, #24
 800023a:	b580      	push	{r7, lr}
 800023c:	0999      	lsrs	r1, r3, #6
 800023e:	0a77      	lsrs	r7, r6, #9
 8000240:	0fc4      	lsrs	r4, r0, #31
 8000242:	09b6      	lsrs	r6, r6, #6
 8000244:	1aab      	subs	r3, r5, r2
 8000246:	454c      	cmp	r4, r9
 8000248:	d020      	beq.n	800028c <__aeabi_fadd+0x6c>
 800024a:	2b00      	cmp	r3, #0
 800024c:	dd0c      	ble.n	8000268 <__aeabi_fadd+0x48>
 800024e:	2a00      	cmp	r2, #0
 8000250:	d134      	bne.n	80002bc <__aeabi_fadd+0x9c>
 8000252:	2900      	cmp	r1, #0
 8000254:	d02a      	beq.n	80002ac <__aeabi_fadd+0x8c>
 8000256:	1e5a      	subs	r2, r3, #1
 8000258:	2b01      	cmp	r3, #1
 800025a:	d100      	bne.n	800025e <__aeabi_fadd+0x3e>
 800025c:	e08f      	b.n	800037e <__aeabi_fadd+0x15e>
 800025e:	2bff      	cmp	r3, #255	@ 0xff
 8000260:	d100      	bne.n	8000264 <__aeabi_fadd+0x44>
 8000262:	e0cd      	b.n	8000400 <__aeabi_fadd+0x1e0>
 8000264:	0013      	movs	r3, r2
 8000266:	e02f      	b.n	80002c8 <__aeabi_fadd+0xa8>
 8000268:	2b00      	cmp	r3, #0
 800026a:	d060      	beq.n	800032e <__aeabi_fadd+0x10e>
 800026c:	1b53      	subs	r3, r2, r5
 800026e:	2d00      	cmp	r5, #0
 8000270:	d000      	beq.n	8000274 <__aeabi_fadd+0x54>
 8000272:	e0ee      	b.n	8000452 <__aeabi_fadd+0x232>
 8000274:	2e00      	cmp	r6, #0
 8000276:	d100      	bne.n	800027a <__aeabi_fadd+0x5a>
 8000278:	e13e      	b.n	80004f8 <__aeabi_fadd+0x2d8>
 800027a:	1e5c      	subs	r4, r3, #1
 800027c:	2b01      	cmp	r3, #1
 800027e:	d100      	bne.n	8000282 <__aeabi_fadd+0x62>
 8000280:	e16b      	b.n	800055a <__aeabi_fadd+0x33a>
 8000282:	2bff      	cmp	r3, #255	@ 0xff
 8000284:	d100      	bne.n	8000288 <__aeabi_fadd+0x68>
 8000286:	e0b9      	b.n	80003fc <__aeabi_fadd+0x1dc>
 8000288:	0023      	movs	r3, r4
 800028a:	e0e7      	b.n	800045c <__aeabi_fadd+0x23c>
 800028c:	2b00      	cmp	r3, #0
 800028e:	dc00      	bgt.n	8000292 <__aeabi_fadd+0x72>
 8000290:	e0a4      	b.n	80003dc <__aeabi_fadd+0x1bc>
 8000292:	2a00      	cmp	r2, #0
 8000294:	d069      	beq.n	800036a <__aeabi_fadd+0x14a>
 8000296:	2dff      	cmp	r5, #255	@ 0xff
 8000298:	d100      	bne.n	800029c <__aeabi_fadd+0x7c>
 800029a:	e0b1      	b.n	8000400 <__aeabi_fadd+0x1e0>
 800029c:	2280      	movs	r2, #128	@ 0x80
 800029e:	04d2      	lsls	r2, r2, #19
 80002a0:	4311      	orrs	r1, r2
 80002a2:	2b1b      	cmp	r3, #27
 80002a4:	dc00      	bgt.n	80002a8 <__aeabi_fadd+0x88>
 80002a6:	e0e9      	b.n	800047c <__aeabi_fadd+0x25c>
 80002a8:	002b      	movs	r3, r5
 80002aa:	3605      	adds	r6, #5
 80002ac:	08f7      	lsrs	r7, r6, #3
 80002ae:	2bff      	cmp	r3, #255	@ 0xff
 80002b0:	d100      	bne.n	80002b4 <__aeabi_fadd+0x94>
 80002b2:	e0a5      	b.n	8000400 <__aeabi_fadd+0x1e0>
 80002b4:	027a      	lsls	r2, r7, #9
 80002b6:	0a52      	lsrs	r2, r2, #9
 80002b8:	b2d8      	uxtb	r0, r3
 80002ba:	e030      	b.n	800031e <__aeabi_fadd+0xfe>
 80002bc:	2dff      	cmp	r5, #255	@ 0xff
 80002be:	d100      	bne.n	80002c2 <__aeabi_fadd+0xa2>
 80002c0:	e09e      	b.n	8000400 <__aeabi_fadd+0x1e0>
 80002c2:	2280      	movs	r2, #128	@ 0x80
 80002c4:	04d2      	lsls	r2, r2, #19
 80002c6:	4311      	orrs	r1, r2
 80002c8:	2001      	movs	r0, #1
 80002ca:	2b1b      	cmp	r3, #27
 80002cc:	dc08      	bgt.n	80002e0 <__aeabi_fadd+0xc0>
 80002ce:	0008      	movs	r0, r1
 80002d0:	2220      	movs	r2, #32
 80002d2:	40d8      	lsrs	r0, r3
 80002d4:	1ad3      	subs	r3, r2, r3
 80002d6:	4099      	lsls	r1, r3
 80002d8:	000b      	movs	r3, r1
 80002da:	1e5a      	subs	r2, r3, #1
 80002dc:	4193      	sbcs	r3, r2
 80002de:	4318      	orrs	r0, r3
 80002e0:	1a36      	subs	r6, r6, r0
 80002e2:	0173      	lsls	r3, r6, #5
 80002e4:	d400      	bmi.n	80002e8 <__aeabi_fadd+0xc8>
 80002e6:	e071      	b.n	80003cc <__aeabi_fadd+0x1ac>
 80002e8:	01b6      	lsls	r6, r6, #6
 80002ea:	09b7      	lsrs	r7, r6, #6
 80002ec:	0038      	movs	r0, r7
 80002ee:	f000 fc69 	bl	8000bc4 <__clzsi2>
 80002f2:	003b      	movs	r3, r7
 80002f4:	3805      	subs	r0, #5
 80002f6:	4083      	lsls	r3, r0
 80002f8:	4285      	cmp	r5, r0
 80002fa:	dd4d      	ble.n	8000398 <__aeabi_fadd+0x178>
 80002fc:	4eb4      	ldr	r6, [pc, #720]	@ (80005d0 <__aeabi_fadd+0x3b0>)
 80002fe:	1a2d      	subs	r5, r5, r0
 8000300:	401e      	ands	r6, r3
 8000302:	075a      	lsls	r2, r3, #29
 8000304:	d068      	beq.n	80003d8 <__aeabi_fadd+0x1b8>
 8000306:	220f      	movs	r2, #15
 8000308:	4013      	ands	r3, r2
 800030a:	2b04      	cmp	r3, #4
 800030c:	d064      	beq.n	80003d8 <__aeabi_fadd+0x1b8>
 800030e:	3604      	adds	r6, #4
 8000310:	0173      	lsls	r3, r6, #5
 8000312:	d561      	bpl.n	80003d8 <__aeabi_fadd+0x1b8>
 8000314:	1c68      	adds	r0, r5, #1
 8000316:	2dfe      	cmp	r5, #254	@ 0xfe
 8000318:	d154      	bne.n	80003c4 <__aeabi_fadd+0x1a4>
 800031a:	20ff      	movs	r0, #255	@ 0xff
 800031c:	2200      	movs	r2, #0
 800031e:	05c0      	lsls	r0, r0, #23
 8000320:	4310      	orrs	r0, r2
 8000322:	07e4      	lsls	r4, r4, #31
 8000324:	4320      	orrs	r0, r4
 8000326:	bcc0      	pop	{r6, r7}
 8000328:	46b9      	mov	r9, r7
 800032a:	46b0      	mov	r8, r6
 800032c:	bdf8      	pop	{r3, r4, r5, r6, r7, pc}
 800032e:	22fe      	movs	r2, #254	@ 0xfe
 8000330:	4690      	mov	r8, r2
 8000332:	1c68      	adds	r0, r5, #1
 8000334:	0002      	movs	r2, r0
 8000336:	4640      	mov	r0, r8
 8000338:	4210      	tst	r0, r2
 800033a:	d16b      	bne.n	8000414 <__aeabi_fadd+0x1f4>
 800033c:	2d00      	cmp	r5, #0
 800033e:	d000      	beq.n	8000342 <__aeabi_fadd+0x122>
 8000340:	e0dd      	b.n	80004fe <__aeabi_fadd+0x2de>
 8000342:	2e00      	cmp	r6, #0
 8000344:	d100      	bne.n	8000348 <__aeabi_fadd+0x128>
 8000346:	e102      	b.n	800054e <__aeabi_fadd+0x32e>
 8000348:	2900      	cmp	r1, #0
 800034a:	d0b3      	beq.n	80002b4 <__aeabi_fadd+0x94>
 800034c:	2280      	movs	r2, #128	@ 0x80
 800034e:	1a77      	subs	r7, r6, r1
 8000350:	04d2      	lsls	r2, r2, #19
 8000352:	4217      	tst	r7, r2
 8000354:	d100      	bne.n	8000358 <__aeabi_fadd+0x138>
 8000356:	e136      	b.n	80005c6 <__aeabi_fadd+0x3a6>
 8000358:	464c      	mov	r4, r9
 800035a:	1b8e      	subs	r6, r1, r6
 800035c:	d061      	beq.n	8000422 <__aeabi_fadd+0x202>
 800035e:	2001      	movs	r0, #1
 8000360:	4216      	tst	r6, r2
 8000362:	d130      	bne.n	80003c6 <__aeabi_fadd+0x1a6>
 8000364:	2300      	movs	r3, #0
 8000366:	08f7      	lsrs	r7, r6, #3
 8000368:	e7a4      	b.n	80002b4 <__aeabi_fadd+0x94>
 800036a:	2900      	cmp	r1, #0
 800036c:	d09e      	beq.n	80002ac <__aeabi_fadd+0x8c>
 800036e:	1e5a      	subs	r2, r3, #1
 8000370:	2b01      	cmp	r3, #1
 8000372:	d100      	bne.n	8000376 <__aeabi_fadd+0x156>
 8000374:	e0ca      	b.n	800050c <__aeabi_fadd+0x2ec>
 8000376:	2bff      	cmp	r3, #255	@ 0xff
 8000378:	d042      	beq.n	8000400 <__aeabi_fadd+0x1e0>
 800037a:	0013      	movs	r3, r2
 800037c:	e791      	b.n	80002a2 <__aeabi_fadd+0x82>
 800037e:	1a71      	subs	r1, r6, r1
 8000380:	014b      	lsls	r3, r1, #5
 8000382:	d400      	bmi.n	8000386 <__aeabi_fadd+0x166>
 8000384:	e0d1      	b.n	800052a <__aeabi_fadd+0x30a>
 8000386:	018f      	lsls	r7, r1, #6
 8000388:	09bf      	lsrs	r7, r7, #6
 800038a:	0038      	movs	r0, r7
 800038c:	f000 fc1a 	bl	8000bc4 <__clzsi2>
 8000390:	003b      	movs	r3, r7
 8000392:	3805      	subs	r0, #5
 8000394:	4083      	lsls	r3, r0
 8000396:	2501      	movs	r5, #1
 8000398:	2220      	movs	r2, #32
 800039a:	1b40      	subs	r0, r0, r5
 800039c:	3001      	adds	r0, #1
 800039e:	1a12      	subs	r2, r2, r0
 80003a0:	001e      	movs	r6, r3
 80003a2:	4093      	lsls	r3, r2
 80003a4:	40c6      	lsrs	r6, r0
 80003a6:	1e5a      	subs	r2, r3, #1
 80003a8:	4193      	sbcs	r3, r2
 80003aa:	431e      	orrs	r6, r3
 80003ac:	d039      	beq.n	8000422 <__aeabi_fadd+0x202>
 80003ae:	0773      	lsls	r3, r6, #29
 80003b0:	d100      	bne.n	80003b4 <__aeabi_fadd+0x194>
 80003b2:	e11b      	b.n	80005ec <__aeabi_fadd+0x3cc>
 80003b4:	230f      	movs	r3, #15
 80003b6:	2500      	movs	r5, #0
 80003b8:	4033      	ands	r3, r6
 80003ba:	2b04      	cmp	r3, #4
 80003bc:	d1a7      	bne.n	800030e <__aeabi_fadd+0xee>
 80003be:	2001      	movs	r0, #1
 80003c0:	0172      	lsls	r2, r6, #5
 80003c2:	d57c      	bpl.n	80004be <__aeabi_fadd+0x29e>
 80003c4:	b2c0      	uxtb	r0, r0
 80003c6:	01b2      	lsls	r2, r6, #6
 80003c8:	0a52      	lsrs	r2, r2, #9
 80003ca:	e7a8      	b.n	800031e <__aeabi_fadd+0xfe>
 80003cc:	0773      	lsls	r3, r6, #29
 80003ce:	d003      	beq.n	80003d8 <__aeabi_fadd+0x1b8>
 80003d0:	230f      	movs	r3, #15
 80003d2:	4033      	ands	r3, r6
 80003d4:	2b04      	cmp	r3, #4
 80003d6:	d19a      	bne.n	800030e <__aeabi_fadd+0xee>
 80003d8:	002b      	movs	r3, r5
 80003da:	e767      	b.n	80002ac <__aeabi_fadd+0x8c>
 80003dc:	2b00      	cmp	r3, #0
 80003de:	d023      	beq.n	8000428 <__aeabi_fadd+0x208>
 80003e0:	1b53      	subs	r3, r2, r5
 80003e2:	2d00      	cmp	r5, #0
 80003e4:	d17b      	bne.n	80004de <__aeabi_fadd+0x2be>
 80003e6:	2e00      	cmp	r6, #0
 80003e8:	d100      	bne.n	80003ec <__aeabi_fadd+0x1cc>
 80003ea:	e086      	b.n	80004fa <__aeabi_fadd+0x2da>
 80003ec:	1e5d      	subs	r5, r3, #1
 80003ee:	2b01      	cmp	r3, #1
 80003f0:	d100      	bne.n	80003f4 <__aeabi_fadd+0x1d4>
 80003f2:	e08b      	b.n	800050c <__aeabi_fadd+0x2ec>
 80003f4:	2bff      	cmp	r3, #255	@ 0xff
 80003f6:	d002      	beq.n	80003fe <__aeabi_fadd+0x1de>
 80003f8:	002b      	movs	r3, r5
 80003fa:	e075      	b.n	80004e8 <__aeabi_fadd+0x2c8>
 80003fc:	464c      	mov	r4, r9
 80003fe:	4667      	mov	r7, ip
 8000400:	2f00      	cmp	r7, #0
 8000402:	d100      	bne.n	8000406 <__aeabi_fadd+0x1e6>
 8000404:	e789      	b.n	800031a <__aeabi_fadd+0xfa>
 8000406:	2280      	movs	r2, #128	@ 0x80
 8000408:	03d2      	lsls	r2, r2, #15
 800040a:	433a      	orrs	r2, r7
 800040c:	0252      	lsls	r2, r2, #9
 800040e:	20ff      	movs	r0, #255	@ 0xff
 8000410:	0a52      	lsrs	r2, r2, #9
 8000412:	e784      	b.n	800031e <__aeabi_fadd+0xfe>
 8000414:	1a77      	subs	r7, r6, r1
 8000416:	017b      	lsls	r3, r7, #5
 8000418:	d46b      	bmi.n	80004f2 <__aeabi_fadd+0x2d2>
 800041a:	2f00      	cmp	r7, #0
 800041c:	d000      	beq.n	8000420 <__aeabi_fadd+0x200>
 800041e:	e765      	b.n	80002ec <__aeabi_fadd+0xcc>
 8000420:	2400      	movs	r4, #0
 8000422:	2000      	movs	r0, #0
 8000424:	2200      	movs	r2, #0
 8000426:	e77a      	b.n	800031e <__aeabi_fadd+0xfe>
 8000428:	22fe      	movs	r2, #254	@ 0xfe
 800042a:	1c6b      	adds	r3, r5, #1
 800042c:	421a      	tst	r2, r3
 800042e:	d149      	bne.n	80004c4 <__aeabi_fadd+0x2a4>
 8000430:	2d00      	cmp	r5, #0
 8000432:	d000      	beq.n	8000436 <__aeabi_fadd+0x216>
 8000434:	e09f      	b.n	8000576 <__aeabi_fadd+0x356>
 8000436:	2e00      	cmp	r6, #0
 8000438:	d100      	bne.n	800043c <__aeabi_fadd+0x21c>
 800043a:	e0ba      	b.n	80005b2 <__aeabi_fadd+0x392>
 800043c:	2900      	cmp	r1, #0
 800043e:	d100      	bne.n	8000442 <__aeabi_fadd+0x222>
 8000440:	e0cf      	b.n	80005e2 <__aeabi_fadd+0x3c2>
 8000442:	1872      	adds	r2, r6, r1
 8000444:	0153      	lsls	r3, r2, #5
 8000446:	d400      	bmi.n	800044a <__aeabi_fadd+0x22a>
 8000448:	e0cd      	b.n	80005e6 <__aeabi_fadd+0x3c6>
 800044a:	0192      	lsls	r2, r2, #6
 800044c:	2001      	movs	r0, #1
 800044e:	0a52      	lsrs	r2, r2, #9
 8000450:	e765      	b.n	800031e <__aeabi_fadd+0xfe>
 8000452:	2aff      	cmp	r2, #255	@ 0xff
 8000454:	d0d2      	beq.n	80003fc <__aeabi_fadd+0x1dc>
 8000456:	2080      	movs	r0, #128	@ 0x80
 8000458:	04c0      	lsls	r0, r0, #19
 800045a:	4306      	orrs	r6, r0
 800045c:	2001      	movs	r0, #1
 800045e:	2b1b      	cmp	r3, #27
 8000460:	dc08      	bgt.n	8000474 <__aeabi_fadd+0x254>
 8000462:	0030      	movs	r0, r6
 8000464:	2420      	movs	r4, #32
 8000466:	40d8      	lsrs	r0, r3
 8000468:	1ae3      	subs	r3, r4, r3
 800046a:	409e      	lsls	r6, r3
 800046c:	0033      	movs	r3, r6
 800046e:	1e5c      	subs	r4, r3, #1
 8000470:	41a3      	sbcs	r3, r4
 8000472:	4318      	orrs	r0, r3
 8000474:	464c      	mov	r4, r9
 8000476:	0015      	movs	r5, r2
 8000478:	1a0e      	subs	r6, r1, r0
 800047a:	e732      	b.n	80002e2 <__aeabi_fadd+0xc2>
 800047c:	0008      	movs	r0, r1
 800047e:	2220      	movs	r2, #32
 8000480:	40d8      	lsrs	r0, r3
 8000482:	1ad3      	subs	r3, r2, r3
 8000484:	4099      	lsls	r1, r3
 8000486:	000b      	movs	r3, r1
 8000488:	1e5a      	subs	r2, r3, #1
 800048a:	4193      	sbcs	r3, r2
 800048c:	4303      	orrs	r3, r0
 800048e:	18f6      	adds	r6, r6, r3
 8000490:	0173      	lsls	r3, r6, #5
 8000492:	d59b      	bpl.n	80003cc <__aeabi_fadd+0x1ac>
 8000494:	3501      	adds	r5, #1
 8000496:	2dff      	cmp	r5, #255	@ 0xff
 8000498:	d100      	bne.n	800049c <__aeabi_fadd+0x27c>
 800049a:	e73e      	b.n	800031a <__aeabi_fadd+0xfa>
 800049c:	2301      	movs	r3, #1
 800049e:	494d      	ldr	r1, [pc, #308]	@ (80005d4 <__aeabi_fadd+0x3b4>)
 80004a0:	0872      	lsrs	r2, r6, #1
 80004a2:	4033      	ands	r3, r6
 80004a4:	400a      	ands	r2, r1
 80004a6:	431a      	orrs	r2, r3
 80004a8:	0016      	movs	r6, r2
 80004aa:	0753      	lsls	r3, r2, #29
 80004ac:	d004      	beq.n	80004b8 <__aeabi_fadd+0x298>
 80004ae:	230f      	movs	r3, #15
 80004b0:	4013      	ands	r3, r2
 80004b2:	2b04      	cmp	r3, #4
 80004b4:	d000      	beq.n	80004b8 <__aeabi_fadd+0x298>
 80004b6:	e72a      	b.n	800030e <__aeabi_fadd+0xee>
 80004b8:	0173      	lsls	r3, r6, #5
 80004ba:	d500      	bpl.n	80004be <__aeabi_fadd+0x29e>
 80004bc:	e72a      	b.n	8000314 <__aeabi_fadd+0xf4>
 80004be:	002b      	movs	r3, r5
 80004c0:	08f7      	lsrs	r7, r6, #3
 80004c2:	e6f7      	b.n	80002b4 <__aeabi_fadd+0x94>
 80004c4:	2bff      	cmp	r3, #255	@ 0xff
 80004c6:	d100      	bne.n	80004ca <__aeabi_fadd+0x2aa>
 80004c8:	e727      	b.n	800031a <__aeabi_fadd+0xfa>
 80004ca:	1871      	adds	r1, r6, r1
 80004cc:	0849      	lsrs	r1, r1, #1
 80004ce:	074a      	lsls	r2, r1, #29
 80004d0:	d02f      	beq.n	8000532 <__aeabi_fadd+0x312>
 80004d2:	220f      	movs	r2, #15
 80004d4:	400a      	ands	r2, r1
 80004d6:	2a04      	cmp	r2, #4
 80004d8:	d02b      	beq.n	8000532 <__aeabi_fadd+0x312>
 80004da:	1d0e      	adds	r6, r1, #4
 80004dc:	e6e6      	b.n	80002ac <__aeabi_fadd+0x8c>
 80004de:	2aff      	cmp	r2, #255	@ 0xff
 80004e0:	d08d      	beq.n	80003fe <__aeabi_fadd+0x1de>
 80004e2:	2080      	movs	r0, #128	@ 0x80
 80004e4:	04c0      	lsls	r0, r0, #19
 80004e6:	4306      	orrs	r6, r0
 80004e8:	2b1b      	cmp	r3, #27
 80004ea:	dd24      	ble.n	8000536 <__aeabi_fadd+0x316>
 80004ec:	0013      	movs	r3, r2
 80004ee:	1d4e      	adds	r6, r1, #5
 80004f0:	e6dc      	b.n	80002ac <__aeabi_fadd+0x8c>
 80004f2:	464c      	mov	r4, r9
 80004f4:	1b8f      	subs	r7, r1, r6
 80004f6:	e6f9      	b.n	80002ec <__aeabi_fadd+0xcc>
 80004f8:	464c      	mov	r4, r9
 80004fa:	000e      	movs	r6, r1
 80004fc:	e6d6      	b.n	80002ac <__aeabi_fadd+0x8c>
 80004fe:	2e00      	cmp	r6, #0
 8000500:	d149      	bne.n	8000596 <__aeabi_fadd+0x376>
 8000502:	2900      	cmp	r1, #0
 8000504:	d068      	beq.n	80005d8 <__aeabi_fadd+0x3b8>
 8000506:	4667      	mov	r7, ip
 8000508:	464c      	mov	r4, r9
 800050a:	e77c      	b.n	8000406 <__aeabi_fadd+0x1e6>
 800050c:	1870      	adds	r0, r6, r1
 800050e:	0143      	lsls	r3, r0, #5
 8000510:	d574      	bpl.n	80005fc <__aeabi_fadd+0x3dc>
 8000512:	4930      	ldr	r1, [pc, #192]	@ (80005d4 <__aeabi_fadd+0x3b4>)
 8000514:	0840      	lsrs	r0, r0, #1
 8000516:	4001      	ands	r1, r0
 8000518:	0743      	lsls	r3, r0, #29
 800051a:	d009      	beq.n	8000530 <__aeabi_fadd+0x310>
 800051c:	230f      	movs	r3, #15
 800051e:	4003      	ands	r3, r0
 8000520:	2b04      	cmp	r3, #4
 8000522:	d005      	beq.n	8000530 <__aeabi_fadd+0x310>
 8000524:	2302      	movs	r3, #2
 8000526:	1d0e      	adds	r6, r1, #4
 8000528:	e6c0      	b.n	80002ac <__aeabi_fadd+0x8c>
 800052a:	2301      	movs	r3, #1
 800052c:	08cf      	lsrs	r7, r1, #3
 800052e:	e6c1      	b.n	80002b4 <__aeabi_fadd+0x94>
 8000530:	2302      	movs	r3, #2
 8000532:	08cf      	lsrs	r7, r1, #3
 8000534:	e6be      	b.n	80002b4 <__aeabi_fadd+0x94>
 8000536:	2520      	movs	r5, #32
 8000538:	0030      	movs	r0, r6
 800053a:	40d8      	lsrs	r0, r3
 800053c:	1aeb      	subs	r3, r5, r3
 800053e:	409e      	lsls	r6, r3
 8000540:	0033      	movs	r3, r6
 8000542:	1e5d      	subs	r5, r3, #1
 8000544:	41ab      	sbcs	r3, r5
 8000546:	4303      	orrs	r3, r0
 8000548:	0015      	movs	r5, r2
 800054a:	185e      	adds	r6, r3, r1
 800054c:	e7a0      	b.n	8000490 <__aeabi_fadd+0x270>
 800054e:	2900      	cmp	r1, #0
 8000550:	d100      	bne.n	8000554 <__aeabi_fadd+0x334>
 8000552:	e765      	b.n	8000420 <__aeabi_fadd+0x200>
 8000554:	464c      	mov	r4, r9
 8000556:	4667      	mov	r7, ip
 8000558:	e6ac      	b.n	80002b4 <__aeabi_fadd+0x94>
 800055a:	1b8f      	subs	r7, r1, r6
 800055c:	017b      	lsls	r3, r7, #5
 800055e:	d52e      	bpl.n	80005be <__aeabi_fadd+0x39e>
 8000560:	01bf      	lsls	r7, r7, #6
 8000562:	09bf      	lsrs	r7, r7, #6
 8000564:	0038      	movs	r0, r7
 8000566:	f000 fb2d 	bl	8000bc4 <__clzsi2>
 800056a:	003b      	movs	r3, r7
 800056c:	3805      	subs	r0, #5
 800056e:	4083      	lsls	r3, r0
 8000570:	464c      	mov	r4, r9
 8000572:	3501      	adds	r5, #1
 8000574:	e710      	b.n	8000398 <__aeabi_fadd+0x178>
 8000576:	2e00      	cmp	r6, #0
 8000578:	d100      	bne.n	800057c <__aeabi_fadd+0x35c>
 800057a:	e740      	b.n	80003fe <__aeabi_fadd+0x1de>
 800057c:	2900      	cmp	r1, #0
 800057e:	d100      	bne.n	8000582 <__aeabi_fadd+0x362>
 8000580:	e741      	b.n	8000406 <__aeabi_fadd+0x1e6>
 8000582:	2380      	movs	r3, #128	@ 0x80
 8000584:	03db      	lsls	r3, r3, #15
 8000586:	429f      	cmp	r7, r3
 8000588:	d200      	bcs.n	800058c <__aeabi_fadd+0x36c>
 800058a:	e73c      	b.n	8000406 <__aeabi_fadd+0x1e6>
 800058c:	459c      	cmp	ip, r3
 800058e:	d300      	bcc.n	8000592 <__aeabi_fadd+0x372>
 8000590:	e739      	b.n	8000406 <__aeabi_fadd+0x1e6>
 8000592:	4667      	mov	r7, ip
 8000594:	e737      	b.n	8000406 <__aeabi_fadd+0x1e6>
 8000596:	2900      	cmp	r1, #0
 8000598:	d100      	bne.n	800059c <__aeabi_fadd+0x37c>
 800059a:	e734      	b.n	8000406 <__aeabi_fadd+0x1e6>
 800059c:	2380      	movs	r3, #128	@ 0x80
 800059e:	03db      	lsls	r3, r3, #15
 80005a0:	429f      	cmp	r7, r3
 80005a2:	d200      	bcs.n	80005a6 <__aeabi_fadd+0x386>
 80005a4:	e72f      	b.n	8000406 <__aeabi_fadd+0x1e6>
 80005a6:	459c      	cmp	ip, r3
 80005a8:	d300      	bcc.n	80005ac <__aeabi_fadd+0x38c>
 80005aa:	e72c      	b.n	8000406 <__aeabi_fadd+0x1e6>
 80005ac:	464c      	mov	r4, r9
 80005ae:	4667      	mov	r7, ip
 80005b0:	e729      	b.n	8000406 <__aeabi_fadd+0x1e6>
 80005b2:	2900      	cmp	r1, #0
 80005b4:	d100      	bne.n	80005b8 <__aeabi_fadd+0x398>
 80005b6:	e734      	b.n	8000422 <__aeabi_fadd+0x202>
 80005b8:	2300      	movs	r3, #0
 80005ba:	08cf      	lsrs	r7, r1, #3
 80005bc:	e67a      	b.n	80002b4 <__aeabi_fadd+0x94>
 80005be:	464c      	mov	r4, r9
 80005c0:	2301      	movs	r3, #1
 80005c2:	08ff      	lsrs	r7, r7, #3
 80005c4:	e676      	b.n	80002b4 <__aeabi_fadd+0x94>
 80005c6:	2f00      	cmp	r7, #0
 80005c8:	d100      	bne.n	80005cc <__aeabi_fadd+0x3ac>
 80005ca:	e729      	b.n	8000420 <__aeabi_fadd+0x200>
 80005cc:	08ff      	lsrs	r7, r7, #3
 80005ce:	e671      	b.n	80002b4 <__aeabi_fadd+0x94>
 80005d0:	fbffffff 	.word	0xfbffffff
 80005d4:	7dffffff 	.word	0x7dffffff
 80005d8:	2280      	movs	r2, #128	@ 0x80
 80005da:	2400      	movs	r4, #0
 80005dc:	20ff      	movs	r0, #255	@ 0xff
 80005de:	03d2      	lsls	r2, r2, #15
 80005e0:	e69d      	b.n	800031e <__aeabi_fadd+0xfe>
 80005e2:	2300      	movs	r3, #0
 80005e4:	e666      	b.n	80002b4 <__aeabi_fadd+0x94>
 80005e6:	2300      	movs	r3, #0
 80005e8:	08d7      	lsrs	r7, r2, #3
 80005ea:	e663      	b.n	80002b4 <__aeabi_fadd+0x94>
 80005ec:	2001      	movs	r0, #1
 80005ee:	0172      	lsls	r2, r6, #5
 80005f0:	d500      	bpl.n	80005f4 <__aeabi_fadd+0x3d4>
 80005f2:	e6e7      	b.n	80003c4 <__aeabi_fadd+0x1a4>
 80005f4:	0031      	movs	r1, r6
 80005f6:	2300      	movs	r3, #0
 80005f8:	08cf      	lsrs	r7, r1, #3
 80005fa:	e65b      	b.n	80002b4 <__aeabi_fadd+0x94>
 80005fc:	2301      	movs	r3, #1
 80005fe:	08c7      	lsrs	r7, r0, #3
 8000600:	e658      	b.n	80002b4 <__aeabi_fadd+0x94>
 8000602:	46c0      	nop			@ (mov r8, r8)

08000604 <__aeabi_fdiv>:
 8000604:	b5f0      	push	{r4, r5, r6, r7, lr}
 8000606:	4646      	mov	r6, r8
 8000608:	464f      	mov	r7, r9
 800060a:	46d6      	mov	lr, sl
 800060c:	0245      	lsls	r5, r0, #9
 800060e:	b5c0      	push	{r6, r7, lr}
 8000610:	0fc3      	lsrs	r3, r0, #31
 8000612:	0047      	lsls	r7, r0, #1
 8000614:	4698      	mov	r8, r3
 8000616:	1c0e      	adds	r6, r1, #0
 8000618:	0a6d      	lsrs	r5, r5, #9
 800061a:	0e3f      	lsrs	r7, r7, #24
 800061c:	d05b      	beq.n	80006d6 <__aeabi_fdiv+0xd2>
 800061e:	2fff      	cmp	r7, #255	@ 0xff
 8000620:	d021      	beq.n	8000666 <__aeabi_fdiv+0x62>
 8000622:	2380      	movs	r3, #128	@ 0x80
 8000624:	00ed      	lsls	r5, r5, #3
 8000626:	04db      	lsls	r3, r3, #19
 8000628:	431d      	orrs	r5, r3
 800062a:	2300      	movs	r3, #0
 800062c:	4699      	mov	r9, r3
 800062e:	469a      	mov	sl, r3
 8000630:	3f7f      	subs	r7, #127	@ 0x7f
 8000632:	0274      	lsls	r4, r6, #9
 8000634:	0073      	lsls	r3, r6, #1
 8000636:	0a64      	lsrs	r4, r4, #9
 8000638:	0e1b      	lsrs	r3, r3, #24
 800063a:	0ff6      	lsrs	r6, r6, #31
 800063c:	2b00      	cmp	r3, #0
 800063e:	d020      	beq.n	8000682 <__aeabi_fdiv+0x7e>
 8000640:	2bff      	cmp	r3, #255	@ 0xff
 8000642:	d043      	beq.n	80006cc <__aeabi_fdiv+0xc8>
 8000644:	2280      	movs	r2, #128	@ 0x80
 8000646:	2000      	movs	r0, #0
 8000648:	00e4      	lsls	r4, r4, #3
 800064a:	04d2      	lsls	r2, r2, #19
 800064c:	4314      	orrs	r4, r2
 800064e:	3b7f      	subs	r3, #127	@ 0x7f
 8000650:	4642      	mov	r2, r8
 8000652:	1aff      	subs	r7, r7, r3
 8000654:	464b      	mov	r3, r9
 8000656:	4072      	eors	r2, r6
 8000658:	2b0f      	cmp	r3, #15
 800065a:	d900      	bls.n	800065e <__aeabi_fdiv+0x5a>
 800065c:	e09d      	b.n	800079a <__aeabi_fdiv+0x196>
 800065e:	4971      	ldr	r1, [pc, #452]	@ (8000824 <__aeabi_fdiv+0x220>)
 8000660:	009b      	lsls	r3, r3, #2
 8000662:	58cb      	ldr	r3, [r1, r3]
 8000664:	469f      	mov	pc, r3
 8000666:	2d00      	cmp	r5, #0
 8000668:	d15a      	bne.n	8000720 <__aeabi_fdiv+0x11c>
 800066a:	2308      	movs	r3, #8
 800066c:	4699      	mov	r9, r3
 800066e:	3b06      	subs	r3, #6
 8000670:	0274      	lsls	r4, r6, #9
 8000672:	469a      	mov	sl, r3
 8000674:	0073      	lsls	r3, r6, #1
 8000676:	27ff      	movs	r7, #255	@ 0xff
 8000678:	0a64      	lsrs	r4, r4, #9
 800067a:	0e1b      	lsrs	r3, r3, #24
 800067c:	0ff6      	lsrs	r6, r6, #31
 800067e:	2b00      	cmp	r3, #0
 8000680:	d1de      	bne.n	8000640 <__aeabi_fdiv+0x3c>
 8000682:	2c00      	cmp	r4, #0
 8000684:	d13b      	bne.n	80006fe <__aeabi_fdiv+0xfa>
 8000686:	2301      	movs	r3, #1
 8000688:	4642      	mov	r2, r8
 800068a:	4649      	mov	r1, r9
 800068c:	4072      	eors	r2, r6
 800068e:	4319      	orrs	r1, r3
 8000690:	290e      	cmp	r1, #14
 8000692:	d818      	bhi.n	80006c6 <__aeabi_fdiv+0xc2>
 8000694:	4864      	ldr	r0, [pc, #400]	@ (8000828 <__aeabi_fdiv+0x224>)
 8000696:	0089      	lsls	r1, r1, #2
 8000698:	5841      	ldr	r1, [r0, r1]
 800069a:	468f      	mov	pc, r1
 800069c:	4653      	mov	r3, sl
 800069e:	2b02      	cmp	r3, #2
 80006a0:	d100      	bne.n	80006a4 <__aeabi_fdiv+0xa0>
 80006a2:	e0b8      	b.n	8000816 <__aeabi_fdiv+0x212>
 80006a4:	2b03      	cmp	r3, #3
 80006a6:	d06e      	beq.n	8000786 <__aeabi_fdiv+0x182>
 80006a8:	4642      	mov	r2, r8
 80006aa:	002c      	movs	r4, r5
 80006ac:	2b01      	cmp	r3, #1
 80006ae:	d140      	bne.n	8000732 <__aeabi_fdiv+0x12e>
 80006b0:	2000      	movs	r0, #0
 80006b2:	2400      	movs	r4, #0
 80006b4:	05c0      	lsls	r0, r0, #23
 80006b6:	4320      	orrs	r0, r4
 80006b8:	07d2      	lsls	r2, r2, #31
 80006ba:	4310      	orrs	r0, r2
 80006bc:	bce0      	pop	{r5, r6, r7}
 80006be:	46ba      	mov	sl, r7
 80006c0:	46b1      	mov	r9, r6
 80006c2:	46a8      	mov	r8, r5
 80006c4:	bdf0      	pop	{r4, r5, r6, r7, pc}
 80006c6:	20ff      	movs	r0, #255	@ 0xff
 80006c8:	2400      	movs	r4, #0
 80006ca:	e7f3      	b.n	80006b4 <__aeabi_fdiv+0xb0>
 80006cc:	2c00      	cmp	r4, #0
 80006ce:	d120      	bne.n	8000712 <__aeabi_fdiv+0x10e>
 80006d0:	2302      	movs	r3, #2
 80006d2:	3fff      	subs	r7, #255	@ 0xff
 80006d4:	e7d8      	b.n	8000688 <__aeabi_fdiv+0x84>
 80006d6:	2d00      	cmp	r5, #0
 80006d8:	d105      	bne.n	80006e6 <__aeabi_fdiv+0xe2>
 80006da:	2304      	movs	r3, #4
 80006dc:	4699      	mov	r9, r3
 80006de:	3b03      	subs	r3, #3
 80006e0:	2700      	movs	r7, #0
 80006e2:	469a      	mov	sl, r3
 80006e4:	e7a5      	b.n	8000632 <__aeabi_fdiv+0x2e>
 80006e6:	0028      	movs	r0, r5
 80006e8:	f000 fa6c 	bl	8000bc4 <__clzsi2>
 80006ec:	2776      	movs	r7, #118	@ 0x76
 80006ee:	1f43      	subs	r3, r0, #5
 80006f0:	409d      	lsls	r5, r3
 80006f2:	2300      	movs	r3, #0
 80006f4:	427f      	negs	r7, r7
 80006f6:	4699      	mov	r9, r3
 80006f8:	469a      	mov	sl, r3
 80006fa:	1a3f      	subs	r7, r7, r0
 80006fc:	e799      	b.n	8000632 <__aeabi_fdiv+0x2e>
 80006fe:	0020      	movs	r0, r4
 8000700:	f000 fa60 	bl	8000bc4 <__clzsi2>
 8000704:	1f43      	subs	r3, r0, #5
 8000706:	409c      	lsls	r4, r3
 8000708:	2376      	movs	r3, #118	@ 0x76
 800070a:	425b      	negs	r3, r3
 800070c:	1a1b      	subs	r3, r3, r0
 800070e:	2000      	movs	r0, #0
 8000710:	e79e      	b.n	8000650 <__aeabi_fdiv+0x4c>
 8000712:	2303      	movs	r3, #3
 8000714:	464a      	mov	r2, r9
 8000716:	431a      	orrs	r2, r3
 8000718:	4691      	mov	r9, r2
 800071a:	2003      	movs	r0, #3
 800071c:	33fc      	adds	r3, #252	@ 0xfc
 800071e:	e797      	b.n	8000650 <__aeabi_fdiv+0x4c>
 8000720:	230c      	movs	r3, #12
 8000722:	4699      	mov	r9, r3
 8000724:	3b09      	subs	r3, #9
 8000726:	27ff      	movs	r7, #255	@ 0xff
 8000728:	469a      	mov	sl, r3
 800072a:	e782      	b.n	8000632 <__aeabi_fdiv+0x2e>
 800072c:	2803      	cmp	r0, #3
 800072e:	d02c      	beq.n	800078a <__aeabi_fdiv+0x186>
 8000730:	0032      	movs	r2, r6
 8000732:	0038      	movs	r0, r7
 8000734:	307f      	adds	r0, #127	@ 0x7f
 8000736:	2800      	cmp	r0, #0
 8000738:	dd47      	ble.n	80007ca <__aeabi_fdiv+0x1c6>
 800073a:	0763      	lsls	r3, r4, #29
 800073c:	d004      	beq.n	8000748 <__aeabi_fdiv+0x144>
 800073e:	230f      	movs	r3, #15
 8000740:	4023      	ands	r3, r4
 8000742:	2b04      	cmp	r3, #4
 8000744:	d000      	beq.n	8000748 <__aeabi_fdiv+0x144>
 8000746:	3404      	adds	r4, #4
 8000748:	0123      	lsls	r3, r4, #4
 800074a:	d503      	bpl.n	8000754 <__aeabi_fdiv+0x150>
 800074c:	0038      	movs	r0, r7
 800074e:	4b37      	ldr	r3, [pc, #220]	@ (800082c <__aeabi_fdiv+0x228>)
 8000750:	3080      	adds	r0, #128	@ 0x80
 8000752:	401c      	ands	r4, r3
 8000754:	28fe      	cmp	r0, #254	@ 0xfe
 8000756:	dcb6      	bgt.n	80006c6 <__aeabi_fdiv+0xc2>
 8000758:	01a4      	lsls	r4, r4, #6
 800075a:	0a64      	lsrs	r4, r4, #9
 800075c:	b2c0      	uxtb	r0, r0
 800075e:	e7a9      	b.n	80006b4 <__aeabi_fdiv+0xb0>
 8000760:	2480      	movs	r4, #128	@ 0x80
 8000762:	2200      	movs	r2, #0
 8000764:	20ff      	movs	r0, #255	@ 0xff
 8000766:	03e4      	lsls	r4, r4, #15
 8000768:	e7a4      	b.n	80006b4 <__aeabi_fdiv+0xb0>
 800076a:	2380      	movs	r3, #128	@ 0x80
 800076c:	03db      	lsls	r3, r3, #15
 800076e:	421d      	tst	r5, r3
 8000770:	d001      	beq.n	8000776 <__aeabi_fdiv+0x172>
 8000772:	421c      	tst	r4, r3
 8000774:	d00b      	beq.n	800078e <__aeabi_fdiv+0x18a>
 8000776:	2480      	movs	r4, #128	@ 0x80
 8000778:	03e4      	lsls	r4, r4, #15
 800077a:	432c      	orrs	r4, r5
 800077c:	0264      	lsls	r4, r4, #9
 800077e:	4642      	mov	r2, r8
 8000780:	20ff      	movs	r0, #255	@ 0xff
 8000782:	0a64      	lsrs	r4, r4, #9
 8000784:	e796      	b.n	80006b4 <__aeabi_fdiv+0xb0>
 8000786:	4646      	mov	r6, r8
 8000788:	002c      	movs	r4, r5
 800078a:	2380      	movs	r3, #128	@ 0x80
 800078c:	03db      	lsls	r3, r3, #15
 800078e:	431c      	orrs	r4, r3
 8000790:	0264      	lsls	r4, r4, #9
 8000792:	0032      	movs	r2, r6
 8000794:	20ff      	movs	r0, #255	@ 0xff
 8000796:	0a64      	lsrs	r4, r4, #9
 8000798:	e78c      	b.n	80006b4 <__aeabi_fdiv+0xb0>
 800079a:	016d      	lsls	r5, r5, #5
 800079c:	0160      	lsls	r0, r4, #5
 800079e:	4285      	cmp	r5, r0
 80007a0:	d22d      	bcs.n	80007fe <__aeabi_fdiv+0x1fa>
 80007a2:	231b      	movs	r3, #27
 80007a4:	2400      	movs	r4, #0
 80007a6:	3f01      	subs	r7, #1
 80007a8:	2601      	movs	r6, #1
 80007aa:	0029      	movs	r1, r5
 80007ac:	0064      	lsls	r4, r4, #1
 80007ae:	006d      	lsls	r5, r5, #1
 80007b0:	2900      	cmp	r1, #0
 80007b2:	db01      	blt.n	80007b8 <__aeabi_fdiv+0x1b4>
 80007b4:	4285      	cmp	r5, r0
 80007b6:	d301      	bcc.n	80007bc <__aeabi_fdiv+0x1b8>
 80007b8:	1a2d      	subs	r5, r5, r0
 80007ba:	4334      	orrs	r4, r6
 80007bc:	3b01      	subs	r3, #1
 80007be:	2b00      	cmp	r3, #0
 80007c0:	d1f3      	bne.n	80007aa <__aeabi_fdiv+0x1a6>
 80007c2:	1e6b      	subs	r3, r5, #1
 80007c4:	419d      	sbcs	r5, r3
 80007c6:	432c      	orrs	r4, r5
 80007c8:	e7b3      	b.n	8000732 <__aeabi_fdiv+0x12e>
 80007ca:	2301      	movs	r3, #1
 80007cc:	1a1b      	subs	r3, r3, r0
 80007ce:	2b1b      	cmp	r3, #27
 80007d0:	dd00      	ble.n	80007d4 <__aeabi_fdiv+0x1d0>
 80007d2:	e76d      	b.n	80006b0 <__aeabi_fdiv+0xac>
 80007d4:	0021      	movs	r1, r4
 80007d6:	379e      	adds	r7, #158	@ 0x9e
 80007d8:	40d9      	lsrs	r1, r3
 80007da:	40bc      	lsls	r4, r7
 80007dc:	000b      	movs	r3, r1
 80007de:	1e61      	subs	r1, r4, #1
 80007e0:	418c      	sbcs	r4, r1
 80007e2:	4323      	orrs	r3, r4
 80007e4:	0759      	lsls	r1, r3, #29
 80007e6:	d004      	beq.n	80007f2 <__aeabi_fdiv+0x1ee>
 80007e8:	210f      	movs	r1, #15
 80007ea:	4019      	ands	r1, r3
 80007ec:	2904      	cmp	r1, #4
 80007ee:	d000      	beq.n	80007f2 <__aeabi_fdiv+0x1ee>
 80007f0:	3304      	adds	r3, #4
 80007f2:	0159      	lsls	r1, r3, #5
 80007f4:	d413      	bmi.n	800081e <__aeabi_fdiv+0x21a>
 80007f6:	019b      	lsls	r3, r3, #6
 80007f8:	2000      	movs	r0, #0
 80007fa:	0a5c      	lsrs	r4, r3, #9
 80007fc:	e75a      	b.n	80006b4 <__aeabi_fdiv+0xb0>
 80007fe:	231a      	movs	r3, #26
 8000800:	2401      	movs	r4, #1
 8000802:	1a2d      	subs	r5, r5, r0
 8000804:	e7d0      	b.n	80007a8 <__aeabi_fdiv+0x1a4>
 8000806:	1e98      	subs	r0, r3, #2
 8000808:	4243      	negs	r3, r0
 800080a:	4158      	adcs	r0, r3
 800080c:	4240      	negs	r0, r0
 800080e:	0032      	movs	r2, r6
 8000810:	2400      	movs	r4, #0
 8000812:	b2c0      	uxtb	r0, r0
 8000814:	e74e      	b.n	80006b4 <__aeabi_fdiv+0xb0>
 8000816:	4642      	mov	r2, r8
 8000818:	20ff      	movs	r0, #255	@ 0xff
 800081a:	2400      	movs	r4, #0
 800081c:	e74a      	b.n	80006b4 <__aeabi_fdiv+0xb0>
 800081e:	2001      	movs	r0, #1
 8000820:	2400      	movs	r4, #0
 8000822:	e747      	b.n	80006b4 <__aeabi_fdiv+0xb0>
 8000824:	0800446c 	.word	0x0800446c
 8000828:	080044ac 	.word	0x080044ac
 800082c:	f7ffffff 	.word	0xf7ffffff

08000830 <__aeabi_fmul>:
 8000830:	b5f0      	push	{r4, r5, r6, r7, lr}
 8000832:	464f      	mov	r7, r9
 8000834:	4646      	mov	r6, r8
 8000836:	46d6      	mov	lr, sl
 8000838:	0044      	lsls	r4, r0, #1
 800083a:	b5c0      	push	{r6, r7, lr}
 800083c:	0246      	lsls	r6, r0, #9
 800083e:	1c0f      	adds	r7, r1, #0
 8000840:	0a76      	lsrs	r6, r6, #9
 8000842:	0e24      	lsrs	r4, r4, #24
 8000844:	0fc5      	lsrs	r5, r0, #31
 8000846:	2c00      	cmp	r4, #0
 8000848:	d100      	bne.n	800084c <__aeabi_fmul+0x1c>
 800084a:	e0da      	b.n	8000a02 <__aeabi_fmul+0x1d2>
 800084c:	2cff      	cmp	r4, #255	@ 0xff
 800084e:	d074      	beq.n	800093a <__aeabi_fmul+0x10a>
 8000850:	2380      	movs	r3, #128	@ 0x80
 8000852:	00f6      	lsls	r6, r6, #3
 8000854:	04db      	lsls	r3, r3, #19
 8000856:	431e      	orrs	r6, r3
 8000858:	2300      	movs	r3, #0
 800085a:	4699      	mov	r9, r3
 800085c:	469a      	mov	sl, r3
 800085e:	3c7f      	subs	r4, #127	@ 0x7f
 8000860:	027b      	lsls	r3, r7, #9
 8000862:	0a5b      	lsrs	r3, r3, #9
 8000864:	4698      	mov	r8, r3
 8000866:	007b      	lsls	r3, r7, #1
 8000868:	0e1b      	lsrs	r3, r3, #24
 800086a:	0fff      	lsrs	r7, r7, #31
 800086c:	2b00      	cmp	r3, #0
 800086e:	d074      	beq.n	800095a <__aeabi_fmul+0x12a>
 8000870:	2bff      	cmp	r3, #255	@ 0xff
 8000872:	d100      	bne.n	8000876 <__aeabi_fmul+0x46>
 8000874:	e08e      	b.n	8000994 <__aeabi_fmul+0x164>
 8000876:	4642      	mov	r2, r8
 8000878:	2180      	movs	r1, #128	@ 0x80
 800087a:	00d2      	lsls	r2, r2, #3
 800087c:	04c9      	lsls	r1, r1, #19
 800087e:	4311      	orrs	r1, r2
 8000880:	3b7f      	subs	r3, #127	@ 0x7f
 8000882:	002a      	movs	r2, r5
 8000884:	18e4      	adds	r4, r4, r3
 8000886:	464b      	mov	r3, r9
 8000888:	407a      	eors	r2, r7
 800088a:	4688      	mov	r8, r1
 800088c:	b2d2      	uxtb	r2, r2
 800088e:	2b0a      	cmp	r3, #10
 8000890:	dc75      	bgt.n	800097e <__aeabi_fmul+0x14e>
 8000892:	464b      	mov	r3, r9
 8000894:	2000      	movs	r0, #0
 8000896:	2b02      	cmp	r3, #2
 8000898:	dd0f      	ble.n	80008ba <__aeabi_fmul+0x8a>
 800089a:	4649      	mov	r1, r9
 800089c:	2301      	movs	r3, #1
 800089e:	408b      	lsls	r3, r1
 80008a0:	21a6      	movs	r1, #166	@ 0xa6
 80008a2:	00c9      	lsls	r1, r1, #3
 80008a4:	420b      	tst	r3, r1
 80008a6:	d169      	bne.n	800097c <__aeabi_fmul+0x14c>
 80008a8:	2190      	movs	r1, #144	@ 0x90
 80008aa:	0089      	lsls	r1, r1, #2
 80008ac:	420b      	tst	r3, r1
 80008ae:	d000      	beq.n	80008b2 <__aeabi_fmul+0x82>
 80008b0:	e100      	b.n	8000ab4 <__aeabi_fmul+0x284>
 80008b2:	2188      	movs	r1, #136	@ 0x88
 80008b4:	4219      	tst	r1, r3
 80008b6:	d000      	beq.n	80008ba <__aeabi_fmul+0x8a>
 80008b8:	e0f5      	b.n	8000aa6 <__aeabi_fmul+0x276>
 80008ba:	4641      	mov	r1, r8
 80008bc:	0409      	lsls	r1, r1, #16
 80008be:	0c09      	lsrs	r1, r1, #16
 80008c0:	4643      	mov	r3, r8
 80008c2:	0008      	movs	r0, r1
 80008c4:	0c35      	lsrs	r5, r6, #16
 80008c6:	0436      	lsls	r6, r6, #16
 80008c8:	0c1b      	lsrs	r3, r3, #16
 80008ca:	0c36      	lsrs	r6, r6, #16
 80008cc:	4370      	muls	r0, r6
 80008ce:	4369      	muls	r1, r5
 80008d0:	435e      	muls	r6, r3
 80008d2:	435d      	muls	r5, r3
 80008d4:	1876      	adds	r6, r6, r1
 80008d6:	0c03      	lsrs	r3, r0, #16
 80008d8:	199b      	adds	r3, r3, r6
 80008da:	4299      	cmp	r1, r3
 80008dc:	d903      	bls.n	80008e6 <__aeabi_fmul+0xb6>
 80008de:	2180      	movs	r1, #128	@ 0x80
 80008e0:	0249      	lsls	r1, r1, #9
 80008e2:	468c      	mov	ip, r1
 80008e4:	4465      	add	r5, ip
 80008e6:	0400      	lsls	r0, r0, #16
 80008e8:	0419      	lsls	r1, r3, #16
 80008ea:	0c00      	lsrs	r0, r0, #16
 80008ec:	1809      	adds	r1, r1, r0
 80008ee:	018e      	lsls	r6, r1, #6
 80008f0:	1e70      	subs	r0, r6, #1
 80008f2:	4186      	sbcs	r6, r0
 80008f4:	0c1b      	lsrs	r3, r3, #16
 80008f6:	0e89      	lsrs	r1, r1, #26
 80008f8:	195b      	adds	r3, r3, r5
 80008fa:	430e      	orrs	r6, r1
 80008fc:	019b      	lsls	r3, r3, #6
 80008fe:	431e      	orrs	r6, r3
 8000900:	011b      	lsls	r3, r3, #4
 8000902:	d46c      	bmi.n	80009de <__aeabi_fmul+0x1ae>
 8000904:	0023      	movs	r3, r4
 8000906:	337f      	adds	r3, #127	@ 0x7f
 8000908:	2b00      	cmp	r3, #0
 800090a:	dc00      	bgt.n	800090e <__aeabi_fmul+0xde>
 800090c:	e0b1      	b.n	8000a72 <__aeabi_fmul+0x242>
 800090e:	0015      	movs	r5, r2
 8000910:	0771      	lsls	r1, r6, #29
 8000912:	d00b      	beq.n	800092c <__aeabi_fmul+0xfc>
 8000914:	200f      	movs	r0, #15
 8000916:	0021      	movs	r1, r4
 8000918:	4030      	ands	r0, r6
 800091a:	2804      	cmp	r0, #4
 800091c:	d006      	beq.n	800092c <__aeabi_fmul+0xfc>
 800091e:	3604      	adds	r6, #4
 8000920:	0132      	lsls	r2, r6, #4
 8000922:	d503      	bpl.n	800092c <__aeabi_fmul+0xfc>
 8000924:	4b6e      	ldr	r3, [pc, #440]	@ (8000ae0 <__aeabi_fmul+0x2b0>)
 8000926:	401e      	ands	r6, r3
 8000928:	000b      	movs	r3, r1
 800092a:	3380      	adds	r3, #128	@ 0x80
 800092c:	2bfe      	cmp	r3, #254	@ 0xfe
 800092e:	dd00      	ble.n	8000932 <__aeabi_fmul+0x102>
 8000930:	e0bd      	b.n	8000aae <__aeabi_fmul+0x27e>
 8000932:	01b2      	lsls	r2, r6, #6
 8000934:	0a52      	lsrs	r2, r2, #9
 8000936:	b2db      	uxtb	r3, r3
 8000938:	e048      	b.n	80009cc <__aeabi_fmul+0x19c>
 800093a:	2e00      	cmp	r6, #0
 800093c:	d000      	beq.n	8000940 <__aeabi_fmul+0x110>
 800093e:	e092      	b.n	8000a66 <__aeabi_fmul+0x236>
 8000940:	2308      	movs	r3, #8
 8000942:	4699      	mov	r9, r3
 8000944:	3b06      	subs	r3, #6
 8000946:	469a      	mov	sl, r3
 8000948:	027b      	lsls	r3, r7, #9
 800094a:	0a5b      	lsrs	r3, r3, #9
 800094c:	4698      	mov	r8, r3
 800094e:	007b      	lsls	r3, r7, #1
 8000950:	24ff      	movs	r4, #255	@ 0xff
 8000952:	0e1b      	lsrs	r3, r3, #24
 8000954:	0fff      	lsrs	r7, r7, #31
 8000956:	2b00      	cmp	r3, #0
 8000958:	d18a      	bne.n	8000870 <__aeabi_fmul+0x40>
 800095a:	4642      	mov	r2, r8
 800095c:	2a00      	cmp	r2, #0
 800095e:	d164      	bne.n	8000a2a <__aeabi_fmul+0x1fa>
 8000960:	4649      	mov	r1, r9
 8000962:	3201      	adds	r2, #1
 8000964:	4311      	orrs	r1, r2
 8000966:	4689      	mov	r9, r1
 8000968:	290a      	cmp	r1, #10
 800096a:	dc08      	bgt.n	800097e <__aeabi_fmul+0x14e>
 800096c:	407d      	eors	r5, r7
 800096e:	2001      	movs	r0, #1
 8000970:	b2ea      	uxtb	r2, r5
 8000972:	2902      	cmp	r1, #2
 8000974:	dc91      	bgt.n	800089a <__aeabi_fmul+0x6a>
 8000976:	0015      	movs	r5, r2
 8000978:	2200      	movs	r2, #0
 800097a:	e027      	b.n	80009cc <__aeabi_fmul+0x19c>
 800097c:	0015      	movs	r5, r2
 800097e:	4653      	mov	r3, sl
 8000980:	2b02      	cmp	r3, #2
 8000982:	d100      	bne.n	8000986 <__aeabi_fmul+0x156>
 8000984:	e093      	b.n	8000aae <__aeabi_fmul+0x27e>
 8000986:	2b03      	cmp	r3, #3
 8000988:	d01a      	beq.n	80009c0 <__aeabi_fmul+0x190>
 800098a:	2b01      	cmp	r3, #1
 800098c:	d12c      	bne.n	80009e8 <__aeabi_fmul+0x1b8>
 800098e:	2300      	movs	r3, #0
 8000990:	2200      	movs	r2, #0
 8000992:	e01b      	b.n	80009cc <__aeabi_fmul+0x19c>
 8000994:	4643      	mov	r3, r8
 8000996:	34ff      	adds	r4, #255	@ 0xff
 8000998:	2b00      	cmp	r3, #0
 800099a:	d055      	beq.n	8000a48 <__aeabi_fmul+0x218>
 800099c:	2103      	movs	r1, #3
 800099e:	464b      	mov	r3, r9
 80009a0:	430b      	orrs	r3, r1
 80009a2:	0019      	movs	r1, r3
 80009a4:	2b0a      	cmp	r3, #10
 80009a6:	dc00      	bgt.n	80009aa <__aeabi_fmul+0x17a>
 80009a8:	e092      	b.n	8000ad0 <__aeabi_fmul+0x2a0>
 80009aa:	2b0f      	cmp	r3, #15
 80009ac:	d000      	beq.n	80009b0 <__aeabi_fmul+0x180>
 80009ae:	e08c      	b.n	8000aca <__aeabi_fmul+0x29a>
 80009b0:	2280      	movs	r2, #128	@ 0x80
 80009b2:	03d2      	lsls	r2, r2, #15
 80009b4:	4216      	tst	r6, r2
 80009b6:	d003      	beq.n	80009c0 <__aeabi_fmul+0x190>
 80009b8:	4643      	mov	r3, r8
 80009ba:	4213      	tst	r3, r2
 80009bc:	d100      	bne.n	80009c0 <__aeabi_fmul+0x190>
 80009be:	e07d      	b.n	8000abc <__aeabi_fmul+0x28c>
 80009c0:	2280      	movs	r2, #128	@ 0x80
 80009c2:	03d2      	lsls	r2, r2, #15
 80009c4:	4332      	orrs	r2, r6
 80009c6:	0252      	lsls	r2, r2, #9
 80009c8:	0a52      	lsrs	r2, r2, #9
 80009ca:	23ff      	movs	r3, #255	@ 0xff
 80009cc:	05d8      	lsls	r0, r3, #23
 80009ce:	07ed      	lsls	r5, r5, #31
 80009d0:	4310      	orrs	r0, r2
 80009d2:	4328      	orrs	r0, r5
 80009d4:	bce0      	pop	{r5, r6, r7}
 80009d6:	46ba      	mov	sl, r7
 80009d8:	46b1      	mov	r9, r6
 80009da:	46a8      	mov	r8, r5
 80009dc:	bdf0      	pop	{r4, r5, r6, r7, pc}
 80009de:	2301      	movs	r3, #1
 80009e0:	0015      	movs	r5, r2
 80009e2:	0871      	lsrs	r1, r6, #1
 80009e4:	401e      	ands	r6, r3
 80009e6:	430e      	orrs	r6, r1
 80009e8:	0023      	movs	r3, r4
 80009ea:	3380      	adds	r3, #128	@ 0x80
 80009ec:	1c61      	adds	r1, r4, #1
 80009ee:	2b00      	cmp	r3, #0
 80009f0:	dd41      	ble.n	8000a76 <__aeabi_fmul+0x246>
 80009f2:	0772      	lsls	r2, r6, #29
 80009f4:	d094      	beq.n	8000920 <__aeabi_fmul+0xf0>
 80009f6:	220f      	movs	r2, #15
 80009f8:	4032      	ands	r2, r6
 80009fa:	2a04      	cmp	r2, #4
 80009fc:	d000      	beq.n	8000a00 <__aeabi_fmul+0x1d0>
 80009fe:	e78e      	b.n	800091e <__aeabi_fmul+0xee>
 8000a00:	e78e      	b.n	8000920 <__aeabi_fmul+0xf0>
 8000a02:	2e00      	cmp	r6, #0
 8000a04:	d105      	bne.n	8000a12 <__aeabi_fmul+0x1e2>
 8000a06:	2304      	movs	r3, #4
 8000a08:	4699      	mov	r9, r3
 8000a0a:	3b03      	subs	r3, #3
 8000a0c:	2400      	movs	r4, #0
 8000a0e:	469a      	mov	sl, r3
 8000a10:	e726      	b.n	8000860 <__aeabi_fmul+0x30>
 8000a12:	0030      	movs	r0, r6
 8000a14:	f000 f8d6 	bl	8000bc4 <__clzsi2>
 8000a18:	2476      	movs	r4, #118	@ 0x76
 8000a1a:	1f43      	subs	r3, r0, #5
 8000a1c:	409e      	lsls	r6, r3
 8000a1e:	2300      	movs	r3, #0
 8000a20:	4264      	negs	r4, r4
 8000a22:	4699      	mov	r9, r3
 8000a24:	469a      	mov	sl, r3
 8000a26:	1a24      	subs	r4, r4, r0
 8000a28:	e71a      	b.n	8000860 <__aeabi_fmul+0x30>
 8000a2a:	4640      	mov	r0, r8
 8000a2c:	f000 f8ca 	bl	8000bc4 <__clzsi2>
 8000a30:	464b      	mov	r3, r9
 8000a32:	1a24      	subs	r4, r4, r0
 8000a34:	3c76      	subs	r4, #118	@ 0x76
 8000a36:	2b0a      	cmp	r3, #10
 8000a38:	dca1      	bgt.n	800097e <__aeabi_fmul+0x14e>
 8000a3a:	4643      	mov	r3, r8
 8000a3c:	3805      	subs	r0, #5
 8000a3e:	4083      	lsls	r3, r0
 8000a40:	407d      	eors	r5, r7
 8000a42:	4698      	mov	r8, r3
 8000a44:	b2ea      	uxtb	r2, r5
 8000a46:	e724      	b.n	8000892 <__aeabi_fmul+0x62>
 8000a48:	464a      	mov	r2, r9
 8000a4a:	3302      	adds	r3, #2
 8000a4c:	4313      	orrs	r3, r2
 8000a4e:	002a      	movs	r2, r5
 8000a50:	407a      	eors	r2, r7
 8000a52:	b2d2      	uxtb	r2, r2
 8000a54:	2b0a      	cmp	r3, #10
 8000a56:	dc92      	bgt.n	800097e <__aeabi_fmul+0x14e>
 8000a58:	4649      	mov	r1, r9
 8000a5a:	0015      	movs	r5, r2
 8000a5c:	2900      	cmp	r1, #0
 8000a5e:	d026      	beq.n	8000aae <__aeabi_fmul+0x27e>
 8000a60:	4699      	mov	r9, r3
 8000a62:	2002      	movs	r0, #2
 8000a64:	e719      	b.n	800089a <__aeabi_fmul+0x6a>
 8000a66:	230c      	movs	r3, #12
 8000a68:	4699      	mov	r9, r3
 8000a6a:	3b09      	subs	r3, #9
 8000a6c:	24ff      	movs	r4, #255	@ 0xff
 8000a6e:	469a      	mov	sl, r3
 8000a70:	e6f6      	b.n	8000860 <__aeabi_fmul+0x30>
 8000a72:	0015      	movs	r5, r2
 8000a74:	0021      	movs	r1, r4
 8000a76:	2201      	movs	r2, #1
 8000a78:	1ad3      	subs	r3, r2, r3
 8000a7a:	2b1b      	cmp	r3, #27
 8000a7c:	dd00      	ble.n	8000a80 <__aeabi_fmul+0x250>
 8000a7e:	e786      	b.n	800098e <__aeabi_fmul+0x15e>
 8000a80:	319e      	adds	r1, #158	@ 0x9e
 8000a82:	0032      	movs	r2, r6
 8000a84:	408e      	lsls	r6, r1
 8000a86:	40da      	lsrs	r2, r3
 8000a88:	1e73      	subs	r3, r6, #1
 8000a8a:	419e      	sbcs	r6, r3
 8000a8c:	4332      	orrs	r2, r6
 8000a8e:	0753      	lsls	r3, r2, #29
 8000a90:	d004      	beq.n	8000a9c <__aeabi_fmul+0x26c>
 8000a92:	230f      	movs	r3, #15
 8000a94:	4013      	ands	r3, r2
 8000a96:	2b04      	cmp	r3, #4
 8000a98:	d000      	beq.n	8000a9c <__aeabi_fmul+0x26c>
 8000a9a:	3204      	adds	r2, #4
 8000a9c:	0153      	lsls	r3, r2, #5
 8000a9e:	d510      	bpl.n	8000ac2 <__aeabi_fmul+0x292>
 8000aa0:	2301      	movs	r3, #1
 8000aa2:	2200      	movs	r2, #0
 8000aa4:	e792      	b.n	80009cc <__aeabi_fmul+0x19c>
 8000aa6:	003d      	movs	r5, r7
 8000aa8:	4646      	mov	r6, r8
 8000aaa:	4682      	mov	sl, r0
 8000aac:	e767      	b.n	800097e <__aeabi_fmul+0x14e>
 8000aae:	23ff      	movs	r3, #255	@ 0xff
 8000ab0:	2200      	movs	r2, #0
 8000ab2:	e78b      	b.n	80009cc <__aeabi_fmul+0x19c>
 8000ab4:	2280      	movs	r2, #128	@ 0x80
 8000ab6:	2500      	movs	r5, #0
 8000ab8:	03d2      	lsls	r2, r2, #15
 8000aba:	e786      	b.n	80009ca <__aeabi_fmul+0x19a>
 8000abc:	003d      	movs	r5, r7
 8000abe:	431a      	orrs	r2, r3
 8000ac0:	e783      	b.n	80009ca <__aeabi_fmul+0x19a>
 8000ac2:	0192      	lsls	r2, r2, #6
 8000ac4:	2300      	movs	r3, #0
 8000ac6:	0a52      	lsrs	r2, r2, #9
 8000ac8:	e780      	b.n	80009cc <__aeabi_fmul+0x19c>
 8000aca:	003d      	movs	r5, r7
 8000acc:	4646      	mov	r6, r8
 8000ace:	e777      	b.n	80009c0 <__aeabi_fmul+0x190>
 8000ad0:	002a      	movs	r2, r5
 8000ad2:	2301      	movs	r3, #1
 8000ad4:	407a      	eors	r2, r7
 8000ad6:	408b      	lsls	r3, r1
 8000ad8:	2003      	movs	r0, #3
 8000ada:	b2d2      	uxtb	r2, r2
 8000adc:	e6e9      	b.n	80008b2 <__aeabi_fmul+0x82>
 8000ade:	46c0      	nop			@ (mov r8, r8)
 8000ae0:	f7ffffff 	.word	0xf7ffffff

08000ae4 <__aeabi_f2iz>:
 8000ae4:	0241      	lsls	r1, r0, #9
 8000ae6:	0042      	lsls	r2, r0, #1
 8000ae8:	0fc3      	lsrs	r3, r0, #31
 8000aea:	0a49      	lsrs	r1, r1, #9
 8000aec:	2000      	movs	r0, #0
 8000aee:	0e12      	lsrs	r2, r2, #24
 8000af0:	2a7e      	cmp	r2, #126	@ 0x7e
 8000af2:	dd03      	ble.n	8000afc <__aeabi_f2iz+0x18>
 8000af4:	2a9d      	cmp	r2, #157	@ 0x9d
 8000af6:	dd02      	ble.n	8000afe <__aeabi_f2iz+0x1a>
 8000af8:	4a09      	ldr	r2, [pc, #36]	@ (8000b20 <__aeabi_f2iz+0x3c>)
 8000afa:	1898      	adds	r0, r3, r2
 8000afc:	4770      	bx	lr
 8000afe:	2080      	movs	r0, #128	@ 0x80
 8000b00:	0400      	lsls	r0, r0, #16
 8000b02:	4301      	orrs	r1, r0
 8000b04:	2a95      	cmp	r2, #149	@ 0x95
 8000b06:	dc07      	bgt.n	8000b18 <__aeabi_f2iz+0x34>
 8000b08:	2096      	movs	r0, #150	@ 0x96
 8000b0a:	1a82      	subs	r2, r0, r2
 8000b0c:	40d1      	lsrs	r1, r2
 8000b0e:	4248      	negs	r0, r1
 8000b10:	2b00      	cmp	r3, #0
 8000b12:	d1f3      	bne.n	8000afc <__aeabi_f2iz+0x18>
 8000b14:	0008      	movs	r0, r1
 8000b16:	e7f1      	b.n	8000afc <__aeabi_f2iz+0x18>
 8000b18:	3a96      	subs	r2, #150	@ 0x96
 8000b1a:	4091      	lsls	r1, r2
 8000b1c:	e7f7      	b.n	8000b0e <__aeabi_f2iz+0x2a>
 8000b1e:	46c0      	nop			@ (mov r8, r8)
 8000b20:	7fffffff 	.word	0x7fffffff

08000b24 <__aeabi_i2f>:
 8000b24:	b570      	push	{r4, r5, r6, lr}
 8000b26:	2800      	cmp	r0, #0
 8000b28:	d012      	beq.n	8000b50 <__aeabi_i2f+0x2c>
 8000b2a:	17c3      	asrs	r3, r0, #31
 8000b2c:	18c5      	adds	r5, r0, r3
 8000b2e:	405d      	eors	r5, r3
 8000b30:	0fc4      	lsrs	r4, r0, #31
 8000b32:	0028      	movs	r0, r5
 8000b34:	f000 f846 	bl	8000bc4 <__clzsi2>
 8000b38:	239e      	movs	r3, #158	@ 0x9e
 8000b3a:	1a1b      	subs	r3, r3, r0
 8000b3c:	2b96      	cmp	r3, #150	@ 0x96
 8000b3e:	dc0f      	bgt.n	8000b60 <__aeabi_i2f+0x3c>
 8000b40:	2808      	cmp	r0, #8
 8000b42:	d038      	beq.n	8000bb6 <__aeabi_i2f+0x92>
 8000b44:	3808      	subs	r0, #8
 8000b46:	4085      	lsls	r5, r0
 8000b48:	026d      	lsls	r5, r5, #9
 8000b4a:	0a6d      	lsrs	r5, r5, #9
 8000b4c:	b2d8      	uxtb	r0, r3
 8000b4e:	e002      	b.n	8000b56 <__aeabi_i2f+0x32>
 8000b50:	2400      	movs	r4, #0
 8000b52:	2000      	movs	r0, #0
 8000b54:	2500      	movs	r5, #0
 8000b56:	05c0      	lsls	r0, r0, #23
 8000b58:	4328      	orrs	r0, r5
 8000b5a:	07e4      	lsls	r4, r4, #31
 8000b5c:	4320      	orrs	r0, r4
 8000b5e:	bd70      	pop	{r4, r5, r6, pc}
 8000b60:	2b99      	cmp	r3, #153	@ 0x99
 8000b62:	dc14      	bgt.n	8000b8e <__aeabi_i2f+0x6a>
 8000b64:	1f42      	subs	r2, r0, #5
 8000b66:	4095      	lsls	r5, r2
 8000b68:	002a      	movs	r2, r5
 8000b6a:	4915      	ldr	r1, [pc, #84]	@ (8000bc0 <__aeabi_i2f+0x9c>)
 8000b6c:	4011      	ands	r1, r2
 8000b6e:	0755      	lsls	r5, r2, #29
 8000b70:	d01c      	beq.n	8000bac <__aeabi_i2f+0x88>
 8000b72:	250f      	movs	r5, #15
 8000b74:	402a      	ands	r2, r5
 8000b76:	2a04      	cmp	r2, #4
 8000b78:	d018      	beq.n	8000bac <__aeabi_i2f+0x88>
 8000b7a:	3104      	adds	r1, #4
 8000b7c:	08ca      	lsrs	r2, r1, #3
 8000b7e:	0149      	lsls	r1, r1, #5
 8000b80:	d515      	bpl.n	8000bae <__aeabi_i2f+0x8a>
 8000b82:	239f      	movs	r3, #159	@ 0x9f
 8000b84:	0252      	lsls	r2, r2, #9
 8000b86:	1a18      	subs	r0, r3, r0
 8000b88:	0a55      	lsrs	r5, r2, #9
 8000b8a:	b2c0      	uxtb	r0, r0
 8000b8c:	e7e3      	b.n	8000b56 <__aeabi_i2f+0x32>
 8000b8e:	2205      	movs	r2, #5
 8000b90:	0029      	movs	r1, r5
 8000b92:	1a12      	subs	r2, r2, r0
 8000b94:	40d1      	lsrs	r1, r2
 8000b96:	0002      	movs	r2, r0
 8000b98:	321b      	adds	r2, #27
 8000b9a:	4095      	lsls	r5, r2
 8000b9c:	002a      	movs	r2, r5
 8000b9e:	1e55      	subs	r5, r2, #1
 8000ba0:	41aa      	sbcs	r2, r5
 8000ba2:	430a      	orrs	r2, r1
 8000ba4:	4906      	ldr	r1, [pc, #24]	@ (8000bc0 <__aeabi_i2f+0x9c>)
 8000ba6:	4011      	ands	r1, r2
 8000ba8:	0755      	lsls	r5, r2, #29
 8000baa:	d1e2      	bne.n	8000b72 <__aeabi_i2f+0x4e>
 8000bac:	08ca      	lsrs	r2, r1, #3
 8000bae:	0252      	lsls	r2, r2, #9
 8000bb0:	0a55      	lsrs	r5, r2, #9
 8000bb2:	b2d8      	uxtb	r0, r3
 8000bb4:	e7cf      	b.n	8000b56 <__aeabi_i2f+0x32>
 8000bb6:	026d      	lsls	r5, r5, #9
 8000bb8:	0a6d      	lsrs	r5, r5, #9
 8000bba:	308e      	adds	r0, #142	@ 0x8e
 8000bbc:	e7cb      	b.n	8000b56 <__aeabi_i2f+0x32>
 8000bbe:	46c0      	nop			@ (mov r8, r8)
 8000bc0:	fbffffff 	.word	0xfbffffff

08000bc4 <__clzsi2>:
 8000bc4:	211c      	movs	r1, #28
 8000bc6:	2301      	movs	r3, #1
 8000bc8:	041b      	lsls	r3, r3, #16
 8000bca:	4298      	cmp	r0, r3
 8000bcc:	d301      	bcc.n	8000bd2 <__clzsi2+0xe>
 8000bce:	0c00      	lsrs	r0, r0, #16
 8000bd0:	3910      	subs	r1, #16
 8000bd2:	0a1b      	lsrs	r3, r3, #8
 8000bd4:	4298      	cmp	r0, r3
 8000bd6:	d301      	bcc.n	8000bdc <__clzsi2+0x18>
 8000bd8:	0a00      	lsrs	r0, r0, #8
 8000bda:	3908      	subs	r1, #8
 8000bdc:	091b      	lsrs	r3, r3, #4
 8000bde:	4298      	cmp	r0, r3
 8000be0:	d301      	bcc.n	8000be6 <__clzsi2+0x22>
 8000be2:	0900      	lsrs	r0, r0, #4
 8000be4:	3904      	subs	r1, #4
 8000be6:	a202      	add	r2, pc, #8	@ (adr r2, 8000bf0 <__clzsi2+0x2c>)
 8000be8:	5c10      	ldrb	r0, [r2, r0]
 8000bea:	1840      	adds	r0, r0, r1
 8000bec:	4770      	bx	lr
 8000bee:	46c0      	nop			@ (mov r8, r8)
 8000bf0:	02020304 	.word	0x02020304
 8000bf4:	01010101 	.word	0x01010101
	...

08000c00 <main>:
/**
  * @brief  The application entry point.
  * @retval int
  */
int main(void)
{
 8000c00:	b580      	push	{r7, lr}
 8000c02:	af00      	add	r7, sp, #0
  /* USER CODE END 1 */

  /* MCU Configuration--------------------------------------------------------*/

  /* Reset of all peripherals, Initializes the Flash interface and the Systick. */
  HAL_Init();
 8000c04:	f000 fed2 	bl	80019ac <HAL_Init>
  /* USER CODE BEGIN Init */

  /* USER CODE END Init */

  /* Configure the system clock */
  SystemClock_Config();
 8000c08:	f000 f850 	bl	8000cac <SystemClock_Config>
  /* USER CODE BEGIN SysInit */

  /* USER CODE END SysInit */

  /* Initialize all configured peripherals */
  MX_GPIO_Init();
 8000c0c:	f000 f980 	bl	8000f10 <MX_GPIO_Init>
  MX_TIM3_Init();
 8000c10:	f000 f8ee 	bl	8000df0 <MX_TIM3_Init>
  MX_TIM14_Init();
 8000c14:	f000 f956 	bl	8000ec4 <MX_TIM14_Init>
  MX_I2C1_Init();
 8000c18:	f000 f8aa 	bl	8000d70 <MX_I2C1_Init>
  /* USER CODE BEGIN 2 */

  HAL_TIM_PWM_Start(&htim3, TIM_CHANNEL_3); //JH PC8
 8000c1c:	4b21      	ldr	r3, [pc, #132]	@ (8000ca4 <main+0xa4>)
 8000c1e:	2108      	movs	r1, #8
 8000c20:	0018      	movs	r0, r3
 8000c22:	f002 fe43 	bl	80038ac <HAL_TIM_PWM_Start>
  HAL_TIM_PWM_Start(&htim3, TIM_CHANNEL_4); // PC9
 8000c26:	4b1f      	ldr	r3, [pc, #124]	@ (8000ca4 <main+0xa4>)
 8000c28:	210c      	movs	r1, #12
 8000c2a:	0018      	movs	r0, r3
 8000c2c:	f002 fe3e 	bl	80038ac <HAL_TIM_PWM_Start>

  __HAL_TIM_SET_COMPARE(&htim3, TIM_CHANNEL_3, 50);
 8000c30:	4b1c      	ldr	r3, [pc, #112]	@ (8000ca4 <main+0xa4>)
 8000c32:	681b      	ldr	r3, [r3, #0]
 8000c34:	2232      	movs	r2, #50	@ 0x32
 8000c36:	63da      	str	r2, [r3, #60]	@ 0x3c
  __HAL_TIM_SET_COMPARE(&htim3, TIM_CHANNEL_4, 50);
 8000c38:	4b1a      	ldr	r3, [pc, #104]	@ (8000ca4 <main+0xa4>)
 8000c3a:	681b      	ldr	r3, [r3, #0]
 8000c3c:	2232      	movs	r2, #50	@ 0x32
 8000c3e:	641a      	str	r2, [r3, #64]	@ 0x40


  if (check_fxas21002())
 8000c40:	f000 fae6 	bl	8001210 <check_fxas21002>
 8000c44:	1e03      	subs	r3, r0, #0
 8000c46:	d005      	beq.n	8000c54 <main+0x54>
  {
    blink_sos_pwm(&htim3, TIM_CHANNEL_3); // PC8: Erfolg
 8000c48:	4b16      	ldr	r3, [pc, #88]	@ (8000ca4 <main+0xa4>)
 8000c4a:	2108      	movs	r1, #8
 8000c4c:	0018      	movs	r0, r3
 8000c4e:	f000 f9ab 	bl	8000fa8 <blink_sos_pwm>
 8000c52:	e004      	b.n	8000c5e <main+0x5e>
  }
  else
  {
    blink_sos_pwm(&htim3, TIM_CHANNEL_4); // PC9: Fehler
 8000c54:	4b13      	ldr	r3, [pc, #76]	@ (8000ca4 <main+0xa4>)
 8000c56:	210c      	movs	r1, #12
 8000c58:	0018      	movs	r0, r3
 8000c5a:	f000 f9a5 	bl	8000fa8 <blink_sos_pwm>
  }

  HAL_Delay(1000);  // 1 Sekunden Pause zwischen check
 8000c5e:	23fa      	movs	r3, #250	@ 0xfa
 8000c60:	009b      	lsls	r3, r3, #2
 8000c62:	0018      	movs	r0, r3
 8000c64:	f000 ff06 	bl	8001a74 <HAL_Delay>

  if (check_fxos8700())
 8000c68:	f000 faa4 	bl	80011b4 <check_fxos8700>
 8000c6c:	1e03      	subs	r3, r0, #0
 8000c6e:	d005      	beq.n	8000c7c <main+0x7c>
  {
    blink_sos_pwm(&htim3, TIM_CHANNEL_3); // PC8: Erfolg
 8000c70:	4b0c      	ldr	r3, [pc, #48]	@ (8000ca4 <main+0xa4>)
 8000c72:	2108      	movs	r1, #8
 8000c74:	0018      	movs	r0, r3
 8000c76:	f000 f997 	bl	8000fa8 <blink_sos_pwm>
 8000c7a:	e004      	b.n	8000c86 <main+0x86>
  }
  else
  {
    blink_sos_pwm(&htim3, TIM_CHANNEL_4); // PC9: Fehler
 8000c7c:	4b09      	ldr	r3, [pc, #36]	@ (8000ca4 <main+0xa4>)
 8000c7e:	210c      	movs	r1, #12
 8000c80:	0018      	movs	r0, r3
 8000c82:	f000 f991 	bl	8000fa8 <blink_sos_pwm>
  }

  HAL_Delay(1000);  // 1 Sekunden Pause vor Regeltaktstart
 8000c86:	23fa      	movs	r3, #250	@ 0xfa
 8000c88:	009b      	lsls	r3, r3, #2
 8000c8a:	0018      	movs	r0, r3
 8000c8c:	f000 fef2 	bl	8001a74 <HAL_Delay>

  // Sensor initialisation
  init_fxas21002();
 8000c90:	f000 faec 	bl	800126c <init_fxas21002>
  init_fxos8700();
 8000c94:	f000 fb46 	bl	8001324 <init_fxos8700>

  // Regelung startet
  HAL_TIM_Base_Start_IT(&htim14);  //JH Startet 10Hz-Regeltakt
 8000c98:	4b03      	ldr	r3, [pc, #12]	@ (8000ca8 <main+0xa8>)
 8000c9a:	0018      	movs	r0, r3
 8000c9c:	f002 fd64 	bl	8003768 <HAL_TIM_Base_Start_IT>

  /* USER CODE END 2 */

  /* Infinite loop */
  /* USER CODE BEGIN WHILE */
  while (1)
 8000ca0:	46c0      	nop			@ (mov r8, r8)
 8000ca2:	e7fd      	b.n	8000ca0 <main+0xa0>
 8000ca4:	2000007c 	.word	0x2000007c
 8000ca8:	200000c4 	.word	0x200000c4

08000cac <SystemClock_Config>:
/**
  * @brief System Clock Configuration
  * @retval None
  */
void SystemClock_Config(void)
{
 8000cac:	b590      	push	{r4, r7, lr}
 8000cae:	b097      	sub	sp, #92	@ 0x5c
 8000cb0:	af00      	add	r7, sp, #0
  RCC_OscInitTypeDef RCC_OscInitStruct = {0};
 8000cb2:	2428      	movs	r4, #40	@ 0x28
 8000cb4:	193b      	adds	r3, r7, r4
 8000cb6:	0018      	movs	r0, r3
 8000cb8:	2330      	movs	r3, #48	@ 0x30
 8000cba:	001a      	movs	r2, r3
 8000cbc:	2100      	movs	r1, #0
 8000cbe:	f003 fb9d 	bl	80043fc <memset>
  RCC_ClkInitTypeDef RCC_ClkInitStruct = {0};
 8000cc2:	2318      	movs	r3, #24
 8000cc4:	18fb      	adds	r3, r7, r3
 8000cc6:	0018      	movs	r0, r3
 8000cc8:	2310      	movs	r3, #16
 8000cca:	001a      	movs	r2, r3
 8000ccc:	2100      	movs	r1, #0
 8000cce:	f003 fb95 	bl	80043fc <memset>
  RCC_PeriphCLKInitTypeDef PeriphClkInit = {0};
 8000cd2:	1d3b      	adds	r3, r7, #4
 8000cd4:	0018      	movs	r0, r3
 8000cd6:	2314      	movs	r3, #20
 8000cd8:	001a      	movs	r2, r3
 8000cda:	2100      	movs	r1, #0
 8000cdc:	f003 fb8e 	bl	80043fc <memset>

  /** Initializes the RCC Oscillators according to the specified parameters
  * in the RCC_OscInitTypeDef structure.
  */
  RCC_OscInitStruct.OscillatorType = RCC_OSCILLATORTYPE_HSI;
 8000ce0:	0021      	movs	r1, r4
 8000ce2:	187b      	adds	r3, r7, r1
 8000ce4:	2202      	movs	r2, #2
 8000ce6:	601a      	str	r2, [r3, #0]
  RCC_OscInitStruct.HSIState = RCC_HSI_ON;
 8000ce8:	187b      	adds	r3, r7, r1
 8000cea:	2201      	movs	r2, #1
 8000cec:	60da      	str	r2, [r3, #12]
  RCC_OscInitStruct.HSICalibrationValue = RCC_HSICALIBRATION_DEFAULT;
 8000cee:	187b      	adds	r3, r7, r1
 8000cf0:	2210      	movs	r2, #16
 8000cf2:	611a      	str	r2, [r3, #16]
  RCC_OscInitStruct.PLL.PLLState = RCC_PLL_ON;
 8000cf4:	187b      	adds	r3, r7, r1
 8000cf6:	2202      	movs	r2, #2
 8000cf8:	621a      	str	r2, [r3, #32]
  RCC_OscInitStruct.PLL.PLLSource = RCC_PLLSOURCE_HSI;
 8000cfa:	187b      	adds	r3, r7, r1
 8000cfc:	2200      	movs	r2, #0
 8000cfe:	625a      	str	r2, [r3, #36]	@ 0x24
  RCC_OscInitStruct.PLL.PLLMUL = RCC_PLL_MUL12;
 8000d00:	187b      	adds	r3, r7, r1
 8000d02:	22a0      	movs	r2, #160	@ 0xa0
 8000d04:	0392      	lsls	r2, r2, #14
 8000d06:	629a      	str	r2, [r3, #40]	@ 0x28
  RCC_OscInitStruct.PLL.PREDIV = RCC_PREDIV_DIV1;
 8000d08:	187b      	adds	r3, r7, r1
 8000d0a:	2200      	movs	r2, #0
 8000d0c:	62da      	str	r2, [r3, #44]	@ 0x2c
  if (HAL_RCC_OscConfig(&RCC_OscInitStruct) != HAL_OK)
 8000d0e:	187b      	adds	r3, r7, r1
 8000d10:	0018      	movs	r0, r3
 8000d12:	f001 ffbd 	bl	8002c90 <HAL_RCC_OscConfig>
 8000d16:	1e03      	subs	r3, r0, #0
 8000d18:	d001      	beq.n	8000d1e <SystemClock_Config+0x72>
  {
    Error_Handler();
 8000d1a:	f000 fcdd 	bl	80016d8 <Error_Handler>
  }

  /** Initializes the CPU, AHB and APB buses clocks
  */
  RCC_ClkInitStruct.ClockType = RCC_CLOCKTYPE_HCLK|RCC_CLOCKTYPE_SYSCLK
 8000d1e:	2118      	movs	r1, #24
 8000d20:	187b      	adds	r3, r7, r1
 8000d22:	2207      	movs	r2, #7
 8000d24:	601a      	str	r2, [r3, #0]
                              |RCC_CLOCKTYPE_PCLK1;
  RCC_ClkInitStruct.SYSCLKSource = RCC_SYSCLKSOURCE_PLLCLK;
 8000d26:	187b      	adds	r3, r7, r1
 8000d28:	2202      	movs	r2, #2
 8000d2a:	605a      	str	r2, [r3, #4]
  RCC_ClkInitStruct.AHBCLKDivider = RCC_SYSCLK_DIV1;
 8000d2c:	187b      	adds	r3, r7, r1
 8000d2e:	2200      	movs	r2, #0
 8000d30:	609a      	str	r2, [r3, #8]
  RCC_ClkInitStruct.APB1CLKDivider = RCC_HCLK_DIV1;
 8000d32:	187b      	adds	r3, r7, r1
 8000d34:	2200      	movs	r2, #0
 8000d36:	60da      	str	r2, [r3, #12]

  if (HAL_RCC_ClockConfig(&RCC_ClkInitStruct, FLASH_LATENCY_1) != HAL_OK)
 8000d38:	187b      	adds	r3, r7, r1
 8000d3a:	2101      	movs	r1, #1
 8000d3c:	0018      	movs	r0, r3
 8000d3e:	f002 fac1 	bl	80032c4 <HAL_RCC_ClockConfig>
 8000d42:	1e03      	subs	r3, r0, #0
 8000d44:	d001      	beq.n	8000d4a <SystemClock_Config+0x9e>
  {
    Error_Handler();
 8000d46:	f000 fcc7 	bl	80016d8 <Error_Handler>
  }
  PeriphClkInit.PeriphClockSelection = RCC_PERIPHCLK_I2C1;
 8000d4a:	1d3b      	adds	r3, r7, #4
 8000d4c:	2220      	movs	r2, #32
 8000d4e:	601a      	str	r2, [r3, #0]
  PeriphClkInit.I2c1ClockSelection = RCC_I2C1CLKSOURCE_HSI;
 8000d50:	1d3b      	adds	r3, r7, #4
 8000d52:	2200      	movs	r2, #0
 8000d54:	60da      	str	r2, [r3, #12]
  if (HAL_RCCEx_PeriphCLKConfig(&PeriphClkInit) != HAL_OK)
 8000d56:	1d3b      	adds	r3, r7, #4
 8000d58:	0018      	movs	r0, r3
 8000d5a:	f002 fbd7 	bl	800350c <HAL_RCCEx_PeriphCLKConfig>
 8000d5e:	1e03      	subs	r3, r0, #0
 8000d60:	d001      	beq.n	8000d66 <SystemClock_Config+0xba>
  {
    Error_Handler();
 8000d62:	f000 fcb9 	bl	80016d8 <Error_Handler>
  }
}
 8000d66:	46c0      	nop			@ (mov r8, r8)
 8000d68:	46bd      	mov	sp, r7
 8000d6a:	b017      	add	sp, #92	@ 0x5c
 8000d6c:	bd90      	pop	{r4, r7, pc}
	...

08000d70 <MX_I2C1_Init>:
  * @brief I2C1 Initialization Function
  * @param None
  * @retval None
  */
static void MX_I2C1_Init(void)
{
 8000d70:	b580      	push	{r7, lr}
 8000d72:	af00      	add	r7, sp, #0
  /* USER CODE END I2C1_Init 0 */

  /* USER CODE BEGIN I2C1_Init 1 */

  /* USER CODE END I2C1_Init 1 */
  hi2c1.Instance = I2C1;
 8000d74:	4b1b      	ldr	r3, [pc, #108]	@ (8000de4 <MX_I2C1_Init+0x74>)
 8000d76:	4a1c      	ldr	r2, [pc, #112]	@ (8000de8 <MX_I2C1_Init+0x78>)
 8000d78:	601a      	str	r2, [r3, #0]
  hi2c1.Init.Timing = 0x00201D2B;
 8000d7a:	4b1a      	ldr	r3, [pc, #104]	@ (8000de4 <MX_I2C1_Init+0x74>)
 8000d7c:	4a1b      	ldr	r2, [pc, #108]	@ (8000dec <MX_I2C1_Init+0x7c>)
 8000d7e:	605a      	str	r2, [r3, #4]
  hi2c1.Init.OwnAddress1 = 0;
 8000d80:	4b18      	ldr	r3, [pc, #96]	@ (8000de4 <MX_I2C1_Init+0x74>)
 8000d82:	2200      	movs	r2, #0
 8000d84:	609a      	str	r2, [r3, #8]
  hi2c1.Init.AddressingMode = I2C_ADDRESSINGMODE_7BIT;
 8000d86:	4b17      	ldr	r3, [pc, #92]	@ (8000de4 <MX_I2C1_Init+0x74>)
 8000d88:	2201      	movs	r2, #1
 8000d8a:	60da      	str	r2, [r3, #12]
  hi2c1.Init.DualAddressMode = I2C_DUALADDRESS_DISABLE;
 8000d8c:	4b15      	ldr	r3, [pc, #84]	@ (8000de4 <MX_I2C1_Init+0x74>)
 8000d8e:	2200      	movs	r2, #0
 8000d90:	611a      	str	r2, [r3, #16]
  hi2c1.Init.OwnAddress2 = 0;
 8000d92:	4b14      	ldr	r3, [pc, #80]	@ (8000de4 <MX_I2C1_Init+0x74>)
 8000d94:	2200      	movs	r2, #0
 8000d96:	615a      	str	r2, [r3, #20]
  hi2c1.Init.OwnAddress2Masks = I2C_OA2_NOMASK;
 8000d98:	4b12      	ldr	r3, [pc, #72]	@ (8000de4 <MX_I2C1_Init+0x74>)
 8000d9a:	2200      	movs	r2, #0
 8000d9c:	619a      	str	r2, [r3, #24]
  hi2c1.Init.GeneralCallMode = I2C_GENERALCALL_DISABLE;
 8000d9e:	4b11      	ldr	r3, [pc, #68]	@ (8000de4 <MX_I2C1_Init+0x74>)
 8000da0:	2200      	movs	r2, #0
 8000da2:	61da      	str	r2, [r3, #28]
  hi2c1.Init.NoStretchMode = I2C_NOSTRETCH_DISABLE;
 8000da4:	4b0f      	ldr	r3, [pc, #60]	@ (8000de4 <MX_I2C1_Init+0x74>)
 8000da6:	2200      	movs	r2, #0
 8000da8:	621a      	str	r2, [r3, #32]
  if (HAL_I2C_Init(&hi2c1) != HAL_OK)
 8000daa:	4b0e      	ldr	r3, [pc, #56]	@ (8000de4 <MX_I2C1_Init+0x74>)
 8000dac:	0018      	movs	r0, r3
 8000dae:	f001 f8d3 	bl	8001f58 <HAL_I2C_Init>
 8000db2:	1e03      	subs	r3, r0, #0
 8000db4:	d001      	beq.n	8000dba <MX_I2C1_Init+0x4a>
  {
    Error_Handler();
 8000db6:	f000 fc8f 	bl	80016d8 <Error_Handler>
  }

  /** Configure Analogue filter
  */
  if (HAL_I2CEx_ConfigAnalogFilter(&hi2c1, I2C_ANALOGFILTER_ENABLE) != HAL_OK)
 8000dba:	4b0a      	ldr	r3, [pc, #40]	@ (8000de4 <MX_I2C1_Init+0x74>)
 8000dbc:	2100      	movs	r1, #0
 8000dbe:	0018      	movs	r0, r3
 8000dc0:	f001 fece 	bl	8002b60 <HAL_I2CEx_ConfigAnalogFilter>
 8000dc4:	1e03      	subs	r3, r0, #0
 8000dc6:	d001      	beq.n	8000dcc <MX_I2C1_Init+0x5c>
  {
    Error_Handler();
 8000dc8:	f000 fc86 	bl	80016d8 <Error_Handler>
  }

  /** Configure Digital filter
  */
  if (HAL_I2CEx_ConfigDigitalFilter(&hi2c1, 0) != HAL_OK)
 8000dcc:	4b05      	ldr	r3, [pc, #20]	@ (8000de4 <MX_I2C1_Init+0x74>)
 8000dce:	2100      	movs	r1, #0
 8000dd0:	0018      	movs	r0, r3
 8000dd2:	f001 ff11 	bl	8002bf8 <HAL_I2CEx_ConfigDigitalFilter>
 8000dd6:	1e03      	subs	r3, r0, #0
 8000dd8:	d001      	beq.n	8000dde <MX_I2C1_Init+0x6e>
  {
    Error_Handler();
 8000dda:	f000 fc7d 	bl	80016d8 <Error_Handler>
  }
  /* USER CODE BEGIN I2C1_Init 2 */

  /* USER CODE END I2C1_Init 2 */

}
 8000dde:	46c0      	nop			@ (mov r8, r8)
 8000de0:	46bd      	mov	sp, r7
 8000de2:	bd80      	pop	{r7, pc}
 8000de4:	20000028 	.word	0x20000028
 8000de8:	40005400 	.word	0x40005400
 8000dec:	00201d2b 	.word	0x00201d2b

08000df0 <MX_TIM3_Init>:
  * @brief TIM3 Initialization Function
  * @param None
  * @retval None
  */
static void MX_TIM3_Init(void)
{
 8000df0:	b580      	push	{r7, lr}
 8000df2:	b08a      	sub	sp, #40	@ 0x28
 8000df4:	af00      	add	r7, sp, #0

  /* USER CODE BEGIN TIM3_Init 0 */

  /* USER CODE END TIM3_Init 0 */

  TIM_MasterConfigTypeDef sMasterConfig = {0};
 8000df6:	2320      	movs	r3, #32
 8000df8:	18fb      	adds	r3, r7, r3
 8000dfa:	0018      	movs	r0, r3
 8000dfc:	2308      	movs	r3, #8
 8000dfe:	001a      	movs	r2, r3
 8000e00:	2100      	movs	r1, #0
 8000e02:	f003 fafb 	bl	80043fc <memset>
  TIM_OC_InitTypeDef sConfigOC = {0};
 8000e06:	1d3b      	adds	r3, r7, #4
 8000e08:	0018      	movs	r0, r3
 8000e0a:	231c      	movs	r3, #28
 8000e0c:	001a      	movs	r2, r3
 8000e0e:	2100      	movs	r1, #0
 8000e10:	f003 faf4 	bl	80043fc <memset>

  /* USER CODE BEGIN TIM3_Init 1 */

  /* USER CODE END TIM3_Init 1 */
  htim3.Instance = TIM3;
 8000e14:	4b29      	ldr	r3, [pc, #164]	@ (8000ebc <MX_TIM3_Init+0xcc>)
 8000e16:	4a2a      	ldr	r2, [pc, #168]	@ (8000ec0 <MX_TIM3_Init+0xd0>)
 8000e18:	601a      	str	r2, [r3, #0]
  htim3.Init.Prescaler = 479;
 8000e1a:	4b28      	ldr	r3, [pc, #160]	@ (8000ebc <MX_TIM3_Init+0xcc>)
 8000e1c:	22e0      	movs	r2, #224	@ 0xe0
 8000e1e:	32ff      	adds	r2, #255	@ 0xff
 8000e20:	605a      	str	r2, [r3, #4]
  htim3.Init.CounterMode = TIM_COUNTERMODE_UP;
 8000e22:	4b26      	ldr	r3, [pc, #152]	@ (8000ebc <MX_TIM3_Init+0xcc>)
 8000e24:	2200      	movs	r2, #0
 8000e26:	609a      	str	r2, [r3, #8]
  htim3.Init.Period = 100;
 8000e28:	4b24      	ldr	r3, [pc, #144]	@ (8000ebc <MX_TIM3_Init+0xcc>)
 8000e2a:	2264      	movs	r2, #100	@ 0x64
 8000e2c:	60da      	str	r2, [r3, #12]
  htim3.Init.ClockDivision = TIM_CLOCKDIVISION_DIV1;
 8000e2e:	4b23      	ldr	r3, [pc, #140]	@ (8000ebc <MX_TIM3_Init+0xcc>)
 8000e30:	2200      	movs	r2, #0
 8000e32:	611a      	str	r2, [r3, #16]
  htim3.Init.AutoReloadPreload = TIM_AUTORELOAD_PRELOAD_DISABLE;
 8000e34:	4b21      	ldr	r3, [pc, #132]	@ (8000ebc <MX_TIM3_Init+0xcc>)
 8000e36:	2200      	movs	r2, #0
 8000e38:	619a      	str	r2, [r3, #24]
  if (HAL_TIM_PWM_Init(&htim3) != HAL_OK)
 8000e3a:	4b20      	ldr	r3, [pc, #128]	@ (8000ebc <MX_TIM3_Init+0xcc>)
 8000e3c:	0018      	movs	r0, r3
 8000e3e:	f002 fce5 	bl	800380c <HAL_TIM_PWM_Init>
 8000e42:	1e03      	subs	r3, r0, #0
 8000e44:	d001      	beq.n	8000e4a <MX_TIM3_Init+0x5a>
  {
    Error_Handler();
 8000e46:	f000 fc47 	bl	80016d8 <Error_Handler>
  }
  sMasterConfig.MasterOutputTrigger = TIM_TRGO_RESET;
 8000e4a:	2120      	movs	r1, #32
 8000e4c:	187b      	adds	r3, r7, r1
 8000e4e:	2200      	movs	r2, #0
 8000e50:	601a      	str	r2, [r3, #0]
  sMasterConfig.MasterSlaveMode = TIM_MASTERSLAVEMODE_DISABLE;
 8000e52:	187b      	adds	r3, r7, r1
 8000e54:	2200      	movs	r2, #0
 8000e56:	605a      	str	r2, [r3, #4]
  if (HAL_TIMEx_MasterConfigSynchronization(&htim3, &sMasterConfig) != HAL_OK)
 8000e58:	187a      	adds	r2, r7, r1
 8000e5a:	4b18      	ldr	r3, [pc, #96]	@ (8000ebc <MX_TIM3_Init+0xcc>)
 8000e5c:	0011      	movs	r1, r2
 8000e5e:	0018      	movs	r0, r3
 8000e60:	f003 fa5e 	bl	8004320 <HAL_TIMEx_MasterConfigSynchronization>
 8000e64:	1e03      	subs	r3, r0, #0
 8000e66:	d001      	beq.n	8000e6c <MX_TIM3_Init+0x7c>
  {
    Error_Handler();
 8000e68:	f000 fc36 	bl	80016d8 <Error_Handler>
  }
  sConfigOC.OCMode = TIM_OCMODE_PWM1;
 8000e6c:	1d3b      	adds	r3, r7, #4
 8000e6e:	2260      	movs	r2, #96	@ 0x60
 8000e70:	601a      	str	r2, [r3, #0]
  sConfigOC.Pulse = 50;
 8000e72:	1d3b      	adds	r3, r7, #4
 8000e74:	2232      	movs	r2, #50	@ 0x32
 8000e76:	605a      	str	r2, [r3, #4]
  sConfigOC.OCPolarity = TIM_OCPOLARITY_HIGH;
 8000e78:	1d3b      	adds	r3, r7, #4
 8000e7a:	2200      	movs	r2, #0
 8000e7c:	609a      	str	r2, [r3, #8]
  sConfigOC.OCFastMode = TIM_OCFAST_DISABLE;
 8000e7e:	1d3b      	adds	r3, r7, #4
 8000e80:	2200      	movs	r2, #0
 8000e82:	611a      	str	r2, [r3, #16]
  if (HAL_TIM_PWM_ConfigChannel(&htim3, &sConfigOC, TIM_CHANNEL_3) != HAL_OK)
 8000e84:	1d39      	adds	r1, r7, #4
 8000e86:	4b0d      	ldr	r3, [pc, #52]	@ (8000ebc <MX_TIM3_Init+0xcc>)
 8000e88:	2208      	movs	r2, #8
 8000e8a:	0018      	movs	r0, r3
 8000e8c:	f002 feb4 	bl	8003bf8 <HAL_TIM_PWM_ConfigChannel>
 8000e90:	1e03      	subs	r3, r0, #0
 8000e92:	d001      	beq.n	8000e98 <MX_TIM3_Init+0xa8>
  {
    Error_Handler();
 8000e94:	f000 fc20 	bl	80016d8 <Error_Handler>
  }
  if (HAL_TIM_PWM_ConfigChannel(&htim3, &sConfigOC, TIM_CHANNEL_4) != HAL_OK)
 8000e98:	1d39      	adds	r1, r7, #4
 8000e9a:	4b08      	ldr	r3, [pc, #32]	@ (8000ebc <MX_TIM3_Init+0xcc>)
 8000e9c:	220c      	movs	r2, #12
 8000e9e:	0018      	movs	r0, r3
 8000ea0:	f002 feaa 	bl	8003bf8 <HAL_TIM_PWM_ConfigChannel>
 8000ea4:	1e03      	subs	r3, r0, #0
 8000ea6:	d001      	beq.n	8000eac <MX_TIM3_Init+0xbc>
  {
    Error_Handler();
 8000ea8:	f000 fc16 	bl	80016d8 <Error_Handler>
  }
  /* USER CODE BEGIN TIM3_Init 2 */

  /* USER CODE END TIM3_Init 2 */
  HAL_TIM_MspPostInit(&htim3);
 8000eac:	4b03      	ldr	r3, [pc, #12]	@ (8000ebc <MX_TIM3_Init+0xcc>)
 8000eae:	0018      	movs	r0, r3
 8000eb0:	f000 fcd0 	bl	8001854 <HAL_TIM_MspPostInit>

}
 8000eb4:	46c0      	nop			@ (mov r8, r8)
 8000eb6:	46bd      	mov	sp, r7
 8000eb8:	b00a      	add	sp, #40	@ 0x28
 8000eba:	bd80      	pop	{r7, pc}
 8000ebc:	2000007c 	.word	0x2000007c
 8000ec0:	40000400 	.word	0x40000400

08000ec4 <MX_TIM14_Init>:
  * @brief TIM14 Initialization Function
  * @param None
  * @retval None
  */
static void MX_TIM14_Init(void)
{
 8000ec4:	b580      	push	{r7, lr}
 8000ec6:	af00      	add	r7, sp, #0
  /* USER CODE END TIM14_Init 0 */

  /* USER CODE BEGIN TIM14_Init 1 */

  /* USER CODE END TIM14_Init 1 */
  htim14.Instance = TIM14;
 8000ec8:	4b0e      	ldr	r3, [pc, #56]	@ (8000f04 <MX_TIM14_Init+0x40>)
 8000eca:	4a0f      	ldr	r2, [pc, #60]	@ (8000f08 <MX_TIM14_Init+0x44>)
 8000ecc:	601a      	str	r2, [r3, #0]
  htim14.Init.Prescaler = 47999;
 8000ece:	4b0d      	ldr	r3, [pc, #52]	@ (8000f04 <MX_TIM14_Init+0x40>)
 8000ed0:	4a0e      	ldr	r2, [pc, #56]	@ (8000f0c <MX_TIM14_Init+0x48>)
 8000ed2:	605a      	str	r2, [r3, #4]
  htim14.Init.CounterMode = TIM_COUNTERMODE_UP;
 8000ed4:	4b0b      	ldr	r3, [pc, #44]	@ (8000f04 <MX_TIM14_Init+0x40>)
 8000ed6:	2200      	movs	r2, #0
 8000ed8:	609a      	str	r2, [r3, #8]
  htim14.Init.Period = 99;
 8000eda:	4b0a      	ldr	r3, [pc, #40]	@ (8000f04 <MX_TIM14_Init+0x40>)
 8000edc:	2263      	movs	r2, #99	@ 0x63
 8000ede:	60da      	str	r2, [r3, #12]
  htim14.Init.ClockDivision = TIM_CLOCKDIVISION_DIV1;
 8000ee0:	4b08      	ldr	r3, [pc, #32]	@ (8000f04 <MX_TIM14_Init+0x40>)
 8000ee2:	2200      	movs	r2, #0
 8000ee4:	611a      	str	r2, [r3, #16]
  htim14.Init.AutoReloadPreload = TIM_AUTORELOAD_PRELOAD_DISABLE;
 8000ee6:	4b07      	ldr	r3, [pc, #28]	@ (8000f04 <MX_TIM14_Init+0x40>)
 8000ee8:	2200      	movs	r2, #0
 8000eea:	619a      	str	r2, [r3, #24]
  if (HAL_TIM_Base_Init(&htim14) != HAL_OK)
 8000eec:	4b05      	ldr	r3, [pc, #20]	@ (8000f04 <MX_TIM14_Init+0x40>)
 8000eee:	0018      	movs	r0, r3
 8000ef0:	f002 fbea 	bl	80036c8 <HAL_TIM_Base_Init>
 8000ef4:	1e03      	subs	r3, r0, #0
 8000ef6:	d001      	beq.n	8000efc <MX_TIM14_Init+0x38>
  {
    Error_Handler();
 8000ef8:	f000 fbee 	bl	80016d8 <Error_Handler>
  }
  /* USER CODE BEGIN TIM14_Init 2 */

  /* USER CODE END TIM14_Init 2 */

}
 8000efc:	46c0      	nop			@ (mov r8, r8)
 8000efe:	46bd      	mov	sp, r7
 8000f00:	bd80      	pop	{r7, pc}
 8000f02:	46c0      	nop			@ (mov r8, r8)
 8000f04:	200000c4 	.word	0x200000c4
 8000f08:	40002000 	.word	0x40002000
 8000f0c:	0000bb7f 	.word	0x0000bb7f

08000f10 <MX_GPIO_Init>:
  * @brief GPIO Initialization Function
  * @param None
  * @retval None
  */
static void MX_GPIO_Init(void)
{
 8000f10:	b590      	push	{r4, r7, lr}
 8000f12:	b089      	sub	sp, #36	@ 0x24
 8000f14:	af00      	add	r7, sp, #0
  GPIO_InitTypeDef GPIO_InitStruct = {0};
 8000f16:	240c      	movs	r4, #12
 8000f18:	193b      	adds	r3, r7, r4
 8000f1a:	0018      	movs	r0, r3
 8000f1c:	2314      	movs	r3, #20
 8000f1e:	001a      	movs	r2, r3
 8000f20:	2100      	movs	r1, #0
 8000f22:	f003 fa6b 	bl	80043fc <memset>
  /* USER CODE BEGIN MX_GPIO_Init_1 */

  /* USER CODE END MX_GPIO_Init_1 */

  /* GPIO Ports Clock Enable */
  __HAL_RCC_GPIOA_CLK_ENABLE();
 8000f26:	4b1f      	ldr	r3, [pc, #124]	@ (8000fa4 <MX_GPIO_Init+0x94>)
 8000f28:	695a      	ldr	r2, [r3, #20]
 8000f2a:	4b1e      	ldr	r3, [pc, #120]	@ (8000fa4 <MX_GPIO_Init+0x94>)
 8000f2c:	2180      	movs	r1, #128	@ 0x80
 8000f2e:	0289      	lsls	r1, r1, #10
 8000f30:	430a      	orrs	r2, r1
 8000f32:	615a      	str	r2, [r3, #20]
 8000f34:	4b1b      	ldr	r3, [pc, #108]	@ (8000fa4 <MX_GPIO_Init+0x94>)
 8000f36:	695a      	ldr	r2, [r3, #20]
 8000f38:	2380      	movs	r3, #128	@ 0x80
 8000f3a:	029b      	lsls	r3, r3, #10
 8000f3c:	4013      	ands	r3, r2
 8000f3e:	60bb      	str	r3, [r7, #8]
 8000f40:	68bb      	ldr	r3, [r7, #8]
  __HAL_RCC_GPIOC_CLK_ENABLE();
 8000f42:	4b18      	ldr	r3, [pc, #96]	@ (8000fa4 <MX_GPIO_Init+0x94>)
 8000f44:	695a      	ldr	r2, [r3, #20]
 8000f46:	4b17      	ldr	r3, [pc, #92]	@ (8000fa4 <MX_GPIO_Init+0x94>)
 8000f48:	2180      	movs	r1, #128	@ 0x80
 8000f4a:	0309      	lsls	r1, r1, #12
 8000f4c:	430a      	orrs	r2, r1
 8000f4e:	615a      	str	r2, [r3, #20]
 8000f50:	4b14      	ldr	r3, [pc, #80]	@ (8000fa4 <MX_GPIO_Init+0x94>)
 8000f52:	695a      	ldr	r2, [r3, #20]
 8000f54:	2380      	movs	r3, #128	@ 0x80
 8000f56:	031b      	lsls	r3, r3, #12
 8000f58:	4013      	ands	r3, r2
 8000f5a:	607b      	str	r3, [r7, #4]
 8000f5c:	687b      	ldr	r3, [r7, #4]
  __HAL_RCC_GPIOB_CLK_ENABLE();
 8000f5e:	4b11      	ldr	r3, [pc, #68]	@ (8000fa4 <MX_GPIO_Init+0x94>)
 8000f60:	695a      	ldr	r2, [r3, #20]
 8000f62:	4b10      	ldr	r3, [pc, #64]	@ (8000fa4 <MX_GPIO_Init+0x94>)
 8000f64:	2180      	movs	r1, #128	@ 0x80
 8000f66:	02c9      	lsls	r1, r1, #11
 8000f68:	430a      	orrs	r2, r1
 8000f6a:	615a      	str	r2, [r3, #20]
 8000f6c:	4b0d      	ldr	r3, [pc, #52]	@ (8000fa4 <MX_GPIO_Init+0x94>)
 8000f6e:	695a      	ldr	r2, [r3, #20]
 8000f70:	2380      	movs	r3, #128	@ 0x80
 8000f72:	02db      	lsls	r3, r3, #11
 8000f74:	4013      	ands	r3, r2
 8000f76:	603b      	str	r3, [r7, #0]
 8000f78:	683b      	ldr	r3, [r7, #0]

  /*Configure GPIO pin : Blue_Switch_Pin */
  GPIO_InitStruct.Pin = Blue_Switch_Pin;
 8000f7a:	193b      	adds	r3, r7, r4
 8000f7c:	2201      	movs	r2, #1
 8000f7e:	601a      	str	r2, [r3, #0]
  GPIO_InitStruct.Mode = GPIO_MODE_INPUT;
 8000f80:	193b      	adds	r3, r7, r4
 8000f82:	2200      	movs	r2, #0
 8000f84:	605a      	str	r2, [r3, #4]
  GPIO_InitStruct.Pull = GPIO_PULLUP;
 8000f86:	193b      	adds	r3, r7, r4
 8000f88:	2201      	movs	r2, #1
 8000f8a:	609a      	str	r2, [r3, #8]
  HAL_GPIO_Init(Blue_Switch_GPIO_Port, &GPIO_InitStruct);
 8000f8c:	193a      	adds	r2, r7, r4
 8000f8e:	2390      	movs	r3, #144	@ 0x90
 8000f90:	05db      	lsls	r3, r3, #23
 8000f92:	0011      	movs	r1, r2
 8000f94:	0018      	movs	r0, r3
 8000f96:	f000 fe6f 	bl	8001c78 <HAL_GPIO_Init>

  /* USER CODE BEGIN MX_GPIO_Init_2 */

  /* USER CODE END MX_GPIO_Init_2 */
}
 8000f9a:	46c0      	nop			@ (mov r8, r8)
 8000f9c:	46bd      	mov	sp, r7
 8000f9e:	b009      	add	sp, #36	@ 0x24
 8000fa0:	bd90      	pop	{r4, r7, pc}
 8000fa2:	46c0      	nop			@ (mov r8, r8)
 8000fa4:	40021000 	.word	0x40021000

08000fa8 <blink_sos_pwm>:

/* USER CODE BEGIN 4 */

// Initialisation check functions
void blink_sos_pwm(TIM_HandleTypeDef* htim, uint32_t channel)
{
 8000fa8:	b580      	push	{r7, lr}
 8000faa:	b086      	sub	sp, #24
 8000fac:	af00      	add	r7, sp, #0
 8000fae:	6078      	str	r0, [r7, #4]
 8000fb0:	6039      	str	r1, [r7, #0]
  for (int i = 0; i < 3; i++) {  // S = ...
 8000fb2:	2300      	movs	r3, #0
 8000fb4:	617b      	str	r3, [r7, #20]
 8000fb6:	e040      	b.n	800103a <blink_sos_pwm+0x92>
    __HAL_TIM_SET_COMPARE(htim, channel, 100); // "an"
 8000fb8:	683b      	ldr	r3, [r7, #0]
 8000fba:	2b00      	cmp	r3, #0
 8000fbc:	d104      	bne.n	8000fc8 <blink_sos_pwm+0x20>
 8000fbe:	687b      	ldr	r3, [r7, #4]
 8000fc0:	681b      	ldr	r3, [r3, #0]
 8000fc2:	2264      	movs	r2, #100	@ 0x64
 8000fc4:	635a      	str	r2, [r3, #52]	@ 0x34
 8000fc6:	e013      	b.n	8000ff0 <blink_sos_pwm+0x48>
 8000fc8:	683b      	ldr	r3, [r7, #0]
 8000fca:	2b04      	cmp	r3, #4
 8000fcc:	d104      	bne.n	8000fd8 <blink_sos_pwm+0x30>
 8000fce:	687b      	ldr	r3, [r7, #4]
 8000fd0:	681a      	ldr	r2, [r3, #0]
 8000fd2:	2364      	movs	r3, #100	@ 0x64
 8000fd4:	6393      	str	r3, [r2, #56]	@ 0x38
 8000fd6:	e00b      	b.n	8000ff0 <blink_sos_pwm+0x48>
 8000fd8:	683b      	ldr	r3, [r7, #0]
 8000fda:	2b08      	cmp	r3, #8
 8000fdc:	d104      	bne.n	8000fe8 <blink_sos_pwm+0x40>
 8000fde:	687b      	ldr	r3, [r7, #4]
 8000fe0:	681a      	ldr	r2, [r3, #0]
 8000fe2:	2364      	movs	r3, #100	@ 0x64
 8000fe4:	63d3      	str	r3, [r2, #60]	@ 0x3c
 8000fe6:	e003      	b.n	8000ff0 <blink_sos_pwm+0x48>
 8000fe8:	687b      	ldr	r3, [r7, #4]
 8000fea:	681a      	ldr	r2, [r3, #0]
 8000fec:	2364      	movs	r3, #100	@ 0x64
 8000fee:	6413      	str	r3, [r2, #64]	@ 0x40
    HAL_Delay(150);
 8000ff0:	2096      	movs	r0, #150	@ 0x96
 8000ff2:	f000 fd3f 	bl	8001a74 <HAL_Delay>
    __HAL_TIM_SET_COMPARE(htim, channel, 0);   // "aus"
 8000ff6:	683b      	ldr	r3, [r7, #0]
 8000ff8:	2b00      	cmp	r3, #0
 8000ffa:	d104      	bne.n	8001006 <blink_sos_pwm+0x5e>
 8000ffc:	687b      	ldr	r3, [r7, #4]
 8000ffe:	681b      	ldr	r3, [r3, #0]
 8001000:	2200      	movs	r2, #0
 8001002:	635a      	str	r2, [r3, #52]	@ 0x34
 8001004:	e013      	b.n	800102e <blink_sos_pwm+0x86>
 8001006:	683b      	ldr	r3, [r7, #0]
 8001008:	2b04      	cmp	r3, #4
 800100a:	d104      	bne.n	8001016 <blink_sos_pwm+0x6e>
 800100c:	687b      	ldr	r3, [r7, #4]
 800100e:	681a      	ldr	r2, [r3, #0]
 8001010:	2300      	movs	r3, #0
 8001012:	6393      	str	r3, [r2, #56]	@ 0x38
 8001014:	e00b      	b.n	800102e <blink_sos_pwm+0x86>
 8001016:	683b      	ldr	r3, [r7, #0]
 8001018:	2b08      	cmp	r3, #8
 800101a:	d104      	bne.n	8001026 <blink_sos_pwm+0x7e>
 800101c:	687b      	ldr	r3, [r7, #4]
 800101e:	681a      	ldr	r2, [r3, #0]
 8001020:	2300      	movs	r3, #0
 8001022:	63d3      	str	r3, [r2, #60]	@ 0x3c
 8001024:	e003      	b.n	800102e <blink_sos_pwm+0x86>
 8001026:	687b      	ldr	r3, [r7, #4]
 8001028:	681a      	ldr	r2, [r3, #0]
 800102a:	2300      	movs	r3, #0
 800102c:	6413      	str	r3, [r2, #64]	@ 0x40
    HAL_Delay(150);
 800102e:	2096      	movs	r0, #150	@ 0x96
 8001030:	f000 fd20 	bl	8001a74 <HAL_Delay>
  for (int i = 0; i < 3; i++) {  // S = ...
 8001034:	697b      	ldr	r3, [r7, #20]
 8001036:	3301      	adds	r3, #1
 8001038:	617b      	str	r3, [r7, #20]
 800103a:	697b      	ldr	r3, [r7, #20]
 800103c:	2b02      	cmp	r3, #2
 800103e:	ddbb      	ble.n	8000fb8 <blink_sos_pwm+0x10>
  }

  HAL_Delay(300);
 8001040:	2396      	movs	r3, #150	@ 0x96
 8001042:	005b      	lsls	r3, r3, #1
 8001044:	0018      	movs	r0, r3
 8001046:	f000 fd15 	bl	8001a74 <HAL_Delay>

  for (int i = 0; i < 3; i++) {  // O = ---
 800104a:	2300      	movs	r3, #0
 800104c:	613b      	str	r3, [r7, #16]
 800104e:	e042      	b.n	80010d6 <blink_sos_pwm+0x12e>
    __HAL_TIM_SET_COMPARE(htim, channel, 100);
 8001050:	683b      	ldr	r3, [r7, #0]
 8001052:	2b00      	cmp	r3, #0
 8001054:	d104      	bne.n	8001060 <blink_sos_pwm+0xb8>
 8001056:	687b      	ldr	r3, [r7, #4]
 8001058:	681b      	ldr	r3, [r3, #0]
 800105a:	2264      	movs	r2, #100	@ 0x64
 800105c:	635a      	str	r2, [r3, #52]	@ 0x34
 800105e:	e013      	b.n	8001088 <blink_sos_pwm+0xe0>
 8001060:	683b      	ldr	r3, [r7, #0]
 8001062:	2b04      	cmp	r3, #4
 8001064:	d104      	bne.n	8001070 <blink_sos_pwm+0xc8>
 8001066:	687b      	ldr	r3, [r7, #4]
 8001068:	681a      	ldr	r2, [r3, #0]
 800106a:	2364      	movs	r3, #100	@ 0x64
 800106c:	6393      	str	r3, [r2, #56]	@ 0x38
 800106e:	e00b      	b.n	8001088 <blink_sos_pwm+0xe0>
 8001070:	683b      	ldr	r3, [r7, #0]
 8001072:	2b08      	cmp	r3, #8
 8001074:	d104      	bne.n	8001080 <blink_sos_pwm+0xd8>
 8001076:	687b      	ldr	r3, [r7, #4]
 8001078:	681a      	ldr	r2, [r3, #0]
 800107a:	2364      	movs	r3, #100	@ 0x64
 800107c:	63d3      	str	r3, [r2, #60]	@ 0x3c
 800107e:	e003      	b.n	8001088 <blink_sos_pwm+0xe0>
 8001080:	687b      	ldr	r3, [r7, #4]
 8001082:	681a      	ldr	r2, [r3, #0]
 8001084:	2364      	movs	r3, #100	@ 0x64
 8001086:	6413      	str	r3, [r2, #64]	@ 0x40
    HAL_Delay(450);
 8001088:	23e1      	movs	r3, #225	@ 0xe1
 800108a:	005b      	lsls	r3, r3, #1
 800108c:	0018      	movs	r0, r3
 800108e:	f000 fcf1 	bl	8001a74 <HAL_Delay>
    __HAL_TIM_SET_COMPARE(htim, channel, 0);
 8001092:	683b      	ldr	r3, [r7, #0]
 8001094:	2b00      	cmp	r3, #0
 8001096:	d104      	bne.n	80010a2 <blink_sos_pwm+0xfa>
 8001098:	687b      	ldr	r3, [r7, #4]
 800109a:	681b      	ldr	r3, [r3, #0]
 800109c:	2200      	movs	r2, #0
 800109e:	635a      	str	r2, [r3, #52]	@ 0x34
 80010a0:	e013      	b.n	80010ca <blink_sos_pwm+0x122>
 80010a2:	683b      	ldr	r3, [r7, #0]
 80010a4:	2b04      	cmp	r3, #4
 80010a6:	d104      	bne.n	80010b2 <blink_sos_pwm+0x10a>
 80010a8:	687b      	ldr	r3, [r7, #4]
 80010aa:	681a      	ldr	r2, [r3, #0]
 80010ac:	2300      	movs	r3, #0
 80010ae:	6393      	str	r3, [r2, #56]	@ 0x38
 80010b0:	e00b      	b.n	80010ca <blink_sos_pwm+0x122>
 80010b2:	683b      	ldr	r3, [r7, #0]
 80010b4:	2b08      	cmp	r3, #8
 80010b6:	d104      	bne.n	80010c2 <blink_sos_pwm+0x11a>
 80010b8:	687b      	ldr	r3, [r7, #4]
 80010ba:	681a      	ldr	r2, [r3, #0]
 80010bc:	2300      	movs	r3, #0
 80010be:	63d3      	str	r3, [r2, #60]	@ 0x3c
 80010c0:	e003      	b.n	80010ca <blink_sos_pwm+0x122>
 80010c2:	687b      	ldr	r3, [r7, #4]
 80010c4:	681a      	ldr	r2, [r3, #0]
 80010c6:	2300      	movs	r3, #0
 80010c8:	6413      	str	r3, [r2, #64]	@ 0x40
    HAL_Delay(150);
 80010ca:	2096      	movs	r0, #150	@ 0x96
 80010cc:	f000 fcd2 	bl	8001a74 <HAL_Delay>
  for (int i = 0; i < 3; i++) {  // O = ---
 80010d0:	693b      	ldr	r3, [r7, #16]
 80010d2:	3301      	adds	r3, #1
 80010d4:	613b      	str	r3, [r7, #16]
 80010d6:	693b      	ldr	r3, [r7, #16]
 80010d8:	2b02      	cmp	r3, #2
 80010da:	ddb9      	ble.n	8001050 <blink_sos_pwm+0xa8>
  }

  HAL_Delay(300);
 80010dc:	2396      	movs	r3, #150	@ 0x96
 80010de:	005b      	lsls	r3, r3, #1
 80010e0:	0018      	movs	r0, r3
 80010e2:	f000 fcc7 	bl	8001a74 <HAL_Delay>

  for (int i = 0; i < 3; i++) {  // S = ...
 80010e6:	2300      	movs	r3, #0
 80010e8:	60fb      	str	r3, [r7, #12]
 80010ea:	e040      	b.n	800116e <blink_sos_pwm+0x1c6>
    __HAL_TIM_SET_COMPARE(htim, channel, 100);
 80010ec:	683b      	ldr	r3, [r7, #0]
 80010ee:	2b00      	cmp	r3, #0
 80010f0:	d104      	bne.n	80010fc <blink_sos_pwm+0x154>
 80010f2:	687b      	ldr	r3, [r7, #4]
 80010f4:	681b      	ldr	r3, [r3, #0]
 80010f6:	2264      	movs	r2, #100	@ 0x64
 80010f8:	635a      	str	r2, [r3, #52]	@ 0x34
 80010fa:	e013      	b.n	8001124 <blink_sos_pwm+0x17c>
 80010fc:	683b      	ldr	r3, [r7, #0]
 80010fe:	2b04      	cmp	r3, #4
 8001100:	d104      	bne.n	800110c <blink_sos_pwm+0x164>
 8001102:	687b      	ldr	r3, [r7, #4]
 8001104:	681a      	ldr	r2, [r3, #0]
 8001106:	2364      	movs	r3, #100	@ 0x64
 8001108:	6393      	str	r3, [r2, #56]	@ 0x38
 800110a:	e00b      	b.n	8001124 <blink_sos_pwm+0x17c>
 800110c:	683b      	ldr	r3, [r7, #0]
 800110e:	2b08      	cmp	r3, #8
 8001110:	d104      	bne.n	800111c <blink_sos_pwm+0x174>
 8001112:	687b      	ldr	r3, [r7, #4]
 8001114:	681a      	ldr	r2, [r3, #0]
 8001116:	2364      	movs	r3, #100	@ 0x64
 8001118:	63d3      	str	r3, [r2, #60]	@ 0x3c
 800111a:	e003      	b.n	8001124 <blink_sos_pwm+0x17c>
 800111c:	687b      	ldr	r3, [r7, #4]
 800111e:	681a      	ldr	r2, [r3, #0]
 8001120:	2364      	movs	r3, #100	@ 0x64
 8001122:	6413      	str	r3, [r2, #64]	@ 0x40
    HAL_Delay(150);
 8001124:	2096      	movs	r0, #150	@ 0x96
 8001126:	f000 fca5 	bl	8001a74 <HAL_Delay>
    __HAL_TIM_SET_COMPARE(htim, channel, 0);
 800112a:	683b      	ldr	r3, [r7, #0]
 800112c:	2b00      	cmp	r3, #0
 800112e:	d104      	bne.n	800113a <blink_sos_pwm+0x192>
 8001130:	687b      	ldr	r3, [r7, #4]
 8001132:	681b      	ldr	r3, [r3, #0]
 8001134:	2200      	movs	r2, #0
 8001136:	635a      	str	r2, [r3, #52]	@ 0x34
 8001138:	e013      	b.n	8001162 <blink_sos_pwm+0x1ba>
 800113a:	683b      	ldr	r3, [r7, #0]
 800113c:	2b04      	cmp	r3, #4
 800113e:	d104      	bne.n	800114a <blink_sos_pwm+0x1a2>
 8001140:	687b      	ldr	r3, [r7, #4]
 8001142:	681a      	ldr	r2, [r3, #0]
 8001144:	2300      	movs	r3, #0
 8001146:	6393      	str	r3, [r2, #56]	@ 0x38
 8001148:	e00b      	b.n	8001162 <blink_sos_pwm+0x1ba>
 800114a:	683b      	ldr	r3, [r7, #0]
 800114c:	2b08      	cmp	r3, #8
 800114e:	d104      	bne.n	800115a <blink_sos_pwm+0x1b2>
 8001150:	687b      	ldr	r3, [r7, #4]
 8001152:	681a      	ldr	r2, [r3, #0]
 8001154:	2300      	movs	r3, #0
 8001156:	63d3      	str	r3, [r2, #60]	@ 0x3c
 8001158:	e003      	b.n	8001162 <blink_sos_pwm+0x1ba>
 800115a:	687b      	ldr	r3, [r7, #4]
 800115c:	681a      	ldr	r2, [r3, #0]
 800115e:	2300      	movs	r3, #0
 8001160:	6413      	str	r3, [r2, #64]	@ 0x40
    HAL_Delay(150);
 8001162:	2096      	movs	r0, #150	@ 0x96
 8001164:	f000 fc86 	bl	8001a74 <HAL_Delay>
  for (int i = 0; i < 3; i++) {  // S = ...
 8001168:	68fb      	ldr	r3, [r7, #12]
 800116a:	3301      	adds	r3, #1
 800116c:	60fb      	str	r3, [r7, #12]
 800116e:	68fb      	ldr	r3, [r7, #12]
 8001170:	2b02      	cmp	r3, #2
 8001172:	ddbb      	ble.n	80010ec <blink_sos_pwm+0x144>
  }

  // wieder neutral
  __HAL_TIM_SET_COMPARE(htim, channel, 50); // neutral  "aus"
 8001174:	683b      	ldr	r3, [r7, #0]
 8001176:	2b00      	cmp	r3, #0
 8001178:	d104      	bne.n	8001184 <blink_sos_pwm+0x1dc>
 800117a:	687b      	ldr	r3, [r7, #4]
 800117c:	681b      	ldr	r3, [r3, #0]
 800117e:	2232      	movs	r2, #50	@ 0x32
 8001180:	635a      	str	r2, [r3, #52]	@ 0x34
}
 8001182:	e013      	b.n	80011ac <blink_sos_pwm+0x204>
  __HAL_TIM_SET_COMPARE(htim, channel, 50); // neutral  "aus"
 8001184:	683b      	ldr	r3, [r7, #0]
 8001186:	2b04      	cmp	r3, #4
 8001188:	d104      	bne.n	8001194 <blink_sos_pwm+0x1ec>
 800118a:	687b      	ldr	r3, [r7, #4]
 800118c:	681a      	ldr	r2, [r3, #0]
 800118e:	2332      	movs	r3, #50	@ 0x32
 8001190:	6393      	str	r3, [r2, #56]	@ 0x38
}
 8001192:	e00b      	b.n	80011ac <blink_sos_pwm+0x204>
  __HAL_TIM_SET_COMPARE(htim, channel, 50); // neutral  "aus"
 8001194:	683b      	ldr	r3, [r7, #0]
 8001196:	2b08      	cmp	r3, #8
 8001198:	d104      	bne.n	80011a4 <blink_sos_pwm+0x1fc>
 800119a:	687b      	ldr	r3, [r7, #4]
 800119c:	681a      	ldr	r2, [r3, #0]
 800119e:	2332      	movs	r3, #50	@ 0x32
 80011a0:	63d3      	str	r3, [r2, #60]	@ 0x3c
}
 80011a2:	e003      	b.n	80011ac <blink_sos_pwm+0x204>
  __HAL_TIM_SET_COMPARE(htim, channel, 50); // neutral  "aus"
 80011a4:	687b      	ldr	r3, [r7, #4]
 80011a6:	681a      	ldr	r2, [r3, #0]
 80011a8:	2332      	movs	r3, #50	@ 0x32
 80011aa:	6413      	str	r3, [r2, #64]	@ 0x40
}
 80011ac:	46c0      	nop			@ (mov r8, r8)
 80011ae:	46bd      	mov	sp, r7
 80011b0:	b006      	add	sp, #24
 80011b2:	bd80      	pop	{r7, pc}

080011b4 <check_fxos8700>:


uint8_t check_fxos8700(void)
{
 80011b4:	b580      	push	{r7, lr}
 80011b6:	b086      	sub	sp, #24
 80011b8:	af04      	add	r7, sp, #16
  uint8_t fxos_addr = 0x1F << 1;  // Bit shift verstehen (SA0 =1???)
 80011ba:	1dfb      	adds	r3, r7, #7
 80011bc:	223e      	movs	r2, #62	@ 0x3e
 80011be:	701a      	strb	r2, [r3, #0]
  uint8_t reg_addr = 0x0D;       // WHO_AM_I Register
 80011c0:	1dbb      	adds	r3, r7, #6
 80011c2:	220d      	movs	r2, #13
 80011c4:	701a      	strb	r2, [r3, #0]
  uint8_t id = 0;
 80011c6:	1d7b      	adds	r3, r7, #5
 80011c8:	2200      	movs	r2, #0
 80011ca:	701a      	strb	r2, [r3, #0]

  if (HAL_I2C_Mem_Read(&hi2c1, fxos_addr, reg_addr, I2C_MEMADD_SIZE_8BIT, &id, 1, 100) != HAL_OK)
 80011cc:	1dfb      	adds	r3, r7, #7
 80011ce:	781b      	ldrb	r3, [r3, #0]
 80011d0:	b299      	uxth	r1, r3
 80011d2:	1dbb      	adds	r3, r7, #6
 80011d4:	781b      	ldrb	r3, [r3, #0]
 80011d6:	b29a      	uxth	r2, r3
 80011d8:	480c      	ldr	r0, [pc, #48]	@ (800120c <check_fxos8700+0x58>)
 80011da:	2364      	movs	r3, #100	@ 0x64
 80011dc:	9302      	str	r3, [sp, #8]
 80011de:	2301      	movs	r3, #1
 80011e0:	9301      	str	r3, [sp, #4]
 80011e2:	1d7b      	adds	r3, r7, #5
 80011e4:	9300      	str	r3, [sp, #0]
 80011e6:	2301      	movs	r3, #1
 80011e8:	f001 f88a 	bl	8002300 <HAL_I2C_Mem_Read>
 80011ec:	1e03      	subs	r3, r0, #0
 80011ee:	d001      	beq.n	80011f4 <check_fxos8700+0x40>
  {
    return 0;  // Lesevorgang fehlgeschlagen
 80011f0:	2300      	movs	r3, #0
 80011f2:	e006      	b.n	8001202 <check_fxos8700+0x4e>
  }

  if (id == 0xC7)
 80011f4:	1d7b      	adds	r3, r7, #5
 80011f6:	781b      	ldrb	r3, [r3, #0]
 80011f8:	2bc7      	cmp	r3, #199	@ 0xc7
 80011fa:	d101      	bne.n	8001200 <check_fxos8700+0x4c>
  {
    return 1;  // Sensor korrekt erkannt
 80011fc:	2301      	movs	r3, #1
 80011fe:	e000      	b.n	8001202 <check_fxos8700+0x4e>
  }

  return 0;  // Falscher Wert
 8001200:	2300      	movs	r3, #0
}
 8001202:	0018      	movs	r0, r3
 8001204:	46bd      	mov	sp, r7
 8001206:	b002      	add	sp, #8
 8001208:	bd80      	pop	{r7, pc}
 800120a:	46c0      	nop			@ (mov r8, r8)
 800120c:	20000028 	.word	0x20000028

08001210 <check_fxas21002>:

uint8_t check_fxas21002(void)
{
 8001210:	b580      	push	{r7, lr}
 8001212:	b086      	sub	sp, #24
 8001214:	af04      	add	r7, sp, #16
  uint8_t fxas_addr = 0x21 << 1;           // 7-bit Adresse (0x21) << 1 fr HAL
 8001216:	1dfb      	adds	r3, r7, #7
 8001218:	2242      	movs	r2, #66	@ 0x42
 800121a:	701a      	strb	r2, [r3, #0]
  uint8_t reg_addr = 0x0C;                 // WHO_AM_I Register
 800121c:	1dbb      	adds	r3, r7, #6
 800121e:	220c      	movs	r2, #12
 8001220:	701a      	strb	r2, [r3, #0]
  uint8_t id = 0;
 8001222:	1d7b      	adds	r3, r7, #5
 8001224:	2200      	movs	r2, #0
 8001226:	701a      	strb	r2, [r3, #0]

  if (HAL_I2C_Mem_Read(&hi2c1, fxas_addr, reg_addr, I2C_MEMADD_SIZE_8BIT, &id, 1, 100) != HAL_OK)
 8001228:	1dfb      	adds	r3, r7, #7
 800122a:	781b      	ldrb	r3, [r3, #0]
 800122c:	b299      	uxth	r1, r3
 800122e:	1dbb      	adds	r3, r7, #6
 8001230:	781b      	ldrb	r3, [r3, #0]
 8001232:	b29a      	uxth	r2, r3
 8001234:	480c      	ldr	r0, [pc, #48]	@ (8001268 <check_fxas21002+0x58>)
 8001236:	2364      	movs	r3, #100	@ 0x64
 8001238:	9302      	str	r3, [sp, #8]
 800123a:	2301      	movs	r3, #1
 800123c:	9301      	str	r3, [sp, #4]
 800123e:	1d7b      	adds	r3, r7, #5
 8001240:	9300      	str	r3, [sp, #0]
 8001242:	2301      	movs	r3, #1
 8001244:	f001 f85c 	bl	8002300 <HAL_I2C_Mem_Read>
 8001248:	1e03      	subs	r3, r0, #0
 800124a:	d001      	beq.n	8001250 <check_fxas21002+0x40>
  {
    return 0;  // Lesevorgang fehlgeschlagen
 800124c:	2300      	movs	r3, #0
 800124e:	e006      	b.n	800125e <check_fxas21002+0x4e>
  }

  if (id == 0xD7)
 8001250:	1d7b      	adds	r3, r7, #5
 8001252:	781b      	ldrb	r3, [r3, #0]
 8001254:	2bd7      	cmp	r3, #215	@ 0xd7
 8001256:	d101      	bne.n	800125c <check_fxas21002+0x4c>
  {
    return 1;  // ID korrekt
 8001258:	2301      	movs	r3, #1
 800125a:	e000      	b.n	800125e <check_fxas21002+0x4e>
  }

  return 0;  // Falsche ID
 800125c:	2300      	movs	r3, #0
}
 800125e:	0018      	movs	r0, r3
 8001260:	46bd      	mov	sp, r7
 8001262:	b002      	add	sp, #8
 8001264:	bd80      	pop	{r7, pc}
 8001266:	46c0      	nop			@ (mov r8, r8)
 8001268:	20000028 	.word	0x20000028

0800126c <init_fxas21002>:


void init_fxas21002(void)
{
 800126c:	b580      	push	{r7, lr}
 800126e:	b086      	sub	sp, #24
 8001270:	af04      	add	r7, sp, #16
    const uint8_t fxas_addr = 0x21 << 1;  // SA0 = HIGH  I2C-Adresse 0x42
 8001272:	1dfb      	adds	r3, r7, #7
 8001274:	2242      	movs	r2, #66	@ 0x42
 8001276:	701a      	strb	r2, [r3, #0]

    // 1. Standby: DR=011 (100 Hz), ACTIVE=0  0b0001 1000 = 0x18
    uint8_t ctrl_reg1_standby = 0x18;
 8001278:	1dbb      	adds	r3, r7, #6
 800127a:	2218      	movs	r2, #24
 800127c:	701a      	strb	r2, [r3, #0]
    HAL_I2C_Mem_Write(&hi2c1, fxas_addr, 0x13, I2C_MEMADD_SIZE_8BIT, &ctrl_reg1_standby, 1, 100);
 800127e:	1dfb      	adds	r3, r7, #7
 8001280:	781b      	ldrb	r3, [r3, #0]
 8001282:	b299      	uxth	r1, r3
 8001284:	4826      	ldr	r0, [pc, #152]	@ (8001320 <init_fxas21002+0xb4>)
 8001286:	2364      	movs	r3, #100	@ 0x64
 8001288:	9302      	str	r3, [sp, #8]
 800128a:	2301      	movs	r3, #1
 800128c:	9301      	str	r3, [sp, #4]
 800128e:	1dbb      	adds	r3, r7, #6
 8001290:	9300      	str	r3, [sp, #0]
 8001292:	2301      	movs	r3, #1
 8001294:	2213      	movs	r2, #19
 8001296:	f000 ff05 	bl	80020a4 <HAL_I2C_Mem_Write>
    HAL_Delay(100);
 800129a:	2064      	movs	r0, #100	@ 0x64
 800129c:	f000 fbea 	bl	8001a74 <HAL_Delay>

    // 2. CTRL_REG0 = 0x03  250 dps (FS1 = FS0 = 1)
    uint8_t ctrl_reg0 = 0x03;
 80012a0:	1d7b      	adds	r3, r7, #5
 80012a2:	2203      	movs	r2, #3
 80012a4:	701a      	strb	r2, [r3, #0]
    HAL_I2C_Mem_Write(&hi2c1, fxas_addr, 0x0D, I2C_MEMADD_SIZE_8BIT, &ctrl_reg0, 1, 100);
 80012a6:	1dfb      	adds	r3, r7, #7
 80012a8:	781b      	ldrb	r3, [r3, #0]
 80012aa:	b299      	uxth	r1, r3
 80012ac:	481c      	ldr	r0, [pc, #112]	@ (8001320 <init_fxas21002+0xb4>)
 80012ae:	2364      	movs	r3, #100	@ 0x64
 80012b0:	9302      	str	r3, [sp, #8]
 80012b2:	2301      	movs	r3, #1
 80012b4:	9301      	str	r3, [sp, #4]
 80012b6:	1d7b      	adds	r3, r7, #5
 80012b8:	9300      	str	r3, [sp, #0]
 80012ba:	2301      	movs	r3, #1
 80012bc:	220d      	movs	r2, #13
 80012be:	f000 fef1 	bl	80020a4 <HAL_I2C_Mem_Write>
    HAL_Delay(100);
 80012c2:	2064      	movs	r0, #100	@ 0x64
 80012c4:	f000 fbd6 	bl	8001a74 <HAL_Delay>

    // 3. CTRL_REG3 = 0x04  INT_EN_DRDY = 1 (bit 2) aktivieren  ZYXDR wird gesetzt
    uint8_t ctrl_reg3 = 0x04;
 80012c8:	1d3b      	adds	r3, r7, #4
 80012ca:	2204      	movs	r2, #4
 80012cc:	701a      	strb	r2, [r3, #0]
    HAL_I2C_Mem_Write(&hi2c1, fxas_addr, 0x15, I2C_MEMADD_SIZE_8BIT, &ctrl_reg3, 1, 100);
 80012ce:	1dfb      	adds	r3, r7, #7
 80012d0:	781b      	ldrb	r3, [r3, #0]
 80012d2:	b299      	uxth	r1, r3
 80012d4:	4812      	ldr	r0, [pc, #72]	@ (8001320 <init_fxas21002+0xb4>)
 80012d6:	2364      	movs	r3, #100	@ 0x64
 80012d8:	9302      	str	r3, [sp, #8]
 80012da:	2301      	movs	r3, #1
 80012dc:	9301      	str	r3, [sp, #4]
 80012de:	1d3b      	adds	r3, r7, #4
 80012e0:	9300      	str	r3, [sp, #0]
 80012e2:	2301      	movs	r3, #1
 80012e4:	2215      	movs	r2, #21
 80012e6:	f000 fedd 	bl	80020a4 <HAL_I2C_Mem_Write>
    HAL_Delay(100);
 80012ea:	2064      	movs	r0, #100	@ 0x64
 80012ec:	f000 fbc2 	bl	8001a74 <HAL_Delay>

    // 4. Aktivieren: gleiche DR-Bits + ACTIVE=1  0b0001 1100 = 0x1C
    uint8_t ctrl_reg1_active = 0x1C;
 80012f0:	1cfb      	adds	r3, r7, #3
 80012f2:	221c      	movs	r2, #28
 80012f4:	701a      	strb	r2, [r3, #0]
    HAL_I2C_Mem_Write(&hi2c1, fxas_addr, 0x13, I2C_MEMADD_SIZE_8BIT, &ctrl_reg1_active, 1, 100);
 80012f6:	1dfb      	adds	r3, r7, #7
 80012f8:	781b      	ldrb	r3, [r3, #0]
 80012fa:	b299      	uxth	r1, r3
 80012fc:	4808      	ldr	r0, [pc, #32]	@ (8001320 <init_fxas21002+0xb4>)
 80012fe:	2364      	movs	r3, #100	@ 0x64
 8001300:	9302      	str	r3, [sp, #8]
 8001302:	2301      	movs	r3, #1
 8001304:	9301      	str	r3, [sp, #4]
 8001306:	1cfb      	adds	r3, r7, #3
 8001308:	9300      	str	r3, [sp, #0]
 800130a:	2301      	movs	r3, #1
 800130c:	2213      	movs	r2, #19
 800130e:	f000 fec9 	bl	80020a4 <HAL_I2C_Mem_Write>
    HAL_Delay(100);
 8001312:	2064      	movs	r0, #100	@ 0x64
 8001314:	f000 fbae 	bl	8001a74 <HAL_Delay>
}
 8001318:	46c0      	nop			@ (mov r8, r8)
 800131a:	46bd      	mov	sp, r7
 800131c:	b002      	add	sp, #8
 800131e:	bd80      	pop	{r7, pc}
 8001320:	20000028 	.word	0x20000028

08001324 <init_fxos8700>:


void init_fxos8700(void)
{
 8001324:	b580      	push	{r7, lr}
 8001326:	b086      	sub	sp, #24
 8001328:	af04      	add	r7, sp, #16
    uint8_t fxos_addr = 0x1F << 1;
 800132a:	1dfb      	adds	r3, r7, #7
 800132c:	223e      	movs	r2, #62	@ 0x3e
 800132e:	701a      	strb	r2, [r3, #0]

    // 1. Standby setzen (CTRL_REG1 = 0x00)
    uint8_t standby = 0x00;
 8001330:	1dbb      	adds	r3, r7, #6
 8001332:	2200      	movs	r2, #0
 8001334:	701a      	strb	r2, [r3, #0]
    HAL_I2C_Mem_Write(&hi2c1, fxos_addr, 0x2A, I2C_MEMADD_SIZE_8BIT, &standby, 1, 100);
 8001336:	1dfb      	adds	r3, r7, #7
 8001338:	781b      	ldrb	r3, [r3, #0]
 800133a:	b299      	uxth	r1, r3
 800133c:	4830      	ldr	r0, [pc, #192]	@ (8001400 <init_fxos8700+0xdc>)
 800133e:	2364      	movs	r3, #100	@ 0x64
 8001340:	9302      	str	r3, [sp, #8]
 8001342:	2301      	movs	r3, #1
 8001344:	9301      	str	r3, [sp, #4]
 8001346:	1dbb      	adds	r3, r7, #6
 8001348:	9300      	str	r3, [sp, #0]
 800134a:	2301      	movs	r3, #1
 800134c:	222a      	movs	r2, #42	@ 0x2a
 800134e:	f000 fea9 	bl	80020a4 <HAL_I2C_Mem_Write>
    HAL_Delay(100);
 8001352:	2064      	movs	r0, #100	@ 0x64
 8001354:	f000 fb8e 	bl	8001a74 <HAL_Delay>

    // 2. Magnetometer-Konfiguration: M_CTRL_REG1 = 0x1F
    // HMS = 11  Hybrid Mode
    // OSR = 111  Oversampling 8x -> reduce noise
    uint8_t mctrl1 = 0x1F;
 8001358:	1d7b      	adds	r3, r7, #5
 800135a:	221f      	movs	r2, #31
 800135c:	701a      	strb	r2, [r3, #0]
    HAL_I2C_Mem_Write(&hi2c1, fxos_addr, 0x5B, I2C_MEMADD_SIZE_8BIT, &mctrl1, 1, 100);
 800135e:	1dfb      	adds	r3, r7, #7
 8001360:	781b      	ldrb	r3, [r3, #0]
 8001362:	b299      	uxth	r1, r3
 8001364:	4826      	ldr	r0, [pc, #152]	@ (8001400 <init_fxos8700+0xdc>)
 8001366:	2364      	movs	r3, #100	@ 0x64
 8001368:	9302      	str	r3, [sp, #8]
 800136a:	2301      	movs	r3, #1
 800136c:	9301      	str	r3, [sp, #4]
 800136e:	1d7b      	adds	r3, r7, #5
 8001370:	9300      	str	r3, [sp, #0]
 8001372:	2301      	movs	r3, #1
 8001374:	225b      	movs	r2, #91	@ 0x5b
 8001376:	f000 fe95 	bl	80020a4 <HAL_I2C_Mem_Write>
    HAL_Delay(100);
 800137a:	2064      	movs	r0, #100	@ 0x64
 800137c:	f000 fb7a 	bl	8001a74 <HAL_Delay>

    // 3. M_CTRL_REG2 = 0x20  hyb_autoinc_mode aktivieren
    uint8_t mctrl2 = 0x20;
 8001380:	1d3b      	adds	r3, r7, #4
 8001382:	2220      	movs	r2, #32
 8001384:	701a      	strb	r2, [r3, #0]
    HAL_I2C_Mem_Write(&hi2c1, fxos_addr, 0x5C, I2C_MEMADD_SIZE_8BIT, &mctrl2, 1, 100);
 8001386:	1dfb      	adds	r3, r7, #7
 8001388:	781b      	ldrb	r3, [r3, #0]
 800138a:	b299      	uxth	r1, r3
 800138c:	481c      	ldr	r0, [pc, #112]	@ (8001400 <init_fxos8700+0xdc>)
 800138e:	2364      	movs	r3, #100	@ 0x64
 8001390:	9302      	str	r3, [sp, #8]
 8001392:	2301      	movs	r3, #1
 8001394:	9301      	str	r3, [sp, #4]
 8001396:	1d3b      	adds	r3, r7, #4
 8001398:	9300      	str	r3, [sp, #0]
 800139a:	2301      	movs	r3, #1
 800139c:	225c      	movs	r2, #92	@ 0x5c
 800139e:	f000 fe81 	bl	80020a4 <HAL_I2C_Mem_Write>
    HAL_Delay(100);
 80013a2:	2064      	movs	r0, #100	@ 0x64
 80013a4:	f000 fb66 	bl	8001a74 <HAL_Delay>

    // 4. XYZ_DATA_CFG = 0x01  4g Range
    uint8_t data_cfg = 0x01;
 80013a8:	1cfb      	adds	r3, r7, #3
 80013aa:	2201      	movs	r2, #1
 80013ac:	701a      	strb	r2, [r3, #0]
    HAL_I2C_Mem_Write(&hi2c1, fxos_addr, 0x0E, I2C_MEMADD_SIZE_8BIT, &data_cfg, 1, 100);
 80013ae:	1dfb      	adds	r3, r7, #7
 80013b0:	781b      	ldrb	r3, [r3, #0]
 80013b2:	b299      	uxth	r1, r3
 80013b4:	4812      	ldr	r0, [pc, #72]	@ (8001400 <init_fxos8700+0xdc>)
 80013b6:	2364      	movs	r3, #100	@ 0x64
 80013b8:	9302      	str	r3, [sp, #8]
 80013ba:	2301      	movs	r3, #1
 80013bc:	9301      	str	r3, [sp, #4]
 80013be:	1cfb      	adds	r3, r7, #3
 80013c0:	9300      	str	r3, [sp, #0]
 80013c2:	2301      	movs	r3, #1
 80013c4:	220e      	movs	r2, #14
 80013c6:	f000 fe6d 	bl	80020a4 <HAL_I2C_Mem_Write>
    HAL_Delay(100);
 80013ca:	2064      	movs	r0, #100	@ 0x64
 80013cc:	f000 fb52 	bl	8001a74 <HAL_Delay>

    // 5. CTRL_REG1 = 0x0D  DR=001 (200 Hz), LNOISE=1, ACTIVE=1
    uint8_t active = 0x0D;
 80013d0:	1cbb      	adds	r3, r7, #2
 80013d2:	220d      	movs	r2, #13
 80013d4:	701a      	strb	r2, [r3, #0]
    HAL_I2C_Mem_Write(&hi2c1, fxos_addr, 0x2A, I2C_MEMADD_SIZE_8BIT, &active, 1, 100);
 80013d6:	1dfb      	adds	r3, r7, #7
 80013d8:	781b      	ldrb	r3, [r3, #0]
 80013da:	b299      	uxth	r1, r3
 80013dc:	4808      	ldr	r0, [pc, #32]	@ (8001400 <init_fxos8700+0xdc>)
 80013de:	2364      	movs	r3, #100	@ 0x64
 80013e0:	9302      	str	r3, [sp, #8]
 80013e2:	2301      	movs	r3, #1
 80013e4:	9301      	str	r3, [sp, #4]
 80013e6:	1cbb      	adds	r3, r7, #2
 80013e8:	9300      	str	r3, [sp, #0]
 80013ea:	2301      	movs	r3, #1
 80013ec:	222a      	movs	r2, #42	@ 0x2a
 80013ee:	f000 fe59 	bl	80020a4 <HAL_I2C_Mem_Write>
    HAL_Delay(100);
 80013f2:	2064      	movs	r0, #100	@ 0x64
 80013f4:	f000 fb3e 	bl	8001a74 <HAL_Delay>
}
 80013f8:	46c0      	nop			@ (mov r8, r8)
 80013fa:	46bd      	mov	sp, r7
 80013fc:	b002      	add	sp, #8
 80013fe:	bd80      	pop	{r7, pc}
 8001400:	20000028 	.word	0x20000028

08001404 <read_gyro>:


void read_gyro(float* gyro_z) // fxas21002
{
 8001404:	b5f0      	push	{r4, r5, r6, r7, lr}
 8001406:	b08b      	sub	sp, #44	@ 0x2c
 8001408:	af04      	add	r7, sp, #16
 800140a:	6078      	str	r0, [r7, #4]
    const uint8_t fxas_addr = 0x21 << 1;
 800140c:	2417      	movs	r4, #23
 800140e:	193b      	adds	r3, r7, r4
 8001410:	2242      	movs	r2, #66	@ 0x42
 8001412:	701a      	strb	r2, [r3, #0]
    const uint8_t reg_status = 0x00;
 8001414:	2516      	movs	r5, #22
 8001416:	197b      	adds	r3, r7, r5
 8001418:	2200      	movs	r2, #0
 800141a:	701a      	strb	r2, [r3, #0]
    const uint8_t reg_gyro_x_msb = 0x01;
 800141c:	2315      	movs	r3, #21
 800141e:	18fb      	adds	r3, r7, r3
 8001420:	2201      	movs	r2, #1
 8001422:	701a      	strb	r2, [r3, #0]

    uint8_t status = 0;
 8001424:	2611      	movs	r6, #17
 8001426:	19bb      	adds	r3, r7, r6
 8001428:	2200      	movs	r2, #0
 800142a:	701a      	strb	r2, [r3, #0]
    uint8_t data[6] = {0};  // X_MSB, X_LSB, Y_MSB, Y_LSB, Z_MSB, Z_LSB
 800142c:	2308      	movs	r3, #8
 800142e:	18fb      	adds	r3, r7, r3
 8001430:	0018      	movs	r0, r3
 8001432:	2306      	movs	r3, #6
 8001434:	001a      	movs	r2, r3
 8001436:	2100      	movs	r1, #0
 8001438:	f002 ffe0 	bl	80043fc <memset>

    // Statusregister prfen
    if (HAL_I2C_Mem_Read(&hi2c1, fxas_addr, reg_status, I2C_MEMADD_SIZE_8BIT, &status, 1, 100) != HAL_OK)
 800143c:	193b      	adds	r3, r7, r4
 800143e:	781b      	ldrb	r3, [r3, #0]
 8001440:	b299      	uxth	r1, r3
 8001442:	197b      	adds	r3, r7, r5
 8001444:	781b      	ldrb	r3, [r3, #0]
 8001446:	b29a      	uxth	r2, r3
 8001448:	4829      	ldr	r0, [pc, #164]	@ (80014f0 <read_gyro+0xec>)
 800144a:	2364      	movs	r3, #100	@ 0x64
 800144c:	9302      	str	r3, [sp, #8]
 800144e:	2301      	movs	r3, #1
 8001450:	9301      	str	r3, [sp, #4]
 8001452:	19bb      	adds	r3, r7, r6
 8001454:	9300      	str	r3, [sp, #0]
 8001456:	2301      	movs	r3, #1
 8001458:	f000 ff52 	bl	8002300 <HAL_I2C_Mem_Read>
 800145c:	1e03      	subs	r3, r0, #0
 800145e:	d003      	beq.n	8001468 <read_gyro+0x64>
    {
        *gyro_z = 10.0f;
 8001460:	687b      	ldr	r3, [r7, #4]
 8001462:	4a24      	ldr	r2, [pc, #144]	@ (80014f4 <read_gyro+0xf0>)
 8001464:	601a      	str	r2, [r3, #0]
        return;
 8001466:	e040      	b.n	80014ea <read_gyro+0xe6>
    }

    // Nur wenn neue Daten vorhanden
    if ((status & 0x08) == 0)  // prft ZYXDR // vorher: if ((status & 0x01) == 0) if ((status & 0x01) == 0) // prft XDR
 8001468:	2311      	movs	r3, #17
 800146a:	18fb      	adds	r3, r7, r3
 800146c:	781b      	ldrb	r3, [r3, #0]
 800146e:	001a      	movs	r2, r3
 8001470:	2308      	movs	r3, #8
 8001472:	4013      	ands	r3, r2
 8001474:	d103      	bne.n	800147e <read_gyro+0x7a>
    {
        *gyro_z = 10.0f;
 8001476:	687b      	ldr	r3, [r7, #4]
 8001478:	4a1e      	ldr	r2, [pc, #120]	@ (80014f4 <read_gyro+0xf0>)
 800147a:	601a      	str	r2, [r3, #0]
        return;
 800147c:	e035      	b.n	80014ea <read_gyro+0xe6>
    }

    // Alle 6 Bytes lesen (X, Y, Z)
    if (HAL_I2C_Mem_Read(&hi2c1, fxas_addr, reg_gyro_x_msb, I2C_MEMADD_SIZE_8BIT, data, 6, 100) != HAL_OK)
 800147e:	2317      	movs	r3, #23
 8001480:	18fb      	adds	r3, r7, r3
 8001482:	781b      	ldrb	r3, [r3, #0]
 8001484:	b299      	uxth	r1, r3
 8001486:	2315      	movs	r3, #21
 8001488:	18fb      	adds	r3, r7, r3
 800148a:	781b      	ldrb	r3, [r3, #0]
 800148c:	b29a      	uxth	r2, r3
 800148e:	4818      	ldr	r0, [pc, #96]	@ (80014f0 <read_gyro+0xec>)
 8001490:	2364      	movs	r3, #100	@ 0x64
 8001492:	9302      	str	r3, [sp, #8]
 8001494:	2306      	movs	r3, #6
 8001496:	9301      	str	r3, [sp, #4]
 8001498:	2308      	movs	r3, #8
 800149a:	18fb      	adds	r3, r7, r3
 800149c:	9300      	str	r3, [sp, #0]
 800149e:	2301      	movs	r3, #1
 80014a0:	f000 ff2e 	bl	8002300 <HAL_I2C_Mem_Read>
 80014a4:	1e03      	subs	r3, r0, #0
 80014a6:	d003      	beq.n	80014b0 <read_gyro+0xac>
    {
        *gyro_z = 10.0f;
 80014a8:	687b      	ldr	r3, [r7, #4]
 80014aa:	4a12      	ldr	r2, [pc, #72]	@ (80014f4 <read_gyro+0xf0>)
 80014ac:	601a      	str	r2, [r3, #0]
        return;
 80014ae:	e01c      	b.n	80014ea <read_gyro+0xe6>
    }

    // Z-Daten extrahieren (Byte 4 und 5)
    int16_t raw_z = (int16_t)((data[4] << 8) | data[5]);
 80014b0:	2208      	movs	r2, #8
 80014b2:	18bb      	adds	r3, r7, r2
 80014b4:	791b      	ldrb	r3, [r3, #4]
 80014b6:	b21b      	sxth	r3, r3
 80014b8:	021b      	lsls	r3, r3, #8
 80014ba:	b219      	sxth	r1, r3
 80014bc:	18bb      	adds	r3, r7, r2
 80014be:	795b      	ldrb	r3, [r3, #5]
 80014c0:	b21a      	sxth	r2, r3
 80014c2:	2012      	movs	r0, #18
 80014c4:	183b      	adds	r3, r7, r0
 80014c6:	430a      	orrs	r2, r1
 80014c8:	801a      	strh	r2, [r3, #0]
    *gyro_z = raw_z * 0.0078125f;  // 7.8125 mdps/LSB = 0.0078125 dps/LSB
 80014ca:	183b      	adds	r3, r7, r0
 80014cc:	2200      	movs	r2, #0
 80014ce:	5e9b      	ldrsh	r3, [r3, r2]
 80014d0:	0018      	movs	r0, r3
 80014d2:	f7ff fb27 	bl	8000b24 <__aeabi_i2f>
 80014d6:	1c03      	adds	r3, r0, #0
 80014d8:	21f0      	movs	r1, #240	@ 0xf0
 80014da:	0589      	lsls	r1, r1, #22
 80014dc:	1c18      	adds	r0, r3, #0
 80014de:	f7ff f9a7 	bl	8000830 <__aeabi_fmul>
 80014e2:	1c03      	adds	r3, r0, #0
 80014e4:	1c1a      	adds	r2, r3, #0
 80014e6:	687b      	ldr	r3, [r7, #4]
 80014e8:	601a      	str	r2, [r3, #0]
}
 80014ea:	46bd      	mov	sp, r7
 80014ec:	b007      	add	sp, #28
 80014ee:	bdf0      	pop	{r4, r5, r6, r7, pc}
 80014f0:	20000028 	.word	0x20000028
 80014f4:	41200000 	.word	0x41200000

080014f8 <read_magnetometer>:


void read_magnetometer(int16_t* mag_x, int16_t* mag_z) // fxos8700
{
 80014f8:	b5f0      	push	{r4, r5, r6, r7, lr}
 80014fa:	b08b      	sub	sp, #44	@ 0x2c
 80014fc:	af04      	add	r7, sp, #16
 80014fe:	6078      	str	r0, [r7, #4]
 8001500:	6039      	str	r1, [r7, #0]
    const uint8_t fxos_addr = 0x1F << 1;
 8001502:	2417      	movs	r4, #23
 8001504:	193b      	adds	r3, r7, r4
 8001506:	223e      	movs	r2, #62	@ 0x3e
 8001508:	701a      	strb	r2, [r3, #0]
    const uint8_t reg_status = 0x00;
 800150a:	2516      	movs	r5, #22
 800150c:	197b      	adds	r3, r7, r5
 800150e:	2200      	movs	r2, #0
 8001510:	701a      	strb	r2, [r3, #0]
    const uint8_t reg_mag_x_msb = 0x33;
 8001512:	2315      	movs	r3, #21
 8001514:	18fb      	adds	r3, r7, r3
 8001516:	2233      	movs	r2, #51	@ 0x33
 8001518:	701a      	strb	r2, [r3, #0]

    uint8_t status = 0;
 800151a:	2614      	movs	r6, #20
 800151c:	19bb      	adds	r3, r7, r6
 800151e:	2200      	movs	r2, #0
 8001520:	701a      	strb	r2, [r3, #0]
    uint8_t data[6] = {0};  // X_MSB, X_LSB, Y_MSB, Y_LSB, Z_MSB, Z_LSB
 8001522:	230c      	movs	r3, #12
 8001524:	18fb      	adds	r3, r7, r3
 8001526:	0018      	movs	r0, r3
 8001528:	2306      	movs	r3, #6
 800152a:	001a      	movs	r2, r3
 800152c:	2100      	movs	r1, #0
 800152e:	f002 ff65 	bl	80043fc <memset>

    // Optional: STATUS-Register abfragen (nicht zwingend ntig bei kontinuierlichem Lesen)
    if (HAL_I2C_Mem_Read(&hi2c1, fxos_addr, reg_status, I2C_MEMADD_SIZE_8BIT, &status, 1, 100) != HAL_OK)
 8001532:	193b      	adds	r3, r7, r4
 8001534:	781b      	ldrb	r3, [r3, #0]
 8001536:	b299      	uxth	r1, r3
 8001538:	197b      	adds	r3, r7, r5
 800153a:	781b      	ldrb	r3, [r3, #0]
 800153c:	b29a      	uxth	r2, r3
 800153e:	482e      	ldr	r0, [pc, #184]	@ (80015f8 <read_magnetometer+0x100>)
 8001540:	2364      	movs	r3, #100	@ 0x64
 8001542:	9302      	str	r3, [sp, #8]
 8001544:	2301      	movs	r3, #1
 8001546:	9301      	str	r3, [sp, #4]
 8001548:	19bb      	adds	r3, r7, r6
 800154a:	9300      	str	r3, [sp, #0]
 800154c:	2301      	movs	r3, #1
 800154e:	f000 fed7 	bl	8002300 <HAL_I2C_Mem_Read>
 8001552:	1e03      	subs	r3, r0, #0
 8001554:	d006      	beq.n	8001564 <read_magnetometer+0x6c>
    {
        *mag_x = 0;
 8001556:	687b      	ldr	r3, [r7, #4]
 8001558:	2200      	movs	r2, #0
 800155a:	801a      	strh	r2, [r3, #0]
        *mag_z = 0;
 800155c:	683b      	ldr	r3, [r7, #0]
 800155e:	2200      	movs	r2, #0
 8001560:	801a      	strh	r2, [r3, #0]
        return;
 8001562:	e046      	b.n	80015f2 <read_magnetometer+0xfa>
    }

    // Bit 3: ZYXDR = 1  neue XYZ-Daten verfgbar
    if ((status & 0x08) == 0)
 8001564:	2314      	movs	r3, #20
 8001566:	18fb      	adds	r3, r7, r3
 8001568:	781b      	ldrb	r3, [r3, #0]
 800156a:	001a      	movs	r2, r3
 800156c:	2308      	movs	r3, #8
 800156e:	4013      	ands	r3, r2
 8001570:	d106      	bne.n	8001580 <read_magnetometer+0x88>
    {
        *mag_x = 0;
 8001572:	687b      	ldr	r3, [r7, #4]
 8001574:	2200      	movs	r2, #0
 8001576:	801a      	strh	r2, [r3, #0]
        *mag_z = 0;
 8001578:	683b      	ldr	r3, [r7, #0]
 800157a:	2200      	movs	r2, #0
 800157c:	801a      	strh	r2, [r3, #0]
        return;
 800157e:	e038      	b.n	80015f2 <read_magnetometer+0xfa>
    }

    // 6 Bytes ab 0x33 (X, Y, Z) lesen
    if (HAL_I2C_Mem_Read(&hi2c1, fxos_addr, reg_mag_x_msb, I2C_MEMADD_SIZE_8BIT, data, 6, 100) != HAL_OK)
 8001580:	2317      	movs	r3, #23
 8001582:	18fb      	adds	r3, r7, r3
 8001584:	781b      	ldrb	r3, [r3, #0]
 8001586:	b299      	uxth	r1, r3
 8001588:	2315      	movs	r3, #21
 800158a:	18fb      	adds	r3, r7, r3
 800158c:	781b      	ldrb	r3, [r3, #0]
 800158e:	b29a      	uxth	r2, r3
 8001590:	4819      	ldr	r0, [pc, #100]	@ (80015f8 <read_magnetometer+0x100>)
 8001592:	2364      	movs	r3, #100	@ 0x64
 8001594:	9302      	str	r3, [sp, #8]
 8001596:	2306      	movs	r3, #6
 8001598:	9301      	str	r3, [sp, #4]
 800159a:	230c      	movs	r3, #12
 800159c:	18fb      	adds	r3, r7, r3
 800159e:	9300      	str	r3, [sp, #0]
 80015a0:	2301      	movs	r3, #1
 80015a2:	f000 fead 	bl	8002300 <HAL_I2C_Mem_Read>
 80015a6:	1e03      	subs	r3, r0, #0
 80015a8:	d006      	beq.n	80015b8 <read_magnetometer+0xc0>
    {
        *mag_x = 0;
 80015aa:	687b      	ldr	r3, [r7, #4]
 80015ac:	2200      	movs	r2, #0
 80015ae:	801a      	strh	r2, [r3, #0]
        *mag_z = 0;
 80015b0:	683b      	ldr	r3, [r7, #0]
 80015b2:	2200      	movs	r2, #0
 80015b4:	801a      	strh	r2, [r3, #0]
        return;
 80015b6:	e01c      	b.n	80015f2 <read_magnetometer+0xfa>
    }

    // 14-bit linksbndig  rechts shiften um 2 Bits
    *mag_x = (int16_t)((data[0] << 8) | data[1]) >> 2;
 80015b8:	210c      	movs	r1, #12
 80015ba:	187b      	adds	r3, r7, r1
 80015bc:	781b      	ldrb	r3, [r3, #0]
 80015be:	b21b      	sxth	r3, r3
 80015c0:	021b      	lsls	r3, r3, #8
 80015c2:	b21a      	sxth	r2, r3
 80015c4:	187b      	adds	r3, r7, r1
 80015c6:	785b      	ldrb	r3, [r3, #1]
 80015c8:	b21b      	sxth	r3, r3
 80015ca:	4313      	orrs	r3, r2
 80015cc:	b21b      	sxth	r3, r3
 80015ce:	109b      	asrs	r3, r3, #2
 80015d0:	b21a      	sxth	r2, r3
 80015d2:	687b      	ldr	r3, [r7, #4]
 80015d4:	801a      	strh	r2, [r3, #0]
    *mag_z = (int16_t)((data[4] << 8) | data[5]) >> 2;
 80015d6:	187b      	adds	r3, r7, r1
 80015d8:	791b      	ldrb	r3, [r3, #4]
 80015da:	b21b      	sxth	r3, r3
 80015dc:	021b      	lsls	r3, r3, #8
 80015de:	b21a      	sxth	r2, r3
 80015e0:	187b      	adds	r3, r7, r1
 80015e2:	795b      	ldrb	r3, [r3, #5]
 80015e4:	b21b      	sxth	r3, r3
 80015e6:	4313      	orrs	r3, r2
 80015e8:	b21b      	sxth	r3, r3
 80015ea:	109b      	asrs	r3, r3, #2
 80015ec:	b21a      	sxth	r2, r3
 80015ee:	683b      	ldr	r3, [r7, #0]
 80015f0:	801a      	strh	r2, [r3, #0]
}
 80015f2:	46bd      	mov	sp, r7
 80015f4:	b007      	add	sp, #28
 80015f6:	bdf0      	pop	{r4, r5, r6, r7, pc}
 80015f8:	20000028 	.word	0x20000028

080015fc <HAL_TIM_PeriodElapsedCallback>:
}



void HAL_TIM_PeriodElapsedCallback(TIM_HandleTypeDef *htim)
{
 80015fc:	b5b0      	push	{r4, r5, r7, lr}
 80015fe:	b086      	sub	sp, #24
 8001600:	af00      	add	r7, sp, #0
 8001602:	6078      	str	r0, [r7, #4]
    if (htim->Instance == TIM14)
 8001604:	687b      	ldr	r3, [r7, #4]
 8001606:	681b      	ldr	r3, [r3, #0]
 8001608:	4a2f      	ldr	r2, [pc, #188]	@ (80016c8 <HAL_TIM_PeriodElapsedCallback+0xcc>)
 800160a:	4293      	cmp	r3, r2
 800160c:	d157      	bne.n	80016be <HAL_TIM_PeriodElapsedCallback+0xc2>
    {
        float gyro_z = 0;
 800160e:	2300      	movs	r3, #0
 8001610:	60fb      	str	r3, [r7, #12]
        int16_t mag_x = 0, mag_z = 0;
 8001612:	240a      	movs	r4, #10
 8001614:	193b      	adds	r3, r7, r4
 8001616:	2200      	movs	r2, #0
 8001618:	801a      	strh	r2, [r3, #0]
 800161a:	2508      	movs	r5, #8
 800161c:	197b      	adds	r3, r7, r5
 800161e:	2200      	movs	r2, #0
 8001620:	801a      	strh	r2, [r3, #0]

        read_gyro(&gyro_z);
 8001622:	230c      	movs	r3, #12
 8001624:	18fb      	adds	r3, r7, r3
 8001626:	0018      	movs	r0, r3
 8001628:	f7ff feec 	bl	8001404 <read_gyro>
        read_magnetometer(&mag_x, &mag_z);
 800162c:	197a      	adds	r2, r7, r5
 800162e:	193b      	adds	r3, r7, r4
 8001630:	0011      	movs	r1, r2
 8001632:	0018      	movs	r0, r3
 8001634:	f7ff ff60 	bl	80014f8 <read_magnetometer>

        // Mapping-Skalierung anpassen, falls LEDs dauerhaft bei 0% oder 100% sind
        int pwm_gyro = (int)(gyro_z * 0.5f + 50.0f);   // z.B. 33.3deg/s  0100
 8001638:	68fb      	ldr	r3, [r7, #12]
 800163a:	21fc      	movs	r1, #252	@ 0xfc
 800163c:	0589      	lsls	r1, r1, #22
 800163e:	1c18      	adds	r0, r3, #0
 8001640:	f7ff f8f6 	bl	8000830 <__aeabi_fmul>
 8001644:	1c03      	adds	r3, r0, #0
 8001646:	4921      	ldr	r1, [pc, #132]	@ (80016cc <HAL_TIM_PeriodElapsedCallback+0xd0>)
 8001648:	1c18      	adds	r0, r3, #0
 800164a:	f7fe fde9 	bl	8000220 <__aeabi_fadd>
 800164e:	1c03      	adds	r3, r0, #0
 8001650:	1c18      	adds	r0, r3, #0
 8001652:	f7ff fa47 	bl	8000ae4 <__aeabi_f2iz>
 8001656:	0003      	movs	r3, r0
 8001658:	617b      	str	r3, [r7, #20]
        int pwm_magx = (int)(mag_x / 100.0f + 50.0f);  // z.B. 5000 LSB  0100
 800165a:	193b      	adds	r3, r7, r4
 800165c:	2200      	movs	r2, #0
 800165e:	5e9b      	ldrsh	r3, [r3, r2]
 8001660:	0018      	movs	r0, r3
 8001662:	f7ff fa5f 	bl	8000b24 <__aeabi_i2f>
 8001666:	1c03      	adds	r3, r0, #0
 8001668:	4919      	ldr	r1, [pc, #100]	@ (80016d0 <HAL_TIM_PeriodElapsedCallback+0xd4>)
 800166a:	1c18      	adds	r0, r3, #0
 800166c:	f7fe ffca 	bl	8000604 <__aeabi_fdiv>
 8001670:	1c03      	adds	r3, r0, #0
 8001672:	4916      	ldr	r1, [pc, #88]	@ (80016cc <HAL_TIM_PeriodElapsedCallback+0xd0>)
 8001674:	1c18      	adds	r0, r3, #0
 8001676:	f7fe fdd3 	bl	8000220 <__aeabi_fadd>
 800167a:	1c03      	adds	r3, r0, #0
 800167c:	1c18      	adds	r0, r3, #0
 800167e:	f7ff fa31 	bl	8000ae4 <__aeabi_f2iz>
 8001682:	0003      	movs	r3, r0
 8001684:	613b      	str	r3, [r7, #16]

        // Begrenzung auf gltigen Bereich
        if (pwm_gyro < 0) pwm_gyro = 0;
 8001686:	697b      	ldr	r3, [r7, #20]
 8001688:	2b00      	cmp	r3, #0
 800168a:	da01      	bge.n	8001690 <HAL_TIM_PeriodElapsedCallback+0x94>
 800168c:	2300      	movs	r3, #0
 800168e:	617b      	str	r3, [r7, #20]
        if (pwm_gyro > 100) pwm_gyro = 100;
 8001690:	697b      	ldr	r3, [r7, #20]
 8001692:	2b64      	cmp	r3, #100	@ 0x64
 8001694:	dd01      	ble.n	800169a <HAL_TIM_PeriodElapsedCallback+0x9e>
 8001696:	2364      	movs	r3, #100	@ 0x64
 8001698:	617b      	str	r3, [r7, #20]
        if (pwm_magx < 0) pwm_magx = 0;
 800169a:	693b      	ldr	r3, [r7, #16]
 800169c:	2b00      	cmp	r3, #0
 800169e:	da01      	bge.n	80016a4 <HAL_TIM_PeriodElapsedCallback+0xa8>
 80016a0:	2300      	movs	r3, #0
 80016a2:	613b      	str	r3, [r7, #16]
        if (pwm_magx > 100) pwm_magx = 100;
 80016a4:	693b      	ldr	r3, [r7, #16]
 80016a6:	2b64      	cmp	r3, #100	@ 0x64
 80016a8:	dd01      	ble.n	80016ae <HAL_TIM_PeriodElapsedCallback+0xb2>
 80016aa:	2364      	movs	r3, #100	@ 0x64
 80016ac:	613b      	str	r3, [r7, #16]

        __HAL_TIM_SET_COMPARE(&htim3, TIM_CHANNEL_3, pwm_gyro);   // PC8: Gyro Z
 80016ae:	4b09      	ldr	r3, [pc, #36]	@ (80016d4 <HAL_TIM_PeriodElapsedCallback+0xd8>)
 80016b0:	681b      	ldr	r3, [r3, #0]
 80016b2:	697a      	ldr	r2, [r7, #20]
 80016b4:	63da      	str	r2, [r3, #60]	@ 0x3c
        __HAL_TIM_SET_COMPARE(&htim3, TIM_CHANNEL_4, pwm_magx);   // PC9: Mag X
 80016b6:	4b07      	ldr	r3, [pc, #28]	@ (80016d4 <HAL_TIM_PeriodElapsedCallback+0xd8>)
 80016b8:	681b      	ldr	r3, [r3, #0]
 80016ba:	693a      	ldr	r2, [r7, #16]
 80016bc:	641a      	str	r2, [r3, #64]	@ 0x40
    }
}
 80016be:	46c0      	nop			@ (mov r8, r8)
 80016c0:	46bd      	mov	sp, r7
 80016c2:	b006      	add	sp, #24
 80016c4:	bdb0      	pop	{r4, r5, r7, pc}
 80016c6:	46c0      	nop			@ (mov r8, r8)
 80016c8:	40002000 	.word	0x40002000
 80016cc:	42480000 	.word	0x42480000
 80016d0:	42c80000 	.word	0x42c80000
 80016d4:	2000007c 	.word	0x2000007c

080016d8 <Error_Handler>:
/**
  * @brief  This function is executed in case of error occurrence.
  * @retval None
  */
void Error_Handler(void)
{
 80016d8:	b580      	push	{r7, lr}
 80016da:	af00      	add	r7, sp, #0
  \details Disables IRQ interrupts by setting the I-bit in the CPSR.
           Can only be executed in Privileged modes.
 */
__STATIC_FORCEINLINE void __disable_irq(void)
{
  __ASM volatile ("cpsid i" : : : "memory");
 80016dc:	b672      	cpsid	i
}
 80016de:	46c0      	nop			@ (mov r8, r8)
  /* USER CODE BEGIN Error_Handler_Debug */
  /* User can add his own implementation to report the HAL error return state */
  __disable_irq();
  while (1)
 80016e0:	46c0      	nop			@ (mov r8, r8)
 80016e2:	e7fd      	b.n	80016e0 <Error_Handler+0x8>

080016e4 <HAL_MspInit>:
void HAL_TIM_MspPostInit(TIM_HandleTypeDef *htim);
                    /**
  * Initializes the Global MSP.
  */
void HAL_MspInit(void)
{
 80016e4:	b580      	push	{r7, lr}
 80016e6:	b082      	sub	sp, #8
 80016e8:	af00      	add	r7, sp, #0

  /* USER CODE BEGIN MspInit 0 */

  /* USER CODE END MspInit 0 */

  __HAL_RCC_SYSCFG_CLK_ENABLE();
 80016ea:	4b0f      	ldr	r3, [pc, #60]	@ (8001728 <HAL_MspInit+0x44>)
 80016ec:	699a      	ldr	r2, [r3, #24]
 80016ee:	4b0e      	ldr	r3, [pc, #56]	@ (8001728 <HAL_MspInit+0x44>)
 80016f0:	2101      	movs	r1, #1
 80016f2:	430a      	orrs	r2, r1
 80016f4:	619a      	str	r2, [r3, #24]
 80016f6:	4b0c      	ldr	r3, [pc, #48]	@ (8001728 <HAL_MspInit+0x44>)
 80016f8:	699b      	ldr	r3, [r3, #24]
 80016fa:	2201      	movs	r2, #1
 80016fc:	4013      	ands	r3, r2
 80016fe:	607b      	str	r3, [r7, #4]
 8001700:	687b      	ldr	r3, [r7, #4]
  __HAL_RCC_PWR_CLK_ENABLE();
 8001702:	4b09      	ldr	r3, [pc, #36]	@ (8001728 <HAL_MspInit+0x44>)
 8001704:	69da      	ldr	r2, [r3, #28]
 8001706:	4b08      	ldr	r3, [pc, #32]	@ (8001728 <HAL_MspInit+0x44>)
 8001708:	2180      	movs	r1, #128	@ 0x80
 800170a:	0549      	lsls	r1, r1, #21
 800170c:	430a      	orrs	r2, r1
 800170e:	61da      	str	r2, [r3, #28]
 8001710:	4b05      	ldr	r3, [pc, #20]	@ (8001728 <HAL_MspInit+0x44>)
 8001712:	69da      	ldr	r2, [r3, #28]
 8001714:	2380      	movs	r3, #128	@ 0x80
 8001716:	055b      	lsls	r3, r3, #21
 8001718:	4013      	ands	r3, r2
 800171a:	603b      	str	r3, [r7, #0]
 800171c:	683b      	ldr	r3, [r7, #0]
  /* System interrupt init*/

  /* USER CODE BEGIN MspInit 1 */

  /* USER CODE END MspInit 1 */
}
 800171e:	46c0      	nop			@ (mov r8, r8)
 8001720:	46bd      	mov	sp, r7
 8001722:	b002      	add	sp, #8
 8001724:	bd80      	pop	{r7, pc}
 8001726:	46c0      	nop			@ (mov r8, r8)
 8001728:	40021000 	.word	0x40021000

0800172c <HAL_I2C_MspInit>:
  * This function configures the hardware resources used in this example
  * @param hi2c: I2C handle pointer
  * @retval None
  */
void HAL_I2C_MspInit(I2C_HandleTypeDef* hi2c)
{
 800172c:	b590      	push	{r4, r7, lr}
 800172e:	b08b      	sub	sp, #44	@ 0x2c
 8001730:	af00      	add	r7, sp, #0
 8001732:	6078      	str	r0, [r7, #4]
  GPIO_InitTypeDef GPIO_InitStruct = {0};
 8001734:	2414      	movs	r4, #20
 8001736:	193b      	adds	r3, r7, r4
 8001738:	0018      	movs	r0, r3
 800173a:	2314      	movs	r3, #20
 800173c:	001a      	movs	r2, r3
 800173e:	2100      	movs	r1, #0
 8001740:	f002 fe5c 	bl	80043fc <memset>
  if(hi2c->Instance==I2C1)
 8001744:	687b      	ldr	r3, [r7, #4]
 8001746:	681b      	ldr	r3, [r3, #0]
 8001748:	4a1c      	ldr	r2, [pc, #112]	@ (80017bc <HAL_I2C_MspInit+0x90>)
 800174a:	4293      	cmp	r3, r2
 800174c:	d131      	bne.n	80017b2 <HAL_I2C_MspInit+0x86>
  {
    /* USER CODE BEGIN I2C1_MspInit 0 */

    /* USER CODE END I2C1_MspInit 0 */

    __HAL_RCC_GPIOB_CLK_ENABLE();
 800174e:	4b1c      	ldr	r3, [pc, #112]	@ (80017c0 <HAL_I2C_MspInit+0x94>)
 8001750:	695a      	ldr	r2, [r3, #20]
 8001752:	4b1b      	ldr	r3, [pc, #108]	@ (80017c0 <HAL_I2C_MspInit+0x94>)
 8001754:	2180      	movs	r1, #128	@ 0x80
 8001756:	02c9      	lsls	r1, r1, #11
 8001758:	430a      	orrs	r2, r1
 800175a:	615a      	str	r2, [r3, #20]
 800175c:	4b18      	ldr	r3, [pc, #96]	@ (80017c0 <HAL_I2C_MspInit+0x94>)
 800175e:	695a      	ldr	r2, [r3, #20]
 8001760:	2380      	movs	r3, #128	@ 0x80
 8001762:	02db      	lsls	r3, r3, #11
 8001764:	4013      	ands	r3, r2
 8001766:	613b      	str	r3, [r7, #16]
 8001768:	693b      	ldr	r3, [r7, #16]
    /**I2C1 GPIO Configuration
    PB6     ------> I2C1_SCL
    PB7     ------> I2C1_SDA
    */
    GPIO_InitStruct.Pin = GPIO_PIN_6|GPIO_PIN_7;
 800176a:	0021      	movs	r1, r4
 800176c:	187b      	adds	r3, r7, r1
 800176e:	22c0      	movs	r2, #192	@ 0xc0
 8001770:	601a      	str	r2, [r3, #0]
    GPIO_InitStruct.Mode = GPIO_MODE_AF_OD;
 8001772:	187b      	adds	r3, r7, r1
 8001774:	2212      	movs	r2, #18
 8001776:	605a      	str	r2, [r3, #4]
    GPIO_InitStruct.Pull = GPIO_NOPULL;
 8001778:	187b      	adds	r3, r7, r1
 800177a:	2200      	movs	r2, #0
 800177c:	609a      	str	r2, [r3, #8]
    GPIO_InitStruct.Speed = GPIO_SPEED_FREQ_HIGH;
 800177e:	187b      	adds	r3, r7, r1
 8001780:	2203      	movs	r2, #3
 8001782:	60da      	str	r2, [r3, #12]
    GPIO_InitStruct.Alternate = GPIO_AF1_I2C1;
 8001784:	187b      	adds	r3, r7, r1
 8001786:	2201      	movs	r2, #1
 8001788:	611a      	str	r2, [r3, #16]
    HAL_GPIO_Init(GPIOB, &GPIO_InitStruct);
 800178a:	187b      	adds	r3, r7, r1
 800178c:	4a0d      	ldr	r2, [pc, #52]	@ (80017c4 <HAL_I2C_MspInit+0x98>)
 800178e:	0019      	movs	r1, r3
 8001790:	0010      	movs	r0, r2
 8001792:	f000 fa71 	bl	8001c78 <HAL_GPIO_Init>

    /* Peripheral clock enable */
    __HAL_RCC_I2C1_CLK_ENABLE();
 8001796:	4b0a      	ldr	r3, [pc, #40]	@ (80017c0 <HAL_I2C_MspInit+0x94>)
 8001798:	69da      	ldr	r2, [r3, #28]
 800179a:	4b09      	ldr	r3, [pc, #36]	@ (80017c0 <HAL_I2C_MspInit+0x94>)
 800179c:	2180      	movs	r1, #128	@ 0x80
 800179e:	0389      	lsls	r1, r1, #14
 80017a0:	430a      	orrs	r2, r1
 80017a2:	61da      	str	r2, [r3, #28]
 80017a4:	4b06      	ldr	r3, [pc, #24]	@ (80017c0 <HAL_I2C_MspInit+0x94>)
 80017a6:	69da      	ldr	r2, [r3, #28]
 80017a8:	2380      	movs	r3, #128	@ 0x80
 80017aa:	039b      	lsls	r3, r3, #14
 80017ac:	4013      	ands	r3, r2
 80017ae:	60fb      	str	r3, [r7, #12]
 80017b0:	68fb      	ldr	r3, [r7, #12]

    /* USER CODE END I2C1_MspInit 1 */

  }

}
 80017b2:	46c0      	nop			@ (mov r8, r8)
 80017b4:	46bd      	mov	sp, r7
 80017b6:	b00b      	add	sp, #44	@ 0x2c
 80017b8:	bd90      	pop	{r4, r7, pc}
 80017ba:	46c0      	nop			@ (mov r8, r8)
 80017bc:	40005400 	.word	0x40005400
 80017c0:	40021000 	.word	0x40021000
 80017c4:	48000400 	.word	0x48000400

080017c8 <HAL_TIM_PWM_MspInit>:
  * This function configures the hardware resources used in this example
  * @param htim_pwm: TIM_PWM handle pointer
  * @retval None
  */
void HAL_TIM_PWM_MspInit(TIM_HandleTypeDef* htim_pwm)
{
 80017c8:	b580      	push	{r7, lr}
 80017ca:	b084      	sub	sp, #16
 80017cc:	af00      	add	r7, sp, #0
 80017ce:	6078      	str	r0, [r7, #4]
  if(htim_pwm->Instance==TIM3)
 80017d0:	687b      	ldr	r3, [r7, #4]
 80017d2:	681b      	ldr	r3, [r3, #0]
 80017d4:	4a09      	ldr	r2, [pc, #36]	@ (80017fc <HAL_TIM_PWM_MspInit+0x34>)
 80017d6:	4293      	cmp	r3, r2
 80017d8:	d10b      	bne.n	80017f2 <HAL_TIM_PWM_MspInit+0x2a>
  {
    /* USER CODE BEGIN TIM3_MspInit 0 */

    /* USER CODE END TIM3_MspInit 0 */
    /* Peripheral clock enable */
    __HAL_RCC_TIM3_CLK_ENABLE();
 80017da:	4b09      	ldr	r3, [pc, #36]	@ (8001800 <HAL_TIM_PWM_MspInit+0x38>)
 80017dc:	69da      	ldr	r2, [r3, #28]
 80017de:	4b08      	ldr	r3, [pc, #32]	@ (8001800 <HAL_TIM_PWM_MspInit+0x38>)
 80017e0:	2102      	movs	r1, #2
 80017e2:	430a      	orrs	r2, r1
 80017e4:	61da      	str	r2, [r3, #28]
 80017e6:	4b06      	ldr	r3, [pc, #24]	@ (8001800 <HAL_TIM_PWM_MspInit+0x38>)
 80017e8:	69db      	ldr	r3, [r3, #28]
 80017ea:	2202      	movs	r2, #2
 80017ec:	4013      	ands	r3, r2
 80017ee:	60fb      	str	r3, [r7, #12]
 80017f0:	68fb      	ldr	r3, [r7, #12]

    /* USER CODE END TIM3_MspInit 1 */

  }

}
 80017f2:	46c0      	nop			@ (mov r8, r8)
 80017f4:	46bd      	mov	sp, r7
 80017f6:	b004      	add	sp, #16
 80017f8:	bd80      	pop	{r7, pc}
 80017fa:	46c0      	nop			@ (mov r8, r8)
 80017fc:	40000400 	.word	0x40000400
 8001800:	40021000 	.word	0x40021000

08001804 <HAL_TIM_Base_MspInit>:
  * This function configures the hardware resources used in this example
  * @param htim_base: TIM_Base handle pointer
  * @retval None
  */
void HAL_TIM_Base_MspInit(TIM_HandleTypeDef* htim_base)
{
 8001804:	b580      	push	{r7, lr}
 8001806:	b084      	sub	sp, #16
 8001808:	af00      	add	r7, sp, #0
 800180a:	6078      	str	r0, [r7, #4]
  if(htim_base->Instance==TIM14)
 800180c:	687b      	ldr	r3, [r7, #4]
 800180e:	681b      	ldr	r3, [r3, #0]
 8001810:	4a0e      	ldr	r2, [pc, #56]	@ (800184c <HAL_TIM_Base_MspInit+0x48>)
 8001812:	4293      	cmp	r3, r2
 8001814:	d115      	bne.n	8001842 <HAL_TIM_Base_MspInit+0x3e>
  {
    /* USER CODE BEGIN TIM14_MspInit 0 */

    /* USER CODE END TIM14_MspInit 0 */
    /* Peripheral clock enable */
    __HAL_RCC_TIM14_CLK_ENABLE();
 8001816:	4b0e      	ldr	r3, [pc, #56]	@ (8001850 <HAL_TIM_Base_MspInit+0x4c>)
 8001818:	69da      	ldr	r2, [r3, #28]
 800181a:	4b0d      	ldr	r3, [pc, #52]	@ (8001850 <HAL_TIM_Base_MspInit+0x4c>)
 800181c:	2180      	movs	r1, #128	@ 0x80
 800181e:	0049      	lsls	r1, r1, #1
 8001820:	430a      	orrs	r2, r1
 8001822:	61da      	str	r2, [r3, #28]
 8001824:	4b0a      	ldr	r3, [pc, #40]	@ (8001850 <HAL_TIM_Base_MspInit+0x4c>)
 8001826:	69da      	ldr	r2, [r3, #28]
 8001828:	2380      	movs	r3, #128	@ 0x80
 800182a:	005b      	lsls	r3, r3, #1
 800182c:	4013      	ands	r3, r2
 800182e:	60fb      	str	r3, [r7, #12]
 8001830:	68fb      	ldr	r3, [r7, #12]
    /* TIM14 interrupt Init */
    HAL_NVIC_SetPriority(TIM14_IRQn, 0, 0);
 8001832:	2200      	movs	r2, #0
 8001834:	2100      	movs	r1, #0
 8001836:	2013      	movs	r0, #19
 8001838:	f000 f9ec 	bl	8001c14 <HAL_NVIC_SetPriority>
    HAL_NVIC_EnableIRQ(TIM14_IRQn);
 800183c:	2013      	movs	r0, #19
 800183e:	f000 f9fe 	bl	8001c3e <HAL_NVIC_EnableIRQ>

    /* USER CODE END TIM14_MspInit 1 */

  }

}
 8001842:	46c0      	nop			@ (mov r8, r8)
 8001844:	46bd      	mov	sp, r7
 8001846:	b004      	add	sp, #16
 8001848:	bd80      	pop	{r7, pc}
 800184a:	46c0      	nop			@ (mov r8, r8)
 800184c:	40002000 	.word	0x40002000
 8001850:	40021000 	.word	0x40021000

08001854 <HAL_TIM_MspPostInit>:

void HAL_TIM_MspPostInit(TIM_HandleTypeDef* htim)
{
 8001854:	b590      	push	{r4, r7, lr}
 8001856:	b089      	sub	sp, #36	@ 0x24
 8001858:	af00      	add	r7, sp, #0
 800185a:	6078      	str	r0, [r7, #4]
  GPIO_InitTypeDef GPIO_InitStruct = {0};
 800185c:	240c      	movs	r4, #12
 800185e:	193b      	adds	r3, r7, r4
 8001860:	0018      	movs	r0, r3
 8001862:	2314      	movs	r3, #20
 8001864:	001a      	movs	r2, r3
 8001866:	2100      	movs	r1, #0
 8001868:	f002 fdc8 	bl	80043fc <memset>
  if(htim->Instance==TIM3)
 800186c:	687b      	ldr	r3, [r7, #4]
 800186e:	681b      	ldr	r3, [r3, #0]
 8001870:	4a20      	ldr	r2, [pc, #128]	@ (80018f4 <HAL_TIM_MspPostInit+0xa0>)
 8001872:	4293      	cmp	r3, r2
 8001874:	d13a      	bne.n	80018ec <HAL_TIM_MspPostInit+0x98>
  {
    /* USER CODE BEGIN TIM3_MspPostInit 0 */

    /* USER CODE END TIM3_MspPostInit 0 */

    __HAL_RCC_GPIOC_CLK_ENABLE();
 8001876:	4b20      	ldr	r3, [pc, #128]	@ (80018f8 <HAL_TIM_MspPostInit+0xa4>)
 8001878:	695a      	ldr	r2, [r3, #20]
 800187a:	4b1f      	ldr	r3, [pc, #124]	@ (80018f8 <HAL_TIM_MspPostInit+0xa4>)
 800187c:	2180      	movs	r1, #128	@ 0x80
 800187e:	0309      	lsls	r1, r1, #12
 8001880:	430a      	orrs	r2, r1
 8001882:	615a      	str	r2, [r3, #20]
 8001884:	4b1c      	ldr	r3, [pc, #112]	@ (80018f8 <HAL_TIM_MspPostInit+0xa4>)
 8001886:	695a      	ldr	r2, [r3, #20]
 8001888:	2380      	movs	r3, #128	@ 0x80
 800188a:	031b      	lsls	r3, r3, #12
 800188c:	4013      	ands	r3, r2
 800188e:	60bb      	str	r3, [r7, #8]
 8001890:	68bb      	ldr	r3, [r7, #8]
    /**TIM3 GPIO Configuration
    PC8     ------> TIM3_CH3
    PC9     ------> TIM3_CH4
    */
    GPIO_InitStruct.Pin = GPIO_PIN_8;
 8001892:	193b      	adds	r3, r7, r4
 8001894:	2280      	movs	r2, #128	@ 0x80
 8001896:	0052      	lsls	r2, r2, #1
 8001898:	601a      	str	r2, [r3, #0]
    GPIO_InitStruct.Mode = GPIO_MODE_AF_PP;
 800189a:	193b      	adds	r3, r7, r4
 800189c:	2202      	movs	r2, #2
 800189e:	605a      	str	r2, [r3, #4]
    GPIO_InitStruct.Pull = GPIO_NOPULL;
 80018a0:	193b      	adds	r3, r7, r4
 80018a2:	2200      	movs	r2, #0
 80018a4:	609a      	str	r2, [r3, #8]
    GPIO_InitStruct.Speed = GPIO_SPEED_FREQ_LOW;
 80018a6:	193b      	adds	r3, r7, r4
 80018a8:	2200      	movs	r2, #0
 80018aa:	60da      	str	r2, [r3, #12]
    //GPIO_InitStruct.Alternate = GPIO_AF0_MCO;	// GPIO_InitStruct.Alternate = GPIO_AF1_TIM3;
    GPIO_InitStruct.Alternate = GPIO_AF1_TIM3;
 80018ac:	193b      	adds	r3, r7, r4
 80018ae:	2201      	movs	r2, #1
 80018b0:	611a      	str	r2, [r3, #16]
    HAL_GPIO_Init(GPIOC, &GPIO_InitStruct);
 80018b2:	193b      	adds	r3, r7, r4
 80018b4:	4a11      	ldr	r2, [pc, #68]	@ (80018fc <HAL_TIM_MspPostInit+0xa8>)
 80018b6:	0019      	movs	r1, r3
 80018b8:	0010      	movs	r0, r2
 80018ba:	f000 f9dd 	bl	8001c78 <HAL_GPIO_Init>

    GPIO_InitStruct.Pin = GPIO_PIN_9;
 80018be:	0021      	movs	r1, r4
 80018c0:	187b      	adds	r3, r7, r1
 80018c2:	2280      	movs	r2, #128	@ 0x80
 80018c4:	0092      	lsls	r2, r2, #2
 80018c6:	601a      	str	r2, [r3, #0]
    GPIO_InitStruct.Mode = GPIO_MODE_AF_PP;
 80018c8:	187b      	adds	r3, r7, r1
 80018ca:	2202      	movs	r2, #2
 80018cc:	605a      	str	r2, [r3, #4]
    GPIO_InitStruct.Pull = GPIO_NOPULL;
 80018ce:	187b      	adds	r3, r7, r1
 80018d0:	2200      	movs	r2, #0
 80018d2:	609a      	str	r2, [r3, #8]
    GPIO_InitStruct.Speed = GPIO_SPEED_FREQ_LOW;
 80018d4:	187b      	adds	r3, r7, r1
 80018d6:	2200      	movs	r2, #0
 80018d8:	60da      	str	r2, [r3, #12]
    //GPIO_InitStruct.Alternate = GPIO_AF0_MCO;  //Funktioniert somehow -> sollte aber GPIO_InitStruct.Alternate = GPIO_AF1_TIM3; sein????
    GPIO_InitStruct.Alternate = GPIO_AF1_TIM3;
 80018da:	187b      	adds	r3, r7, r1
 80018dc:	2201      	movs	r2, #1
 80018de:	611a      	str	r2, [r3, #16]
    HAL_GPIO_Init(GPIOC, &GPIO_InitStruct);
 80018e0:	187b      	adds	r3, r7, r1
 80018e2:	4a06      	ldr	r2, [pc, #24]	@ (80018fc <HAL_TIM_MspPostInit+0xa8>)
 80018e4:	0019      	movs	r1, r3
 80018e6:	0010      	movs	r0, r2
 80018e8:	f000 f9c6 	bl	8001c78 <HAL_GPIO_Init>
    /* USER CODE BEGIN TIM3_MspPostInit 1 */

    /* USER CODE END TIM3_MspPostInit 1 */
  }

}
 80018ec:	46c0      	nop			@ (mov r8, r8)
 80018ee:	46bd      	mov	sp, r7
 80018f0:	b009      	add	sp, #36	@ 0x24
 80018f2:	bd90      	pop	{r4, r7, pc}
 80018f4:	40000400 	.word	0x40000400
 80018f8:	40021000 	.word	0x40021000
 80018fc:	48000800 	.word	0x48000800

08001900 <NMI_Handler>:
/******************************************************************************/
/**
  * @brief This function handles Non maskable interrupt.
  */
void NMI_Handler(void)
{
 8001900:	b580      	push	{r7, lr}
 8001902:	af00      	add	r7, sp, #0
  /* USER CODE BEGIN NonMaskableInt_IRQn 0 */

  /* USER CODE END NonMaskableInt_IRQn 0 */
  /* USER CODE BEGIN NonMaskableInt_IRQn 1 */
   while (1)
 8001904:	46c0      	nop			@ (mov r8, r8)
 8001906:	e7fd      	b.n	8001904 <NMI_Handler+0x4>

08001908 <HardFault_Handler>:

/**
  * @brief This function handles Hard fault interrupt.
  */
void HardFault_Handler(void)
{
 8001908:	b580      	push	{r7, lr}
 800190a:	af00      	add	r7, sp, #0
  /* USER CODE BEGIN HardFault_IRQn 0 */

  /* USER CODE END HardFault_IRQn 0 */
  while (1)
 800190c:	46c0      	nop			@ (mov r8, r8)
 800190e:	e7fd      	b.n	800190c <HardFault_Handler+0x4>

08001910 <SVC_Handler>:

/**
  * @brief This function handles System service call via SWI instruction.
  */
void SVC_Handler(void)
{
 8001910:	b580      	push	{r7, lr}
 8001912:	af00      	add	r7, sp, #0

  /* USER CODE END SVC_IRQn 0 */
  /* USER CODE BEGIN SVC_IRQn 1 */

  /* USER CODE END SVC_IRQn 1 */
}
 8001914:	46c0      	nop			@ (mov r8, r8)
 8001916:	46bd      	mov	sp, r7
 8001918:	bd80      	pop	{r7, pc}

0800191a <PendSV_Handler>:

/**
  * @brief This function handles Pendable request for system service.
  */
void PendSV_Handler(void)
{
 800191a:	b580      	push	{r7, lr}
 800191c:	af00      	add	r7, sp, #0

  /* USER CODE END PendSV_IRQn 0 */
  /* USER CODE BEGIN PendSV_IRQn 1 */

  /* USER CODE END PendSV_IRQn 1 */
}
 800191e:	46c0      	nop			@ (mov r8, r8)
 8001920:	46bd      	mov	sp, r7
 8001922:	bd80      	pop	{r7, pc}

08001924 <SysTick_Handler>:

/**
  * @brief This function handles System tick timer.
  */
void SysTick_Handler(void)
{
 8001924:	b580      	push	{r7, lr}
 8001926:	af00      	add	r7, sp, #0
  /* USER CODE BEGIN SysTick_IRQn 0 */

  /* USER CODE END SysTick_IRQn 0 */
  HAL_IncTick();
 8001928:	f000 f888 	bl	8001a3c <HAL_IncTick>
  /* USER CODE BEGIN SysTick_IRQn 1 */

  /* USER CODE END SysTick_IRQn 1 */
}
 800192c:	46c0      	nop			@ (mov r8, r8)
 800192e:	46bd      	mov	sp, r7
 8001930:	bd80      	pop	{r7, pc}
	...

08001934 <TIM14_IRQHandler>:

/**
  * @brief This function handles TIM14 global interrupt.
  */
void TIM14_IRQHandler(void)
{
 8001934:	b580      	push	{r7, lr}
 8001936:	af00      	add	r7, sp, #0
  /* USER CODE BEGIN TIM14_IRQn 0 */

  /* USER CODE END TIM14_IRQn 0 */
  HAL_TIM_IRQHandler(&htim14);
 8001938:	4b03      	ldr	r3, [pc, #12]	@ (8001948 <TIM14_IRQHandler+0x14>)
 800193a:	0018      	movs	r0, r3
 800193c:	f002 f86e 	bl	8003a1c <HAL_TIM_IRQHandler>
  /* USER CODE BEGIN TIM14_IRQn 1 */

  /* USER CODE END TIM14_IRQn 1 */
}
 8001940:	46c0      	nop			@ (mov r8, r8)
 8001942:	46bd      	mov	sp, r7
 8001944:	bd80      	pop	{r7, pc}
 8001946:	46c0      	nop			@ (mov r8, r8)
 8001948:	200000c4 	.word	0x200000c4

0800194c <SystemInit>:
  * @brief  Setup the microcontroller system
  * @param  None
  * @retval None
  */
void SystemInit(void)
{
 800194c:	b580      	push	{r7, lr}
 800194e:	af00      	add	r7, sp, #0
                         before branch to main program. This call is made inside
                         the "startup_stm32f0xx.s" file.
                         User can setups the default system clock (System clock source, PLL Multiplier
                         and Divider factors, AHB/APBx prescalers and Flash settings).
   */
}
 8001950:	46c0      	nop			@ (mov r8, r8)
 8001952:	46bd      	mov	sp, r7
 8001954:	bd80      	pop	{r7, pc}
	...

08001958 <Reset_Handler>:

  .section .text.Reset_Handler
  .weak Reset_Handler
  .type Reset_Handler, %function
Reset_Handler:
  ldr   r0, =_estack
 8001958:	480d      	ldr	r0, [pc, #52]	@ (8001990 <LoopForever+0x2>)
  mov   sp, r0          /* set stack pointer */
 800195a:	4685      	mov	sp, r0
  
  /* Call the clock system initialization function.*/
  bl  SystemInit
 800195c:	f7ff fff6 	bl	800194c <SystemInit>

/* Copy the data segment initializers from flash to SRAM */
  ldr r0, =_sdata
 8001960:	480c      	ldr	r0, [pc, #48]	@ (8001994 <LoopForever+0x6>)
  ldr r1, =_edata
 8001962:	490d      	ldr	r1, [pc, #52]	@ (8001998 <LoopForever+0xa>)
  ldr r2, =_sidata
 8001964:	4a0d      	ldr	r2, [pc, #52]	@ (800199c <LoopForever+0xe>)
  movs r3, #0
 8001966:	2300      	movs	r3, #0
  b LoopCopyDataInit
 8001968:	e002      	b.n	8001970 <LoopCopyDataInit>

0800196a <CopyDataInit>:

CopyDataInit:
  ldr r4, [r2, r3]
 800196a:	58d4      	ldr	r4, [r2, r3]
  str r4, [r0, r3]
 800196c:	50c4      	str	r4, [r0, r3]
  adds r3, r3, #4
 800196e:	3304      	adds	r3, #4

08001970 <LoopCopyDataInit>:

LoopCopyDataInit:
  adds r4, r0, r3
 8001970:	18c4      	adds	r4, r0, r3
  cmp r4, r1
 8001972:	428c      	cmp	r4, r1
  bcc CopyDataInit
 8001974:	d3f9      	bcc.n	800196a <CopyDataInit>
  
/* Zero fill the bss segment. */
  ldr r2, =_sbss
 8001976:	4a0a      	ldr	r2, [pc, #40]	@ (80019a0 <LoopForever+0x12>)
  ldr r4, =_ebss
 8001978:	4c0a      	ldr	r4, [pc, #40]	@ (80019a4 <LoopForever+0x16>)
  movs r3, #0
 800197a:	2300      	movs	r3, #0
  b LoopFillZerobss
 800197c:	e001      	b.n	8001982 <LoopFillZerobss>

0800197e <FillZerobss>:

FillZerobss:
  str  r3, [r2]
 800197e:	6013      	str	r3, [r2, #0]
  adds r2, r2, #4
 8001980:	3204      	adds	r2, #4

08001982 <LoopFillZerobss>:

LoopFillZerobss:
  cmp r2, r4
 8001982:	42a2      	cmp	r2, r4
  bcc FillZerobss
 8001984:	d3fb      	bcc.n	800197e <FillZerobss>

/* Call static constructors */
  bl __libc_init_array
 8001986:	f002 fd41 	bl	800440c <__libc_init_array>
/* Call the application's entry point.*/
  bl main
 800198a:	f7ff f939 	bl	8000c00 <main>

0800198e <LoopForever>:

LoopForever:
    b LoopForever
 800198e:	e7fe      	b.n	800198e <LoopForever>
  ldr   r0, =_estack
 8001990:	20002000 	.word	0x20002000
  ldr r0, =_sdata
 8001994:	20000000 	.word	0x20000000
  ldr r1, =_edata
 8001998:	2000000c 	.word	0x2000000c
  ldr r2, =_sidata
 800199c:	08004520 	.word	0x08004520
  ldr r2, =_sbss
 80019a0:	2000000c 	.word	0x2000000c
  ldr r4, =_ebss
 80019a4:	20000110 	.word	0x20000110

080019a8 <ADC1_COMP_IRQHandler>:
 * @retval : None
*/
    .section .text.Default_Handler,"ax",%progbits
Default_Handler:
Infinite_Loop:
  b Infinite_Loop
 80019a8:	e7fe      	b.n	80019a8 <ADC1_COMP_IRQHandler>
	...

080019ac <HAL_Init>:
  *       In the default implementation,Systick is used as source of time base.
  *       The tick variable is incremented each 1ms in its ISR.
  * @retval HAL status
  */
HAL_StatusTypeDef HAL_Init(void)
{
 80019ac:	b580      	push	{r7, lr}
 80019ae:	af00      	add	r7, sp, #0
  /* Configure Flash prefetch */ 
#if (PREFETCH_ENABLE != 0)
  __HAL_FLASH_PREFETCH_BUFFER_ENABLE();
 80019b0:	4b07      	ldr	r3, [pc, #28]	@ (80019d0 <HAL_Init+0x24>)
 80019b2:	681a      	ldr	r2, [r3, #0]
 80019b4:	4b06      	ldr	r3, [pc, #24]	@ (80019d0 <HAL_Init+0x24>)
 80019b6:	2110      	movs	r1, #16
 80019b8:	430a      	orrs	r2, r1
 80019ba:	601a      	str	r2, [r3, #0]
#endif /* PREFETCH_ENABLE */

  /* Use systick as time base source and configure 1ms tick (default clock after Reset is HSI) */

  HAL_InitTick(TICK_INT_PRIORITY);
 80019bc:	2000      	movs	r0, #0
 80019be:	f000 f809 	bl	80019d4 <HAL_InitTick>

  /* Init the low level hardware */
  HAL_MspInit();
 80019c2:	f7ff fe8f 	bl	80016e4 <HAL_MspInit>

  /* Return function status */
  return HAL_OK;
 80019c6:	2300      	movs	r3, #0
}
 80019c8:	0018      	movs	r0, r3
 80019ca:	46bd      	mov	sp, r7
 80019cc:	bd80      	pop	{r7, pc}
 80019ce:	46c0      	nop			@ (mov r8, r8)
 80019d0:	40022000 	.word	0x40022000

080019d4 <HAL_InitTick>:
  *       implementation  in user file.
  * @param TickPriority Tick interrupt priority.
  * @retval HAL status
  */
__weak HAL_StatusTypeDef HAL_InitTick(uint32_t TickPriority)
{
 80019d4:	b590      	push	{r4, r7, lr}
 80019d6:	b083      	sub	sp, #12
 80019d8:	af00      	add	r7, sp, #0
 80019da:	6078      	str	r0, [r7, #4]
  /*Configure the SysTick to have interrupt in 1ms time basis*/
  if (HAL_SYSTICK_Config(SystemCoreClock / (1000U / uwTickFreq)) > 0U)
 80019dc:	4b14      	ldr	r3, [pc, #80]	@ (8001a30 <HAL_InitTick+0x5c>)
 80019de:	681c      	ldr	r4, [r3, #0]
 80019e0:	4b14      	ldr	r3, [pc, #80]	@ (8001a34 <HAL_InitTick+0x60>)
 80019e2:	781b      	ldrb	r3, [r3, #0]
 80019e4:	0019      	movs	r1, r3
 80019e6:	23fa      	movs	r3, #250	@ 0xfa
 80019e8:	0098      	lsls	r0, r3, #2
 80019ea:	f7fe fb8d 	bl	8000108 <__udivsi3>
 80019ee:	0003      	movs	r3, r0
 80019f0:	0019      	movs	r1, r3
 80019f2:	0020      	movs	r0, r4
 80019f4:	f7fe fb88 	bl	8000108 <__udivsi3>
 80019f8:	0003      	movs	r3, r0
 80019fa:	0018      	movs	r0, r3
 80019fc:	f000 f92f 	bl	8001c5e <HAL_SYSTICK_Config>
 8001a00:	1e03      	subs	r3, r0, #0
 8001a02:	d001      	beq.n	8001a08 <HAL_InitTick+0x34>
  {
    return HAL_ERROR;
 8001a04:	2301      	movs	r3, #1
 8001a06:	e00f      	b.n	8001a28 <HAL_InitTick+0x54>
  }

  /* Configure the SysTick IRQ priority */
  if (TickPriority < (1UL << __NVIC_PRIO_BITS))
 8001a08:	687b      	ldr	r3, [r7, #4]
 8001a0a:	2b03      	cmp	r3, #3
 8001a0c:	d80b      	bhi.n	8001a26 <HAL_InitTick+0x52>
  {
    HAL_NVIC_SetPriority(SysTick_IRQn, TickPriority, 0U);
 8001a0e:	6879      	ldr	r1, [r7, #4]
 8001a10:	2301      	movs	r3, #1
 8001a12:	425b      	negs	r3, r3
 8001a14:	2200      	movs	r2, #0
 8001a16:	0018      	movs	r0, r3
 8001a18:	f000 f8fc 	bl	8001c14 <HAL_NVIC_SetPriority>
    uwTickPrio = TickPriority;
 8001a1c:	4b06      	ldr	r3, [pc, #24]	@ (8001a38 <HAL_InitTick+0x64>)
 8001a1e:	687a      	ldr	r2, [r7, #4]
 8001a20:	601a      	str	r2, [r3, #0]
  {
    return HAL_ERROR;
  }

   /* Return function status */
  return HAL_OK;
 8001a22:	2300      	movs	r3, #0
 8001a24:	e000      	b.n	8001a28 <HAL_InitTick+0x54>
    return HAL_ERROR;
 8001a26:	2301      	movs	r3, #1
}
 8001a28:	0018      	movs	r0, r3
 8001a2a:	46bd      	mov	sp, r7
 8001a2c:	b003      	add	sp, #12
 8001a2e:	bd90      	pop	{r4, r7, pc}
 8001a30:	20000000 	.word	0x20000000
 8001a34:	20000008 	.word	0x20000008
 8001a38:	20000004 	.word	0x20000004

08001a3c <HAL_IncTick>:
  * @note This function is declared as __weak to be overwritten in case of other 
  *       implementations in user file.
  * @retval None
  */
__weak void HAL_IncTick(void)
{
 8001a3c:	b580      	push	{r7, lr}
 8001a3e:	af00      	add	r7, sp, #0
  uwTick += uwTickFreq;
 8001a40:	4b05      	ldr	r3, [pc, #20]	@ (8001a58 <HAL_IncTick+0x1c>)
 8001a42:	781b      	ldrb	r3, [r3, #0]
 8001a44:	001a      	movs	r2, r3
 8001a46:	4b05      	ldr	r3, [pc, #20]	@ (8001a5c <HAL_IncTick+0x20>)
 8001a48:	681b      	ldr	r3, [r3, #0]
 8001a4a:	18d2      	adds	r2, r2, r3
 8001a4c:	4b03      	ldr	r3, [pc, #12]	@ (8001a5c <HAL_IncTick+0x20>)
 8001a4e:	601a      	str	r2, [r3, #0]
}
 8001a50:	46c0      	nop			@ (mov r8, r8)
 8001a52:	46bd      	mov	sp, r7
 8001a54:	bd80      	pop	{r7, pc}
 8001a56:	46c0      	nop			@ (mov r8, r8)
 8001a58:	20000008 	.word	0x20000008
 8001a5c:	2000010c 	.word	0x2000010c

08001a60 <HAL_GetTick>:
  * @note   This function is declared as __weak  to be overwritten  in case of other 
  *       implementations in user file.
  * @retval tick value
  */
__weak uint32_t HAL_GetTick(void)
{
 8001a60:	b580      	push	{r7, lr}
 8001a62:	af00      	add	r7, sp, #0
  return uwTick;
 8001a64:	4b02      	ldr	r3, [pc, #8]	@ (8001a70 <HAL_GetTick+0x10>)
 8001a66:	681b      	ldr	r3, [r3, #0]
}
 8001a68:	0018      	movs	r0, r3
 8001a6a:	46bd      	mov	sp, r7
 8001a6c:	bd80      	pop	{r7, pc}
 8001a6e:	46c0      	nop			@ (mov r8, r8)
 8001a70:	2000010c 	.word	0x2000010c

08001a74 <HAL_Delay>:
  *       implementations in user file.
  * @param Delay specifies the delay time length, in milliseconds.
  * @retval None
  */
__weak void HAL_Delay(uint32_t Delay)
{
 8001a74:	b580      	push	{r7, lr}
 8001a76:	b084      	sub	sp, #16
 8001a78:	af00      	add	r7, sp, #0
 8001a7a:	6078      	str	r0, [r7, #4]
  uint32_t tickstart = HAL_GetTick();
 8001a7c:	f7ff fff0 	bl	8001a60 <HAL_GetTick>
 8001a80:	0003      	movs	r3, r0
 8001a82:	60bb      	str	r3, [r7, #8]
  uint32_t wait = Delay;
 8001a84:	687b      	ldr	r3, [r7, #4]
 8001a86:	60fb      	str	r3, [r7, #12]
  
  /* Add a freq to guarantee minimum wait */
  if (wait < HAL_MAX_DELAY)
 8001a88:	68fb      	ldr	r3, [r7, #12]
 8001a8a:	3301      	adds	r3, #1
 8001a8c:	d005      	beq.n	8001a9a <HAL_Delay+0x26>
  {
    wait += (uint32_t)(uwTickFreq);
 8001a8e:	4b0a      	ldr	r3, [pc, #40]	@ (8001ab8 <HAL_Delay+0x44>)
 8001a90:	781b      	ldrb	r3, [r3, #0]
 8001a92:	001a      	movs	r2, r3
 8001a94:	68fb      	ldr	r3, [r7, #12]
 8001a96:	189b      	adds	r3, r3, r2
 8001a98:	60fb      	str	r3, [r7, #12]
  }
  
  while((HAL_GetTick() - tickstart) < wait)
 8001a9a:	46c0      	nop			@ (mov r8, r8)
 8001a9c:	f7ff ffe0 	bl	8001a60 <HAL_GetTick>
 8001aa0:	0002      	movs	r2, r0
 8001aa2:	68bb      	ldr	r3, [r7, #8]
 8001aa4:	1ad3      	subs	r3, r2, r3
 8001aa6:	68fa      	ldr	r2, [r7, #12]
 8001aa8:	429a      	cmp	r2, r3
 8001aaa:	d8f7      	bhi.n	8001a9c <HAL_Delay+0x28>
  {
  }
}
 8001aac:	46c0      	nop			@ (mov r8, r8)
 8001aae:	46c0      	nop			@ (mov r8, r8)
 8001ab0:	46bd      	mov	sp, r7
 8001ab2:	b004      	add	sp, #16
 8001ab4:	bd80      	pop	{r7, pc}
 8001ab6:	46c0      	nop			@ (mov r8, r8)
 8001ab8:	20000008 	.word	0x20000008

08001abc <__NVIC_EnableIRQ>:
  \details Enables a device specific interrupt in the NVIC interrupt controller.
  \param [in]      IRQn  Device specific interrupt number.
  \note    IRQn must not be negative.
 */
__STATIC_INLINE void __NVIC_EnableIRQ(IRQn_Type IRQn)
{
 8001abc:	b580      	push	{r7, lr}
 8001abe:	b082      	sub	sp, #8
 8001ac0:	af00      	add	r7, sp, #0
 8001ac2:	0002      	movs	r2, r0
 8001ac4:	1dfb      	adds	r3, r7, #7
 8001ac6:	701a      	strb	r2, [r3, #0]
  if ((int32_t)(IRQn) >= 0)
 8001ac8:	1dfb      	adds	r3, r7, #7
 8001aca:	781b      	ldrb	r3, [r3, #0]
 8001acc:	2b7f      	cmp	r3, #127	@ 0x7f
 8001ace:	d809      	bhi.n	8001ae4 <__NVIC_EnableIRQ+0x28>
  {
    NVIC->ISER[0U] = (uint32_t)(1UL << (((uint32_t)IRQn) & 0x1FUL));
 8001ad0:	1dfb      	adds	r3, r7, #7
 8001ad2:	781b      	ldrb	r3, [r3, #0]
 8001ad4:	001a      	movs	r2, r3
 8001ad6:	231f      	movs	r3, #31
 8001ad8:	401a      	ands	r2, r3
 8001ada:	4b04      	ldr	r3, [pc, #16]	@ (8001aec <__NVIC_EnableIRQ+0x30>)
 8001adc:	2101      	movs	r1, #1
 8001ade:	4091      	lsls	r1, r2
 8001ae0:	000a      	movs	r2, r1
 8001ae2:	601a      	str	r2, [r3, #0]
  }
}
 8001ae4:	46c0      	nop			@ (mov r8, r8)
 8001ae6:	46bd      	mov	sp, r7
 8001ae8:	b002      	add	sp, #8
 8001aea:	bd80      	pop	{r7, pc}
 8001aec:	e000e100 	.word	0xe000e100

08001af0 <__NVIC_SetPriority>:
  \param [in]      IRQn  Interrupt number.
  \param [in]  priority  Priority to set.
  \note    The priority cannot be set for every processor exception.
 */
__STATIC_INLINE void __NVIC_SetPriority(IRQn_Type IRQn, uint32_t priority)
{
 8001af0:	b590      	push	{r4, r7, lr}
 8001af2:	b083      	sub	sp, #12
 8001af4:	af00      	add	r7, sp, #0
 8001af6:	0002      	movs	r2, r0
 8001af8:	6039      	str	r1, [r7, #0]
 8001afa:	1dfb      	adds	r3, r7, #7
 8001afc:	701a      	strb	r2, [r3, #0]
  if ((int32_t)(IRQn) >= 0)
 8001afe:	1dfb      	adds	r3, r7, #7
 8001b00:	781b      	ldrb	r3, [r3, #0]
 8001b02:	2b7f      	cmp	r3, #127	@ 0x7f
 8001b04:	d828      	bhi.n	8001b58 <__NVIC_SetPriority+0x68>
  {
    NVIC->IP[_IP_IDX(IRQn)]  = ((uint32_t)(NVIC->IP[_IP_IDX(IRQn)]  & ~(0xFFUL << _BIT_SHIFT(IRQn))) |
 8001b06:	4a2f      	ldr	r2, [pc, #188]	@ (8001bc4 <__NVIC_SetPriority+0xd4>)
 8001b08:	1dfb      	adds	r3, r7, #7
 8001b0a:	781b      	ldrb	r3, [r3, #0]
 8001b0c:	b25b      	sxtb	r3, r3
 8001b0e:	089b      	lsrs	r3, r3, #2
 8001b10:	33c0      	adds	r3, #192	@ 0xc0
 8001b12:	009b      	lsls	r3, r3, #2
 8001b14:	589b      	ldr	r3, [r3, r2]
 8001b16:	1dfa      	adds	r2, r7, #7
 8001b18:	7812      	ldrb	r2, [r2, #0]
 8001b1a:	0011      	movs	r1, r2
 8001b1c:	2203      	movs	r2, #3
 8001b1e:	400a      	ands	r2, r1
 8001b20:	00d2      	lsls	r2, r2, #3
 8001b22:	21ff      	movs	r1, #255	@ 0xff
 8001b24:	4091      	lsls	r1, r2
 8001b26:	000a      	movs	r2, r1
 8001b28:	43d2      	mvns	r2, r2
 8001b2a:	401a      	ands	r2, r3
 8001b2c:	0011      	movs	r1, r2
       (((priority << (8U - __NVIC_PRIO_BITS)) & (uint32_t)0xFFUL) << _BIT_SHIFT(IRQn)));
 8001b2e:	683b      	ldr	r3, [r7, #0]
 8001b30:	019b      	lsls	r3, r3, #6
 8001b32:	22ff      	movs	r2, #255	@ 0xff
 8001b34:	401a      	ands	r2, r3
 8001b36:	1dfb      	adds	r3, r7, #7
 8001b38:	781b      	ldrb	r3, [r3, #0]
 8001b3a:	0018      	movs	r0, r3
 8001b3c:	2303      	movs	r3, #3
 8001b3e:	4003      	ands	r3, r0
 8001b40:	00db      	lsls	r3, r3, #3
 8001b42:	409a      	lsls	r2, r3
    NVIC->IP[_IP_IDX(IRQn)]  = ((uint32_t)(NVIC->IP[_IP_IDX(IRQn)]  & ~(0xFFUL << _BIT_SHIFT(IRQn))) |
 8001b44:	481f      	ldr	r0, [pc, #124]	@ (8001bc4 <__NVIC_SetPriority+0xd4>)
 8001b46:	1dfb      	adds	r3, r7, #7
 8001b48:	781b      	ldrb	r3, [r3, #0]
 8001b4a:	b25b      	sxtb	r3, r3
 8001b4c:	089b      	lsrs	r3, r3, #2
 8001b4e:	430a      	orrs	r2, r1
 8001b50:	33c0      	adds	r3, #192	@ 0xc0
 8001b52:	009b      	lsls	r3, r3, #2
 8001b54:	501a      	str	r2, [r3, r0]
  else
  {
    SCB->SHP[_SHP_IDX(IRQn)] = ((uint32_t)(SCB->SHP[_SHP_IDX(IRQn)] & ~(0xFFUL << _BIT_SHIFT(IRQn))) |
       (((priority << (8U - __NVIC_PRIO_BITS)) & (uint32_t)0xFFUL) << _BIT_SHIFT(IRQn)));
  }
}
 8001b56:	e031      	b.n	8001bbc <__NVIC_SetPriority+0xcc>
    SCB->SHP[_SHP_IDX(IRQn)] = ((uint32_t)(SCB->SHP[_SHP_IDX(IRQn)] & ~(0xFFUL << _BIT_SHIFT(IRQn))) |
 8001b58:	4a1b      	ldr	r2, [pc, #108]	@ (8001bc8 <__NVIC_SetPriority+0xd8>)
 8001b5a:	1dfb      	adds	r3, r7, #7
 8001b5c:	781b      	ldrb	r3, [r3, #0]
 8001b5e:	0019      	movs	r1, r3
 8001b60:	230f      	movs	r3, #15
 8001b62:	400b      	ands	r3, r1
 8001b64:	3b08      	subs	r3, #8
 8001b66:	089b      	lsrs	r3, r3, #2
 8001b68:	3306      	adds	r3, #6
 8001b6a:	009b      	lsls	r3, r3, #2
 8001b6c:	18d3      	adds	r3, r2, r3
 8001b6e:	3304      	adds	r3, #4
 8001b70:	681b      	ldr	r3, [r3, #0]
 8001b72:	1dfa      	adds	r2, r7, #7
 8001b74:	7812      	ldrb	r2, [r2, #0]
 8001b76:	0011      	movs	r1, r2
 8001b78:	2203      	movs	r2, #3
 8001b7a:	400a      	ands	r2, r1
 8001b7c:	00d2      	lsls	r2, r2, #3
 8001b7e:	21ff      	movs	r1, #255	@ 0xff
 8001b80:	4091      	lsls	r1, r2
 8001b82:	000a      	movs	r2, r1
 8001b84:	43d2      	mvns	r2, r2
 8001b86:	401a      	ands	r2, r3
 8001b88:	0011      	movs	r1, r2
       (((priority << (8U - __NVIC_PRIO_BITS)) & (uint32_t)0xFFUL) << _BIT_SHIFT(IRQn)));
 8001b8a:	683b      	ldr	r3, [r7, #0]
 8001b8c:	019b      	lsls	r3, r3, #6
 8001b8e:	22ff      	movs	r2, #255	@ 0xff
 8001b90:	401a      	ands	r2, r3
 8001b92:	1dfb      	adds	r3, r7, #7
 8001b94:	781b      	ldrb	r3, [r3, #0]
 8001b96:	0018      	movs	r0, r3
 8001b98:	2303      	movs	r3, #3
 8001b9a:	4003      	ands	r3, r0
 8001b9c:	00db      	lsls	r3, r3, #3
 8001b9e:	409a      	lsls	r2, r3
    SCB->SHP[_SHP_IDX(IRQn)] = ((uint32_t)(SCB->SHP[_SHP_IDX(IRQn)] & ~(0xFFUL << _BIT_SHIFT(IRQn))) |
 8001ba0:	4809      	ldr	r0, [pc, #36]	@ (8001bc8 <__NVIC_SetPriority+0xd8>)
 8001ba2:	1dfb      	adds	r3, r7, #7
 8001ba4:	781b      	ldrb	r3, [r3, #0]
 8001ba6:	001c      	movs	r4, r3
 8001ba8:	230f      	movs	r3, #15
 8001baa:	4023      	ands	r3, r4
 8001bac:	3b08      	subs	r3, #8
 8001bae:	089b      	lsrs	r3, r3, #2
 8001bb0:	430a      	orrs	r2, r1
 8001bb2:	3306      	adds	r3, #6
 8001bb4:	009b      	lsls	r3, r3, #2
 8001bb6:	18c3      	adds	r3, r0, r3
 8001bb8:	3304      	adds	r3, #4
 8001bba:	601a      	str	r2, [r3, #0]
}
 8001bbc:	46c0      	nop			@ (mov r8, r8)
 8001bbe:	46bd      	mov	sp, r7
 8001bc0:	b003      	add	sp, #12
 8001bc2:	bd90      	pop	{r4, r7, pc}
 8001bc4:	e000e100 	.word	0xe000e100
 8001bc8:	e000ed00 	.word	0xe000ed00

08001bcc <SysTick_Config>:
  \note    When the variable <b>__Vendor_SysTickConfig</b> is set to 1, then the
           function <b>SysTick_Config</b> is not included. In this case, the file <b><i>device</i>.h</b>
           must contain a vendor-specific implementation of this function.
 */
__STATIC_INLINE uint32_t SysTick_Config(uint32_t ticks)
{
 8001bcc:	b580      	push	{r7, lr}
 8001bce:	b082      	sub	sp, #8
 8001bd0:	af00      	add	r7, sp, #0
 8001bd2:	6078      	str	r0, [r7, #4]
  if ((ticks - 1UL) > SysTick_LOAD_RELOAD_Msk)
 8001bd4:	687b      	ldr	r3, [r7, #4]
 8001bd6:	1e5a      	subs	r2, r3, #1
 8001bd8:	2380      	movs	r3, #128	@ 0x80
 8001bda:	045b      	lsls	r3, r3, #17
 8001bdc:	429a      	cmp	r2, r3
 8001bde:	d301      	bcc.n	8001be4 <SysTick_Config+0x18>
  {
    return (1UL);                                                   /* Reload value impossible */
 8001be0:	2301      	movs	r3, #1
 8001be2:	e010      	b.n	8001c06 <SysTick_Config+0x3a>
  }

  SysTick->LOAD  = (uint32_t)(ticks - 1UL);                         /* set reload register */
 8001be4:	4b0a      	ldr	r3, [pc, #40]	@ (8001c10 <SysTick_Config+0x44>)
 8001be6:	687a      	ldr	r2, [r7, #4]
 8001be8:	3a01      	subs	r2, #1
 8001bea:	605a      	str	r2, [r3, #4]
  NVIC_SetPriority (SysTick_IRQn, (1UL << __NVIC_PRIO_BITS) - 1UL); /* set Priority for Systick Interrupt */
 8001bec:	2301      	movs	r3, #1
 8001bee:	425b      	negs	r3, r3
 8001bf0:	2103      	movs	r1, #3
 8001bf2:	0018      	movs	r0, r3
 8001bf4:	f7ff ff7c 	bl	8001af0 <__NVIC_SetPriority>
  SysTick->VAL   = 0UL;                                             /* Load the SysTick Counter Value */
 8001bf8:	4b05      	ldr	r3, [pc, #20]	@ (8001c10 <SysTick_Config+0x44>)
 8001bfa:	2200      	movs	r2, #0
 8001bfc:	609a      	str	r2, [r3, #8]
  SysTick->CTRL  = SysTick_CTRL_CLKSOURCE_Msk |
 8001bfe:	4b04      	ldr	r3, [pc, #16]	@ (8001c10 <SysTick_Config+0x44>)
 8001c00:	2207      	movs	r2, #7
 8001c02:	601a      	str	r2, [r3, #0]
                   SysTick_CTRL_TICKINT_Msk   |
                   SysTick_CTRL_ENABLE_Msk;                         /* Enable SysTick IRQ and SysTick Timer */
  return (0UL);                                                     /* Function successful */
 8001c04:	2300      	movs	r3, #0
}
 8001c06:	0018      	movs	r0, r3
 8001c08:	46bd      	mov	sp, r7
 8001c0a:	b002      	add	sp, #8
 8001c0c:	bd80      	pop	{r7, pc}
 8001c0e:	46c0      	nop			@ (mov r8, r8)
 8001c10:	e000e010 	.word	0xe000e010

08001c14 <HAL_NVIC_SetPriority>:
  *         with stm32f0xx devices, this parameter is a dummy value and it is ignored, because 
  *         no subpriority supported in Cortex M0 based products.   
  * @retval None
  */
void HAL_NVIC_SetPriority(IRQn_Type IRQn, uint32_t PreemptPriority, uint32_t SubPriority)
{
 8001c14:	b580      	push	{r7, lr}
 8001c16:	b084      	sub	sp, #16
 8001c18:	af00      	add	r7, sp, #0
 8001c1a:	60b9      	str	r1, [r7, #8]
 8001c1c:	607a      	str	r2, [r7, #4]
 8001c1e:	210f      	movs	r1, #15
 8001c20:	187b      	adds	r3, r7, r1
 8001c22:	1c02      	adds	r2, r0, #0
 8001c24:	701a      	strb	r2, [r3, #0]
  /* Check the parameters */
  assert_param(IS_NVIC_PREEMPTION_PRIORITY(PreemptPriority));
  NVIC_SetPriority(IRQn,PreemptPriority);
 8001c26:	68ba      	ldr	r2, [r7, #8]
 8001c28:	187b      	adds	r3, r7, r1
 8001c2a:	781b      	ldrb	r3, [r3, #0]
 8001c2c:	b25b      	sxtb	r3, r3
 8001c2e:	0011      	movs	r1, r2
 8001c30:	0018      	movs	r0, r3
 8001c32:	f7ff ff5d 	bl	8001af0 <__NVIC_SetPriority>

  /* Prevent unused argument(s) compilation warning */
  UNUSED(SubPriority);
}
 8001c36:	46c0      	nop			@ (mov r8, r8)
 8001c38:	46bd      	mov	sp, r7
 8001c3a:	b004      	add	sp, #16
 8001c3c:	bd80      	pop	{r7, pc}

08001c3e <HAL_NVIC_EnableIRQ>:
  *         This parameter can be an enumerator of IRQn_Type enumeration
  *         (For the complete STM32 Devices IRQ Channels list, please refer to the appropriate CMSIS device file (stm32f0xxxx.h))
  * @retval None
  */
void HAL_NVIC_EnableIRQ(IRQn_Type IRQn)
{
 8001c3e:	b580      	push	{r7, lr}
 8001c40:	b082      	sub	sp, #8
 8001c42:	af00      	add	r7, sp, #0
 8001c44:	0002      	movs	r2, r0
 8001c46:	1dfb      	adds	r3, r7, #7
 8001c48:	701a      	strb	r2, [r3, #0]
  /* Check the parameters */
  assert_param(IS_NVIC_DEVICE_IRQ(IRQn));
  
  /* Enable interrupt */
  NVIC_EnableIRQ(IRQn);
 8001c4a:	1dfb      	adds	r3, r7, #7
 8001c4c:	781b      	ldrb	r3, [r3, #0]
 8001c4e:	b25b      	sxtb	r3, r3
 8001c50:	0018      	movs	r0, r3
 8001c52:	f7ff ff33 	bl	8001abc <__NVIC_EnableIRQ>
}
 8001c56:	46c0      	nop			@ (mov r8, r8)
 8001c58:	46bd      	mov	sp, r7
 8001c5a:	b002      	add	sp, #8
 8001c5c:	bd80      	pop	{r7, pc}

08001c5e <HAL_SYSTICK_Config>:
  * @param  TicksNumb Specifies the ticks Number of ticks between two interrupts.
  * @retval status:  - 0  Function succeeded.
  *                  - 1  Function failed.
  */
uint32_t HAL_SYSTICK_Config(uint32_t TicksNumb)
{
 8001c5e:	b580      	push	{r7, lr}
 8001c60:	b082      	sub	sp, #8
 8001c62:	af00      	add	r7, sp, #0
 8001c64:	6078      	str	r0, [r7, #4]
   return SysTick_Config(TicksNumb);
 8001c66:	687b      	ldr	r3, [r7, #4]
 8001c68:	0018      	movs	r0, r3
 8001c6a:	f7ff ffaf 	bl	8001bcc <SysTick_Config>
 8001c6e:	0003      	movs	r3, r0
}
 8001c70:	0018      	movs	r0, r3
 8001c72:	46bd      	mov	sp, r7
 8001c74:	b002      	add	sp, #8
 8001c76:	bd80      	pop	{r7, pc}

08001c78 <HAL_GPIO_Init>:
  * @param  GPIO_Init pointer to a GPIO_InitTypeDef structure that contains
  *         the configuration information for the specified GPIO peripheral.
  * @retval None
  */
void HAL_GPIO_Init(GPIO_TypeDef  *GPIOx, GPIO_InitTypeDef *GPIO_Init)
{
 8001c78:	b580      	push	{r7, lr}
 8001c7a:	b086      	sub	sp, #24
 8001c7c:	af00      	add	r7, sp, #0
 8001c7e:	6078      	str	r0, [r7, #4]
 8001c80:	6039      	str	r1, [r7, #0]
  uint32_t position = 0x00u;
 8001c82:	2300      	movs	r3, #0
 8001c84:	617b      	str	r3, [r7, #20]
  assert_param(IS_GPIO_ALL_INSTANCE(GPIOx));
  assert_param(IS_GPIO_PIN(GPIO_Init->Pin));
  assert_param(IS_GPIO_MODE(GPIO_Init->Mode));

  /* Configure the port pins */
  while (((GPIO_Init->Pin) >> position) != 0x00u)
 8001c86:	e14f      	b.n	8001f28 <HAL_GPIO_Init+0x2b0>
  {
    /* Get current io position */
    iocurrent = (GPIO_Init->Pin) & (1uL << position);
 8001c88:	683b      	ldr	r3, [r7, #0]
 8001c8a:	681b      	ldr	r3, [r3, #0]
 8001c8c:	2101      	movs	r1, #1
 8001c8e:	697a      	ldr	r2, [r7, #20]
 8001c90:	4091      	lsls	r1, r2
 8001c92:	000a      	movs	r2, r1
 8001c94:	4013      	ands	r3, r2
 8001c96:	60fb      	str	r3, [r7, #12]

    if (iocurrent != 0x00u)
 8001c98:	68fb      	ldr	r3, [r7, #12]
 8001c9a:	2b00      	cmp	r3, #0
 8001c9c:	d100      	bne.n	8001ca0 <HAL_GPIO_Init+0x28>
 8001c9e:	e140      	b.n	8001f22 <HAL_GPIO_Init+0x2aa>
    {
      /*--------------------- GPIO Mode Configuration ------------------------*/
      /* In case of Output or Alternate function mode selection */
      if(((GPIO_Init->Mode & GPIO_MODE) == MODE_OUTPUT) ||
 8001ca0:	683b      	ldr	r3, [r7, #0]
 8001ca2:	685b      	ldr	r3, [r3, #4]
 8001ca4:	2203      	movs	r2, #3
 8001ca6:	4013      	ands	r3, r2
 8001ca8:	2b01      	cmp	r3, #1
 8001caa:	d005      	beq.n	8001cb8 <HAL_GPIO_Init+0x40>
         ((GPIO_Init->Mode & GPIO_MODE) == MODE_AF))
 8001cac:	683b      	ldr	r3, [r7, #0]
 8001cae:	685b      	ldr	r3, [r3, #4]
 8001cb0:	2203      	movs	r2, #3
 8001cb2:	4013      	ands	r3, r2
      if(((GPIO_Init->Mode & GPIO_MODE) == MODE_OUTPUT) ||
 8001cb4:	2b02      	cmp	r3, #2
 8001cb6:	d130      	bne.n	8001d1a <HAL_GPIO_Init+0xa2>
      {
        /* Check the Speed parameter */
        assert_param(IS_GPIO_SPEED(GPIO_Init->Speed));
        /* Configure the IO Speed */
        temp = GPIOx->OSPEEDR;
 8001cb8:	687b      	ldr	r3, [r7, #4]
 8001cba:	689b      	ldr	r3, [r3, #8]
 8001cbc:	613b      	str	r3, [r7, #16]
        temp &= ~(GPIO_OSPEEDER_OSPEEDR0 << (position * 2u));
 8001cbe:	697b      	ldr	r3, [r7, #20]
 8001cc0:	005b      	lsls	r3, r3, #1
 8001cc2:	2203      	movs	r2, #3
 8001cc4:	409a      	lsls	r2, r3
 8001cc6:	0013      	movs	r3, r2
 8001cc8:	43da      	mvns	r2, r3
 8001cca:	693b      	ldr	r3, [r7, #16]
 8001ccc:	4013      	ands	r3, r2
 8001cce:	613b      	str	r3, [r7, #16]
        temp |= (GPIO_Init->Speed << (position * 2u));
 8001cd0:	683b      	ldr	r3, [r7, #0]
 8001cd2:	68da      	ldr	r2, [r3, #12]
 8001cd4:	697b      	ldr	r3, [r7, #20]
 8001cd6:	005b      	lsls	r3, r3, #1
 8001cd8:	409a      	lsls	r2, r3
 8001cda:	0013      	movs	r3, r2
 8001cdc:	693a      	ldr	r2, [r7, #16]
 8001cde:	4313      	orrs	r3, r2
 8001ce0:	613b      	str	r3, [r7, #16]
        GPIOx->OSPEEDR = temp;
 8001ce2:	687b      	ldr	r3, [r7, #4]
 8001ce4:	693a      	ldr	r2, [r7, #16]
 8001ce6:	609a      	str	r2, [r3, #8]

        /* Configure the IO Output Type */
        temp = GPIOx->OTYPER;
 8001ce8:	687b      	ldr	r3, [r7, #4]
 8001cea:	685b      	ldr	r3, [r3, #4]
 8001cec:	613b      	str	r3, [r7, #16]
        temp &= ~(GPIO_OTYPER_OT_0 << position) ;
 8001cee:	2201      	movs	r2, #1
 8001cf0:	697b      	ldr	r3, [r7, #20]
 8001cf2:	409a      	lsls	r2, r3
 8001cf4:	0013      	movs	r3, r2
 8001cf6:	43da      	mvns	r2, r3
 8001cf8:	693b      	ldr	r3, [r7, #16]
 8001cfa:	4013      	ands	r3, r2
 8001cfc:	613b      	str	r3, [r7, #16]
        temp |= (((GPIO_Init->Mode & OUTPUT_TYPE) >> OUTPUT_TYPE_Pos) << position);
 8001cfe:	683b      	ldr	r3, [r7, #0]
 8001d00:	685b      	ldr	r3, [r3, #4]
 8001d02:	091b      	lsrs	r3, r3, #4
 8001d04:	2201      	movs	r2, #1
 8001d06:	401a      	ands	r2, r3
 8001d08:	697b      	ldr	r3, [r7, #20]
 8001d0a:	409a      	lsls	r2, r3
 8001d0c:	0013      	movs	r3, r2
 8001d0e:	693a      	ldr	r2, [r7, #16]
 8001d10:	4313      	orrs	r3, r2
 8001d12:	613b      	str	r3, [r7, #16]
        GPIOx->OTYPER = temp;
 8001d14:	687b      	ldr	r3, [r7, #4]
 8001d16:	693a      	ldr	r2, [r7, #16]
 8001d18:	605a      	str	r2, [r3, #4]
      }
      
      if((GPIO_Init->Mode & GPIO_MODE) != MODE_ANALOG)
 8001d1a:	683b      	ldr	r3, [r7, #0]
 8001d1c:	685b      	ldr	r3, [r3, #4]
 8001d1e:	2203      	movs	r2, #3
 8001d20:	4013      	ands	r3, r2
 8001d22:	2b03      	cmp	r3, #3
 8001d24:	d017      	beq.n	8001d56 <HAL_GPIO_Init+0xde>
      {
        /* Check the Pull parameter */
        assert_param(IS_GPIO_PULL(GPIO_Init->Pull));

        /* Activate the Pull-up or Pull down resistor for the current IO */
        temp = GPIOx->PUPDR;
 8001d26:	687b      	ldr	r3, [r7, #4]
 8001d28:	68db      	ldr	r3, [r3, #12]
 8001d2a:	613b      	str	r3, [r7, #16]
        temp &= ~(GPIO_PUPDR_PUPDR0 << (position * 2u));
 8001d2c:	697b      	ldr	r3, [r7, #20]
 8001d2e:	005b      	lsls	r3, r3, #1
 8001d30:	2203      	movs	r2, #3
 8001d32:	409a      	lsls	r2, r3
 8001d34:	0013      	movs	r3, r2
 8001d36:	43da      	mvns	r2, r3
 8001d38:	693b      	ldr	r3, [r7, #16]
 8001d3a:	4013      	ands	r3, r2
 8001d3c:	613b      	str	r3, [r7, #16]
        temp |= ((GPIO_Init->Pull) << (position * 2u));
 8001d3e:	683b      	ldr	r3, [r7, #0]
 8001d40:	689a      	ldr	r2, [r3, #8]
 8001d42:	697b      	ldr	r3, [r7, #20]
 8001d44:	005b      	lsls	r3, r3, #1
 8001d46:	409a      	lsls	r2, r3
 8001d48:	0013      	movs	r3, r2
 8001d4a:	693a      	ldr	r2, [r7, #16]
 8001d4c:	4313      	orrs	r3, r2
 8001d4e:	613b      	str	r3, [r7, #16]
        GPIOx->PUPDR = temp;
 8001d50:	687b      	ldr	r3, [r7, #4]
 8001d52:	693a      	ldr	r2, [r7, #16]
 8001d54:	60da      	str	r2, [r3, #12]
      }

      /* In case of Alternate function mode selection */
      if((GPIO_Init->Mode & GPIO_MODE) == MODE_AF)
 8001d56:	683b      	ldr	r3, [r7, #0]
 8001d58:	685b      	ldr	r3, [r3, #4]
 8001d5a:	2203      	movs	r2, #3
 8001d5c:	4013      	ands	r3, r2
 8001d5e:	2b02      	cmp	r3, #2
 8001d60:	d123      	bne.n	8001daa <HAL_GPIO_Init+0x132>
        /* Check the Alternate function parameters */
        assert_param(IS_GPIO_AF_INSTANCE(GPIOx));
        assert_param(IS_GPIO_AF(GPIO_Init->Alternate));

        /* Configure Alternate function mapped with the current IO */
        temp = GPIOx->AFR[position >> 3u];
 8001d62:	697b      	ldr	r3, [r7, #20]
 8001d64:	08da      	lsrs	r2, r3, #3
 8001d66:	687b      	ldr	r3, [r7, #4]
 8001d68:	3208      	adds	r2, #8
 8001d6a:	0092      	lsls	r2, r2, #2
 8001d6c:	58d3      	ldr	r3, [r2, r3]
 8001d6e:	613b      	str	r3, [r7, #16]
        temp &= ~(0xFu << ((position & 0x07u) * 4u));
 8001d70:	697b      	ldr	r3, [r7, #20]
 8001d72:	2207      	movs	r2, #7
 8001d74:	4013      	ands	r3, r2
 8001d76:	009b      	lsls	r3, r3, #2
 8001d78:	220f      	movs	r2, #15
 8001d7a:	409a      	lsls	r2, r3
 8001d7c:	0013      	movs	r3, r2
 8001d7e:	43da      	mvns	r2, r3
 8001d80:	693b      	ldr	r3, [r7, #16]
 8001d82:	4013      	ands	r3, r2
 8001d84:	613b      	str	r3, [r7, #16]
        temp |= ((GPIO_Init->Alternate) << ((position & 0x07u) * 4u));
 8001d86:	683b      	ldr	r3, [r7, #0]
 8001d88:	691a      	ldr	r2, [r3, #16]
 8001d8a:	697b      	ldr	r3, [r7, #20]
 8001d8c:	2107      	movs	r1, #7
 8001d8e:	400b      	ands	r3, r1
 8001d90:	009b      	lsls	r3, r3, #2
 8001d92:	409a      	lsls	r2, r3
 8001d94:	0013      	movs	r3, r2
 8001d96:	693a      	ldr	r2, [r7, #16]
 8001d98:	4313      	orrs	r3, r2
 8001d9a:	613b      	str	r3, [r7, #16]
        GPIOx->AFR[position >> 3u] = temp;
 8001d9c:	697b      	ldr	r3, [r7, #20]
 8001d9e:	08da      	lsrs	r2, r3, #3
 8001da0:	687b      	ldr	r3, [r7, #4]
 8001da2:	3208      	adds	r2, #8
 8001da4:	0092      	lsls	r2, r2, #2
 8001da6:	6939      	ldr	r1, [r7, #16]
 8001da8:	50d1      	str	r1, [r2, r3]
      }

      /* Configure IO Direction mode (Input, Output, Alternate or Analog) */
      temp = GPIOx->MODER;
 8001daa:	687b      	ldr	r3, [r7, #4]
 8001dac:	681b      	ldr	r3, [r3, #0]
 8001dae:	613b      	str	r3, [r7, #16]
      temp &= ~(GPIO_MODER_MODER0 << (position * 2u));
 8001db0:	697b      	ldr	r3, [r7, #20]
 8001db2:	005b      	lsls	r3, r3, #1
 8001db4:	2203      	movs	r2, #3
 8001db6:	409a      	lsls	r2, r3
 8001db8:	0013      	movs	r3, r2
 8001dba:	43da      	mvns	r2, r3
 8001dbc:	693b      	ldr	r3, [r7, #16]
 8001dbe:	4013      	ands	r3, r2
 8001dc0:	613b      	str	r3, [r7, #16]
      temp |= ((GPIO_Init->Mode & GPIO_MODE) << (position * 2u));
 8001dc2:	683b      	ldr	r3, [r7, #0]
 8001dc4:	685b      	ldr	r3, [r3, #4]
 8001dc6:	2203      	movs	r2, #3
 8001dc8:	401a      	ands	r2, r3
 8001dca:	697b      	ldr	r3, [r7, #20]
 8001dcc:	005b      	lsls	r3, r3, #1
 8001dce:	409a      	lsls	r2, r3
 8001dd0:	0013      	movs	r3, r2
 8001dd2:	693a      	ldr	r2, [r7, #16]
 8001dd4:	4313      	orrs	r3, r2
 8001dd6:	613b      	str	r3, [r7, #16]
      GPIOx->MODER = temp;
 8001dd8:	687b      	ldr	r3, [r7, #4]
 8001dda:	693a      	ldr	r2, [r7, #16]
 8001ddc:	601a      	str	r2, [r3, #0]

      /*--------------------- EXTI Mode Configuration ------------------------*/
      /* Configure the External Interrupt or event for the current IO */
      if((GPIO_Init->Mode & EXTI_MODE) != 0x00u)
 8001dde:	683b      	ldr	r3, [r7, #0]
 8001de0:	685a      	ldr	r2, [r3, #4]
 8001de2:	23c0      	movs	r3, #192	@ 0xc0
 8001de4:	029b      	lsls	r3, r3, #10
 8001de6:	4013      	ands	r3, r2
 8001de8:	d100      	bne.n	8001dec <HAL_GPIO_Init+0x174>
 8001dea:	e09a      	b.n	8001f22 <HAL_GPIO_Init+0x2aa>
      {
        /* Enable SYSCFG Clock */
        __HAL_RCC_SYSCFG_CLK_ENABLE();
 8001dec:	4b54      	ldr	r3, [pc, #336]	@ (8001f40 <HAL_GPIO_Init+0x2c8>)
 8001dee:	699a      	ldr	r2, [r3, #24]
 8001df0:	4b53      	ldr	r3, [pc, #332]	@ (8001f40 <HAL_GPIO_Init+0x2c8>)
 8001df2:	2101      	movs	r1, #1
 8001df4:	430a      	orrs	r2, r1
 8001df6:	619a      	str	r2, [r3, #24]
 8001df8:	4b51      	ldr	r3, [pc, #324]	@ (8001f40 <HAL_GPIO_Init+0x2c8>)
 8001dfa:	699b      	ldr	r3, [r3, #24]
 8001dfc:	2201      	movs	r2, #1
 8001dfe:	4013      	ands	r3, r2
 8001e00:	60bb      	str	r3, [r7, #8]
 8001e02:	68bb      	ldr	r3, [r7, #8]

        temp = SYSCFG->EXTICR[position >> 2u];
 8001e04:	4a4f      	ldr	r2, [pc, #316]	@ (8001f44 <HAL_GPIO_Init+0x2cc>)
 8001e06:	697b      	ldr	r3, [r7, #20]
 8001e08:	089b      	lsrs	r3, r3, #2
 8001e0a:	3302      	adds	r3, #2
 8001e0c:	009b      	lsls	r3, r3, #2
 8001e0e:	589b      	ldr	r3, [r3, r2]
 8001e10:	613b      	str	r3, [r7, #16]
        temp &= ~(0x0FuL << (4u * (position & 0x03u)));
 8001e12:	697b      	ldr	r3, [r7, #20]
 8001e14:	2203      	movs	r2, #3
 8001e16:	4013      	ands	r3, r2
 8001e18:	009b      	lsls	r3, r3, #2
 8001e1a:	220f      	movs	r2, #15
 8001e1c:	409a      	lsls	r2, r3
 8001e1e:	0013      	movs	r3, r2
 8001e20:	43da      	mvns	r2, r3
 8001e22:	693b      	ldr	r3, [r7, #16]
 8001e24:	4013      	ands	r3, r2
 8001e26:	613b      	str	r3, [r7, #16]
        temp |= (GPIO_GET_INDEX(GPIOx) << (4u * (position & 0x03u)));
 8001e28:	687a      	ldr	r2, [r7, #4]
 8001e2a:	2390      	movs	r3, #144	@ 0x90
 8001e2c:	05db      	lsls	r3, r3, #23
 8001e2e:	429a      	cmp	r2, r3
 8001e30:	d013      	beq.n	8001e5a <HAL_GPIO_Init+0x1e2>
 8001e32:	687b      	ldr	r3, [r7, #4]
 8001e34:	4a44      	ldr	r2, [pc, #272]	@ (8001f48 <HAL_GPIO_Init+0x2d0>)
 8001e36:	4293      	cmp	r3, r2
 8001e38:	d00d      	beq.n	8001e56 <HAL_GPIO_Init+0x1de>
 8001e3a:	687b      	ldr	r3, [r7, #4]
 8001e3c:	4a43      	ldr	r2, [pc, #268]	@ (8001f4c <HAL_GPIO_Init+0x2d4>)
 8001e3e:	4293      	cmp	r3, r2
 8001e40:	d007      	beq.n	8001e52 <HAL_GPIO_Init+0x1da>
 8001e42:	687b      	ldr	r3, [r7, #4]
 8001e44:	4a42      	ldr	r2, [pc, #264]	@ (8001f50 <HAL_GPIO_Init+0x2d8>)
 8001e46:	4293      	cmp	r3, r2
 8001e48:	d101      	bne.n	8001e4e <HAL_GPIO_Init+0x1d6>
 8001e4a:	2303      	movs	r3, #3
 8001e4c:	e006      	b.n	8001e5c <HAL_GPIO_Init+0x1e4>
 8001e4e:	2305      	movs	r3, #5
 8001e50:	e004      	b.n	8001e5c <HAL_GPIO_Init+0x1e4>
 8001e52:	2302      	movs	r3, #2
 8001e54:	e002      	b.n	8001e5c <HAL_GPIO_Init+0x1e4>
 8001e56:	2301      	movs	r3, #1
 8001e58:	e000      	b.n	8001e5c <HAL_GPIO_Init+0x1e4>
 8001e5a:	2300      	movs	r3, #0
 8001e5c:	697a      	ldr	r2, [r7, #20]
 8001e5e:	2103      	movs	r1, #3
 8001e60:	400a      	ands	r2, r1
 8001e62:	0092      	lsls	r2, r2, #2
 8001e64:	4093      	lsls	r3, r2
 8001e66:	693a      	ldr	r2, [r7, #16]
 8001e68:	4313      	orrs	r3, r2
 8001e6a:	613b      	str	r3, [r7, #16]
        SYSCFG->EXTICR[position >> 2u] = temp;
 8001e6c:	4935      	ldr	r1, [pc, #212]	@ (8001f44 <HAL_GPIO_Init+0x2cc>)
 8001e6e:	697b      	ldr	r3, [r7, #20]
 8001e70:	089b      	lsrs	r3, r3, #2
 8001e72:	3302      	adds	r3, #2
 8001e74:	009b      	lsls	r3, r3, #2
 8001e76:	693a      	ldr	r2, [r7, #16]
 8001e78:	505a      	str	r2, [r3, r1]

        /* Clear Rising Falling edge configuration */
        temp = EXTI->RTSR;
 8001e7a:	4b36      	ldr	r3, [pc, #216]	@ (8001f54 <HAL_GPIO_Init+0x2dc>)
 8001e7c:	689b      	ldr	r3, [r3, #8]
 8001e7e:	613b      	str	r3, [r7, #16]
        temp &= ~(iocurrent);
 8001e80:	68fb      	ldr	r3, [r7, #12]
 8001e82:	43da      	mvns	r2, r3
 8001e84:	693b      	ldr	r3, [r7, #16]
 8001e86:	4013      	ands	r3, r2
 8001e88:	613b      	str	r3, [r7, #16]
        if((GPIO_Init->Mode & TRIGGER_RISING) != 0x00u)
 8001e8a:	683b      	ldr	r3, [r7, #0]
 8001e8c:	685a      	ldr	r2, [r3, #4]
 8001e8e:	2380      	movs	r3, #128	@ 0x80
 8001e90:	035b      	lsls	r3, r3, #13
 8001e92:	4013      	ands	r3, r2
 8001e94:	d003      	beq.n	8001e9e <HAL_GPIO_Init+0x226>
        {
          temp |= iocurrent;
 8001e96:	693a      	ldr	r2, [r7, #16]
 8001e98:	68fb      	ldr	r3, [r7, #12]
 8001e9a:	4313      	orrs	r3, r2
 8001e9c:	613b      	str	r3, [r7, #16]
        }
        EXTI->RTSR = temp;
 8001e9e:	4b2d      	ldr	r3, [pc, #180]	@ (8001f54 <HAL_GPIO_Init+0x2dc>)
 8001ea0:	693a      	ldr	r2, [r7, #16]
 8001ea2:	609a      	str	r2, [r3, #8]

        temp = EXTI->FTSR;
 8001ea4:	4b2b      	ldr	r3, [pc, #172]	@ (8001f54 <HAL_GPIO_Init+0x2dc>)
 8001ea6:	68db      	ldr	r3, [r3, #12]
 8001ea8:	613b      	str	r3, [r7, #16]
        temp &= ~(iocurrent);
 8001eaa:	68fb      	ldr	r3, [r7, #12]
 8001eac:	43da      	mvns	r2, r3
 8001eae:	693b      	ldr	r3, [r7, #16]
 8001eb0:	4013      	ands	r3, r2
 8001eb2:	613b      	str	r3, [r7, #16]
        if((GPIO_Init->Mode & TRIGGER_FALLING) != 0x00u)
 8001eb4:	683b      	ldr	r3, [r7, #0]
 8001eb6:	685a      	ldr	r2, [r3, #4]
 8001eb8:	2380      	movs	r3, #128	@ 0x80
 8001eba:	039b      	lsls	r3, r3, #14
 8001ebc:	4013      	ands	r3, r2
 8001ebe:	d003      	beq.n	8001ec8 <HAL_GPIO_Init+0x250>
        {
          temp |= iocurrent;
 8001ec0:	693a      	ldr	r2, [r7, #16]
 8001ec2:	68fb      	ldr	r3, [r7, #12]
 8001ec4:	4313      	orrs	r3, r2
 8001ec6:	613b      	str	r3, [r7, #16]
        }
        EXTI->FTSR = temp;
 8001ec8:	4b22      	ldr	r3, [pc, #136]	@ (8001f54 <HAL_GPIO_Init+0x2dc>)
 8001eca:	693a      	ldr	r2, [r7, #16]
 8001ecc:	60da      	str	r2, [r3, #12]

        /* Clear EXTI line configuration */
        temp = EXTI->EMR;
 8001ece:	4b21      	ldr	r3, [pc, #132]	@ (8001f54 <HAL_GPIO_Init+0x2dc>)
 8001ed0:	685b      	ldr	r3, [r3, #4]
 8001ed2:	613b      	str	r3, [r7, #16]
        temp &= ~(iocurrent);
 8001ed4:	68fb      	ldr	r3, [r7, #12]
 8001ed6:	43da      	mvns	r2, r3
 8001ed8:	693b      	ldr	r3, [r7, #16]
 8001eda:	4013      	ands	r3, r2
 8001edc:	613b      	str	r3, [r7, #16]
        if((GPIO_Init->Mode & EXTI_EVT) != 0x00u)
 8001ede:	683b      	ldr	r3, [r7, #0]
 8001ee0:	685a      	ldr	r2, [r3, #4]
 8001ee2:	2380      	movs	r3, #128	@ 0x80
 8001ee4:	029b      	lsls	r3, r3, #10
 8001ee6:	4013      	ands	r3, r2
 8001ee8:	d003      	beq.n	8001ef2 <HAL_GPIO_Init+0x27a>
        {
          temp |= iocurrent;
 8001eea:	693a      	ldr	r2, [r7, #16]
 8001eec:	68fb      	ldr	r3, [r7, #12]
 8001eee:	4313      	orrs	r3, r2
 8001ef0:	613b      	str	r3, [r7, #16]
        }
        EXTI->EMR = temp;
 8001ef2:	4b18      	ldr	r3, [pc, #96]	@ (8001f54 <HAL_GPIO_Init+0x2dc>)
 8001ef4:	693a      	ldr	r2, [r7, #16]
 8001ef6:	605a      	str	r2, [r3, #4]

        temp = EXTI->IMR;
 8001ef8:	4b16      	ldr	r3, [pc, #88]	@ (8001f54 <HAL_GPIO_Init+0x2dc>)
 8001efa:	681b      	ldr	r3, [r3, #0]
 8001efc:	613b      	str	r3, [r7, #16]
        temp &= ~(iocurrent);
 8001efe:	68fb      	ldr	r3, [r7, #12]
 8001f00:	43da      	mvns	r2, r3
 8001f02:	693b      	ldr	r3, [r7, #16]
 8001f04:	4013      	ands	r3, r2
 8001f06:	613b      	str	r3, [r7, #16]
        if((GPIO_Init->Mode & EXTI_IT) != 0x00u)
 8001f08:	683b      	ldr	r3, [r7, #0]
 8001f0a:	685a      	ldr	r2, [r3, #4]
 8001f0c:	2380      	movs	r3, #128	@ 0x80
 8001f0e:	025b      	lsls	r3, r3, #9
 8001f10:	4013      	ands	r3, r2
 8001f12:	d003      	beq.n	8001f1c <HAL_GPIO_Init+0x2a4>
        {
          temp |= iocurrent;
 8001f14:	693a      	ldr	r2, [r7, #16]
 8001f16:	68fb      	ldr	r3, [r7, #12]
 8001f18:	4313      	orrs	r3, r2
 8001f1a:	613b      	str	r3, [r7, #16]
        }
        EXTI->IMR = temp;
 8001f1c:	4b0d      	ldr	r3, [pc, #52]	@ (8001f54 <HAL_GPIO_Init+0x2dc>)
 8001f1e:	693a      	ldr	r2, [r7, #16]
 8001f20:	601a      	str	r2, [r3, #0]
      }
    }

    position++;
 8001f22:	697b      	ldr	r3, [r7, #20]
 8001f24:	3301      	adds	r3, #1
 8001f26:	617b      	str	r3, [r7, #20]
  while (((GPIO_Init->Pin) >> position) != 0x00u)
 8001f28:	683b      	ldr	r3, [r7, #0]
 8001f2a:	681a      	ldr	r2, [r3, #0]
 8001f2c:	697b      	ldr	r3, [r7, #20]
 8001f2e:	40da      	lsrs	r2, r3
 8001f30:	1e13      	subs	r3, r2, #0
 8001f32:	d000      	beq.n	8001f36 <HAL_GPIO_Init+0x2be>
 8001f34:	e6a8      	b.n	8001c88 <HAL_GPIO_Init+0x10>
  } 
}
 8001f36:	46c0      	nop			@ (mov r8, r8)
 8001f38:	46c0      	nop			@ (mov r8, r8)
 8001f3a:	46bd      	mov	sp, r7
 8001f3c:	b006      	add	sp, #24
 8001f3e:	bd80      	pop	{r7, pc}
 8001f40:	40021000 	.word	0x40021000
 8001f44:	40010000 	.word	0x40010000
 8001f48:	48000400 	.word	0x48000400
 8001f4c:	48000800 	.word	0x48000800
 8001f50:	48000c00 	.word	0x48000c00
 8001f54:	40010400 	.word	0x40010400

08001f58 <HAL_I2C_Init>:
  * @param  hi2c Pointer to a I2C_HandleTypeDef structure that contains
  *                the configuration information for the specified I2C.
  * @retval HAL status
  */
HAL_StatusTypeDef HAL_I2C_Init(I2C_HandleTypeDef *hi2c)
{
 8001f58:	b580      	push	{r7, lr}
 8001f5a:	b082      	sub	sp, #8
 8001f5c:	af00      	add	r7, sp, #0
 8001f5e:	6078      	str	r0, [r7, #4]
  /* Check the I2C handle allocation */
  if (hi2c == NULL)
 8001f60:	687b      	ldr	r3, [r7, #4]
 8001f62:	2b00      	cmp	r3, #0
 8001f64:	d101      	bne.n	8001f6a <HAL_I2C_Init+0x12>
  {
    return HAL_ERROR;
 8001f66:	2301      	movs	r3, #1
 8001f68:	e08f      	b.n	800208a <HAL_I2C_Init+0x132>
  assert_param(IS_I2C_OWN_ADDRESS2(hi2c->Init.OwnAddress2));
  assert_param(IS_I2C_OWN_ADDRESS2_MASK(hi2c->Init.OwnAddress2Masks));
  assert_param(IS_I2C_GENERAL_CALL(hi2c->Init.GeneralCallMode));
  assert_param(IS_I2C_NO_STRETCH(hi2c->Init.NoStretchMode));

  if (hi2c->State == HAL_I2C_STATE_RESET)
 8001f6a:	687b      	ldr	r3, [r7, #4]
 8001f6c:	2241      	movs	r2, #65	@ 0x41
 8001f6e:	5c9b      	ldrb	r3, [r3, r2]
 8001f70:	b2db      	uxtb	r3, r3
 8001f72:	2b00      	cmp	r3, #0
 8001f74:	d107      	bne.n	8001f86 <HAL_I2C_Init+0x2e>
  {
    /* Allocate lock resource and initialize it */
    hi2c->Lock = HAL_UNLOCKED;
 8001f76:	687b      	ldr	r3, [r7, #4]
 8001f78:	2240      	movs	r2, #64	@ 0x40
 8001f7a:	2100      	movs	r1, #0
 8001f7c:	5499      	strb	r1, [r3, r2]

    /* Init the low level hardware : GPIO, CLOCK, CORTEX...etc */
    hi2c->MspInitCallback(hi2c);
#else
    /* Init the low level hardware : GPIO, CLOCK, CORTEX...etc */
    HAL_I2C_MspInit(hi2c);
 8001f7e:	687b      	ldr	r3, [r7, #4]
 8001f80:	0018      	movs	r0, r3
 8001f82:	f7ff fbd3 	bl	800172c <HAL_I2C_MspInit>
#endif /* USE_HAL_I2C_REGISTER_CALLBACKS */
  }

  hi2c->State = HAL_I2C_STATE_BUSY;
 8001f86:	687b      	ldr	r3, [r7, #4]
 8001f88:	2241      	movs	r2, #65	@ 0x41
 8001f8a:	2124      	movs	r1, #36	@ 0x24
 8001f8c:	5499      	strb	r1, [r3, r2]

  /* Disable the selected I2C peripheral */
  __HAL_I2C_DISABLE(hi2c);
 8001f8e:	687b      	ldr	r3, [r7, #4]
 8001f90:	681b      	ldr	r3, [r3, #0]
 8001f92:	681a      	ldr	r2, [r3, #0]
 8001f94:	687b      	ldr	r3, [r7, #4]
 8001f96:	681b      	ldr	r3, [r3, #0]
 8001f98:	2101      	movs	r1, #1
 8001f9a:	438a      	bics	r2, r1
 8001f9c:	601a      	str	r2, [r3, #0]

  /*---------------------------- I2Cx TIMINGR Configuration ------------------*/
  /* Configure I2Cx: Frequency range */
  hi2c->Instance->TIMINGR = hi2c->Init.Timing & TIMING_CLEAR_MASK;
 8001f9e:	687b      	ldr	r3, [r7, #4]
 8001fa0:	685a      	ldr	r2, [r3, #4]
 8001fa2:	687b      	ldr	r3, [r7, #4]
 8001fa4:	681b      	ldr	r3, [r3, #0]
 8001fa6:	493b      	ldr	r1, [pc, #236]	@ (8002094 <HAL_I2C_Init+0x13c>)
 8001fa8:	400a      	ands	r2, r1
 8001faa:	611a      	str	r2, [r3, #16]

  /*---------------------------- I2Cx OAR1 Configuration ---------------------*/
  /* Disable Own Address1 before set the Own Address1 configuration */
  hi2c->Instance->OAR1 &= ~I2C_OAR1_OA1EN;
 8001fac:	687b      	ldr	r3, [r7, #4]
 8001fae:	681b      	ldr	r3, [r3, #0]
 8001fb0:	689a      	ldr	r2, [r3, #8]
 8001fb2:	687b      	ldr	r3, [r7, #4]
 8001fb4:	681b      	ldr	r3, [r3, #0]
 8001fb6:	4938      	ldr	r1, [pc, #224]	@ (8002098 <HAL_I2C_Init+0x140>)
 8001fb8:	400a      	ands	r2, r1
 8001fba:	609a      	str	r2, [r3, #8]

  /* Configure I2Cx: Own Address1 and ack own address1 mode */
  if (hi2c->Init.AddressingMode == I2C_ADDRESSINGMODE_7BIT)
 8001fbc:	687b      	ldr	r3, [r7, #4]
 8001fbe:	68db      	ldr	r3, [r3, #12]
 8001fc0:	2b01      	cmp	r3, #1
 8001fc2:	d108      	bne.n	8001fd6 <HAL_I2C_Init+0x7e>
  {
    hi2c->Instance->OAR1 = (I2C_OAR1_OA1EN | hi2c->Init.OwnAddress1);
 8001fc4:	687b      	ldr	r3, [r7, #4]
 8001fc6:	689a      	ldr	r2, [r3, #8]
 8001fc8:	687b      	ldr	r3, [r7, #4]
 8001fca:	681b      	ldr	r3, [r3, #0]
 8001fcc:	2180      	movs	r1, #128	@ 0x80
 8001fce:	0209      	lsls	r1, r1, #8
 8001fd0:	430a      	orrs	r2, r1
 8001fd2:	609a      	str	r2, [r3, #8]
 8001fd4:	e007      	b.n	8001fe6 <HAL_I2C_Init+0x8e>
  }
  else /* I2C_ADDRESSINGMODE_10BIT */
  {
    hi2c->Instance->OAR1 = (I2C_OAR1_OA1EN | I2C_OAR1_OA1MODE | hi2c->Init.OwnAddress1);
 8001fd6:	687b      	ldr	r3, [r7, #4]
 8001fd8:	689a      	ldr	r2, [r3, #8]
 8001fda:	687b      	ldr	r3, [r7, #4]
 8001fdc:	681b      	ldr	r3, [r3, #0]
 8001fde:	2184      	movs	r1, #132	@ 0x84
 8001fe0:	0209      	lsls	r1, r1, #8
 8001fe2:	430a      	orrs	r2, r1
 8001fe4:	609a      	str	r2, [r3, #8]
  }

  /*---------------------------- I2Cx CR2 Configuration ----------------------*/
  /* Configure I2Cx: Addressing Master mode */
  if (hi2c->Init.AddressingMode == I2C_ADDRESSINGMODE_10BIT)
 8001fe6:	687b      	ldr	r3, [r7, #4]
 8001fe8:	68db      	ldr	r3, [r3, #12]
 8001fea:	2b02      	cmp	r3, #2
 8001fec:	d109      	bne.n	8002002 <HAL_I2C_Init+0xaa>
  {
    SET_BIT(hi2c->Instance->CR2, I2C_CR2_ADD10);
 8001fee:	687b      	ldr	r3, [r7, #4]
 8001ff0:	681b      	ldr	r3, [r3, #0]
 8001ff2:	685a      	ldr	r2, [r3, #4]
 8001ff4:	687b      	ldr	r3, [r7, #4]
 8001ff6:	681b      	ldr	r3, [r3, #0]
 8001ff8:	2180      	movs	r1, #128	@ 0x80
 8001ffa:	0109      	lsls	r1, r1, #4
 8001ffc:	430a      	orrs	r2, r1
 8001ffe:	605a      	str	r2, [r3, #4]
 8002000:	e007      	b.n	8002012 <HAL_I2C_Init+0xba>
  }
  else
  {
    /* Clear the I2C ADD10 bit */
    CLEAR_BIT(hi2c->Instance->CR2, I2C_CR2_ADD10);
 8002002:	687b      	ldr	r3, [r7, #4]
 8002004:	681b      	ldr	r3, [r3, #0]
 8002006:	685a      	ldr	r2, [r3, #4]
 8002008:	687b      	ldr	r3, [r7, #4]
 800200a:	681b      	ldr	r3, [r3, #0]
 800200c:	4923      	ldr	r1, [pc, #140]	@ (800209c <HAL_I2C_Init+0x144>)
 800200e:	400a      	ands	r2, r1
 8002010:	605a      	str	r2, [r3, #4]
  }
  /* Enable the AUTOEND by default, and enable NACK (should be disable only during Slave process */
  hi2c->Instance->CR2 |= (I2C_CR2_AUTOEND | I2C_CR2_NACK);
 8002012:	687b      	ldr	r3, [r7, #4]
 8002014:	681b      	ldr	r3, [r3, #0]
 8002016:	685a      	ldr	r2, [r3, #4]
 8002018:	687b      	ldr	r3, [r7, #4]
 800201a:	681b      	ldr	r3, [r3, #0]
 800201c:	4920      	ldr	r1, [pc, #128]	@ (80020a0 <HAL_I2C_Init+0x148>)
 800201e:	430a      	orrs	r2, r1
 8002020:	605a      	str	r2, [r3, #4]

  /*---------------------------- I2Cx OAR2 Configuration ---------------------*/
  /* Disable Own Address2 before set the Own Address2 configuration */
  hi2c->Instance->OAR2 &= ~I2C_DUALADDRESS_ENABLE;
 8002022:	687b      	ldr	r3, [r7, #4]
 8002024:	681b      	ldr	r3, [r3, #0]
 8002026:	68da      	ldr	r2, [r3, #12]
 8002028:	687b      	ldr	r3, [r7, #4]
 800202a:	681b      	ldr	r3, [r3, #0]
 800202c:	491a      	ldr	r1, [pc, #104]	@ (8002098 <HAL_I2C_Init+0x140>)
 800202e:	400a      	ands	r2, r1
 8002030:	60da      	str	r2, [r3, #12]

  /* Configure I2Cx: Dual mode and Own Address2 */
  hi2c->Instance->OAR2 = (hi2c->Init.DualAddressMode | hi2c->Init.OwnAddress2 | \
 8002032:	687b      	ldr	r3, [r7, #4]
 8002034:	691a      	ldr	r2, [r3, #16]
 8002036:	687b      	ldr	r3, [r7, #4]
 8002038:	695b      	ldr	r3, [r3, #20]
 800203a:	431a      	orrs	r2, r3
 800203c:	0011      	movs	r1, r2
                          (hi2c->Init.OwnAddress2Masks << 8));
 800203e:	687b      	ldr	r3, [r7, #4]
 8002040:	699b      	ldr	r3, [r3, #24]
 8002042:	021a      	lsls	r2, r3, #8
  hi2c->Instance->OAR2 = (hi2c->Init.DualAddressMode | hi2c->Init.OwnAddress2 | \
 8002044:	687b      	ldr	r3, [r7, #4]
 8002046:	681b      	ldr	r3, [r3, #0]
 8002048:	430a      	orrs	r2, r1
 800204a:	60da      	str	r2, [r3, #12]

  /*---------------------------- I2Cx CR1 Configuration ----------------------*/
  /* Configure I2Cx: Generalcall and NoStretch mode */
  hi2c->Instance->CR1 = (hi2c->Init.GeneralCallMode | hi2c->Init.NoStretchMode);
 800204c:	687b      	ldr	r3, [r7, #4]
 800204e:	69d9      	ldr	r1, [r3, #28]
 8002050:	687b      	ldr	r3, [r7, #4]
 8002052:	6a1a      	ldr	r2, [r3, #32]
 8002054:	687b      	ldr	r3, [r7, #4]
 8002056:	681b      	ldr	r3, [r3, #0]
 8002058:	430a      	orrs	r2, r1
 800205a:	601a      	str	r2, [r3, #0]

  /* Enable the selected I2C peripheral */
  __HAL_I2C_ENABLE(hi2c);
 800205c:	687b      	ldr	r3, [r7, #4]
 800205e:	681b      	ldr	r3, [r3, #0]
 8002060:	681a      	ldr	r2, [r3, #0]
 8002062:	687b      	ldr	r3, [r7, #4]
 8002064:	681b      	ldr	r3, [r3, #0]
 8002066:	2101      	movs	r1, #1
 8002068:	430a      	orrs	r2, r1
 800206a:	601a      	str	r2, [r3, #0]

  hi2c->ErrorCode = HAL_I2C_ERROR_NONE;
 800206c:	687b      	ldr	r3, [r7, #4]
 800206e:	2200      	movs	r2, #0
 8002070:	645a      	str	r2, [r3, #68]	@ 0x44
  hi2c->State = HAL_I2C_STATE_READY;
 8002072:	687b      	ldr	r3, [r7, #4]
 8002074:	2241      	movs	r2, #65	@ 0x41
 8002076:	2120      	movs	r1, #32
 8002078:	5499      	strb	r1, [r3, r2]
  hi2c->PreviousState = I2C_STATE_NONE;
 800207a:	687b      	ldr	r3, [r7, #4]
 800207c:	2200      	movs	r2, #0
 800207e:	631a      	str	r2, [r3, #48]	@ 0x30
  hi2c->Mode = HAL_I2C_MODE_NONE;
 8002080:	687b      	ldr	r3, [r7, #4]
 8002082:	2242      	movs	r2, #66	@ 0x42
 8002084:	2100      	movs	r1, #0
 8002086:	5499      	strb	r1, [r3, r2]

  return HAL_OK;
 8002088:	2300      	movs	r3, #0
}
 800208a:	0018      	movs	r0, r3
 800208c:	46bd      	mov	sp, r7
 800208e:	b002      	add	sp, #8
 8002090:	bd80      	pop	{r7, pc}
 8002092:	46c0      	nop			@ (mov r8, r8)
 8002094:	f0ffffff 	.word	0xf0ffffff
 8002098:	ffff7fff 	.word	0xffff7fff
 800209c:	fffff7ff 	.word	0xfffff7ff
 80020a0:	02008000 	.word	0x02008000

080020a4 <HAL_I2C_Mem_Write>:
  * @param  Timeout Timeout duration
  * @retval HAL status
  */
HAL_StatusTypeDef HAL_I2C_Mem_Write(I2C_HandleTypeDef *hi2c, uint16_t DevAddress, uint16_t MemAddress,
                                    uint16_t MemAddSize, uint8_t *pData, uint16_t Size, uint32_t Timeout)
{
 80020a4:	b590      	push	{r4, r7, lr}
 80020a6:	b089      	sub	sp, #36	@ 0x24
 80020a8:	af02      	add	r7, sp, #8
 80020aa:	60f8      	str	r0, [r7, #12]
 80020ac:	000c      	movs	r4, r1
 80020ae:	0010      	movs	r0, r2
 80020b0:	0019      	movs	r1, r3
 80020b2:	230a      	movs	r3, #10
 80020b4:	18fb      	adds	r3, r7, r3
 80020b6:	1c22      	adds	r2, r4, #0
 80020b8:	801a      	strh	r2, [r3, #0]
 80020ba:	2308      	movs	r3, #8
 80020bc:	18fb      	adds	r3, r7, r3
 80020be:	1c02      	adds	r2, r0, #0
 80020c0:	801a      	strh	r2, [r3, #0]
 80020c2:	1dbb      	adds	r3, r7, #6
 80020c4:	1c0a      	adds	r2, r1, #0
 80020c6:	801a      	strh	r2, [r3, #0]
  uint32_t tickstart;

  /* Check the parameters */
  assert_param(IS_I2C_MEMADD_SIZE(MemAddSize));

  if (hi2c->State == HAL_I2C_STATE_READY)
 80020c8:	68fb      	ldr	r3, [r7, #12]
 80020ca:	2241      	movs	r2, #65	@ 0x41
 80020cc:	5c9b      	ldrb	r3, [r3, r2]
 80020ce:	b2db      	uxtb	r3, r3
 80020d0:	2b20      	cmp	r3, #32
 80020d2:	d000      	beq.n	80020d6 <HAL_I2C_Mem_Write+0x32>
 80020d4:	e10c      	b.n	80022f0 <HAL_I2C_Mem_Write+0x24c>
  {
    if ((pData == NULL) || (Size == 0U))
 80020d6:	6abb      	ldr	r3, [r7, #40]	@ 0x28
 80020d8:	2b00      	cmp	r3, #0
 80020da:	d004      	beq.n	80020e6 <HAL_I2C_Mem_Write+0x42>
 80020dc:	232c      	movs	r3, #44	@ 0x2c
 80020de:	18fb      	adds	r3, r7, r3
 80020e0:	881b      	ldrh	r3, [r3, #0]
 80020e2:	2b00      	cmp	r3, #0
 80020e4:	d105      	bne.n	80020f2 <HAL_I2C_Mem_Write+0x4e>
    {
      hi2c->ErrorCode = HAL_I2C_ERROR_INVALID_PARAM;
 80020e6:	68fb      	ldr	r3, [r7, #12]
 80020e8:	2280      	movs	r2, #128	@ 0x80
 80020ea:	0092      	lsls	r2, r2, #2
 80020ec:	645a      	str	r2, [r3, #68]	@ 0x44
      return  HAL_ERROR;
 80020ee:	2301      	movs	r3, #1
 80020f0:	e0ff      	b.n	80022f2 <HAL_I2C_Mem_Write+0x24e>
    }

    /* Process Locked */
    __HAL_LOCK(hi2c);
 80020f2:	68fb      	ldr	r3, [r7, #12]
 80020f4:	2240      	movs	r2, #64	@ 0x40
 80020f6:	5c9b      	ldrb	r3, [r3, r2]
 80020f8:	2b01      	cmp	r3, #1
 80020fa:	d101      	bne.n	8002100 <HAL_I2C_Mem_Write+0x5c>
 80020fc:	2302      	movs	r3, #2
 80020fe:	e0f8      	b.n	80022f2 <HAL_I2C_Mem_Write+0x24e>
 8002100:	68fb      	ldr	r3, [r7, #12]
 8002102:	2240      	movs	r2, #64	@ 0x40
 8002104:	2101      	movs	r1, #1
 8002106:	5499      	strb	r1, [r3, r2]

    /* Init tickstart for timeout management*/
    tickstart = HAL_GetTick();
 8002108:	f7ff fcaa 	bl	8001a60 <HAL_GetTick>
 800210c:	0003      	movs	r3, r0
 800210e:	617b      	str	r3, [r7, #20]

    if (I2C_WaitOnFlagUntilTimeout(hi2c, I2C_FLAG_BUSY, SET, I2C_TIMEOUT_BUSY, tickstart) != HAL_OK)
 8002110:	2380      	movs	r3, #128	@ 0x80
 8002112:	0219      	lsls	r1, r3, #8
 8002114:	68f8      	ldr	r0, [r7, #12]
 8002116:	697b      	ldr	r3, [r7, #20]
 8002118:	9300      	str	r3, [sp, #0]
 800211a:	2319      	movs	r3, #25
 800211c:	2201      	movs	r2, #1
 800211e:	f000 fb0b 	bl	8002738 <I2C_WaitOnFlagUntilTimeout>
 8002122:	1e03      	subs	r3, r0, #0
 8002124:	d001      	beq.n	800212a <HAL_I2C_Mem_Write+0x86>
    {
      return HAL_ERROR;
 8002126:	2301      	movs	r3, #1
 8002128:	e0e3      	b.n	80022f2 <HAL_I2C_Mem_Write+0x24e>
    }

    hi2c->State     = HAL_I2C_STATE_BUSY_TX;
 800212a:	68fb      	ldr	r3, [r7, #12]
 800212c:	2241      	movs	r2, #65	@ 0x41
 800212e:	2121      	movs	r1, #33	@ 0x21
 8002130:	5499      	strb	r1, [r3, r2]
    hi2c->Mode      = HAL_I2C_MODE_MEM;
 8002132:	68fb      	ldr	r3, [r7, #12]
 8002134:	2242      	movs	r2, #66	@ 0x42
 8002136:	2140      	movs	r1, #64	@ 0x40
 8002138:	5499      	strb	r1, [r3, r2]
    hi2c->ErrorCode = HAL_I2C_ERROR_NONE;
 800213a:	68fb      	ldr	r3, [r7, #12]
 800213c:	2200      	movs	r2, #0
 800213e:	645a      	str	r2, [r3, #68]	@ 0x44

    /* Prepare transfer parameters */
    hi2c->pBuffPtr  = pData;
 8002140:	68fb      	ldr	r3, [r7, #12]
 8002142:	6aba      	ldr	r2, [r7, #40]	@ 0x28
 8002144:	625a      	str	r2, [r3, #36]	@ 0x24
    hi2c->XferCount = Size;
 8002146:	68fb      	ldr	r3, [r7, #12]
 8002148:	222c      	movs	r2, #44	@ 0x2c
 800214a:	18ba      	adds	r2, r7, r2
 800214c:	8812      	ldrh	r2, [r2, #0]
 800214e:	855a      	strh	r2, [r3, #42]	@ 0x2a
    hi2c->XferISR   = NULL;
 8002150:	68fb      	ldr	r3, [r7, #12]
 8002152:	2200      	movs	r2, #0
 8002154:	635a      	str	r2, [r3, #52]	@ 0x34

    /* Send Slave Address and Memory Address */
    if (I2C_RequestMemoryWrite(hi2c, DevAddress, MemAddress, MemAddSize, Timeout, tickstart) != HAL_OK)
 8002156:	1dbb      	adds	r3, r7, #6
 8002158:	881c      	ldrh	r4, [r3, #0]
 800215a:	2308      	movs	r3, #8
 800215c:	18fb      	adds	r3, r7, r3
 800215e:	881a      	ldrh	r2, [r3, #0]
 8002160:	230a      	movs	r3, #10
 8002162:	18fb      	adds	r3, r7, r3
 8002164:	8819      	ldrh	r1, [r3, #0]
 8002166:	68f8      	ldr	r0, [r7, #12]
 8002168:	697b      	ldr	r3, [r7, #20]
 800216a:	9301      	str	r3, [sp, #4]
 800216c:	6b3b      	ldr	r3, [r7, #48]	@ 0x30
 800216e:	9300      	str	r3, [sp, #0]
 8002170:	0023      	movs	r3, r4
 8002172:	f000 f9f9 	bl	8002568 <I2C_RequestMemoryWrite>
 8002176:	1e03      	subs	r3, r0, #0
 8002178:	d005      	beq.n	8002186 <HAL_I2C_Mem_Write+0xe2>
    {
      /* Process Unlocked */
      __HAL_UNLOCK(hi2c);
 800217a:	68fb      	ldr	r3, [r7, #12]
 800217c:	2240      	movs	r2, #64	@ 0x40
 800217e:	2100      	movs	r1, #0
 8002180:	5499      	strb	r1, [r3, r2]
      return HAL_ERROR;
 8002182:	2301      	movs	r3, #1
 8002184:	e0b5      	b.n	80022f2 <HAL_I2C_Mem_Write+0x24e>
    }

    /* Set NBYTES to write and reload if hi2c->XferCount > MAX_NBYTE_SIZE */
    if (hi2c->XferCount > MAX_NBYTE_SIZE)
 8002186:	68fb      	ldr	r3, [r7, #12]
 8002188:	8d5b      	ldrh	r3, [r3, #42]	@ 0x2a
 800218a:	b29b      	uxth	r3, r3
 800218c:	2bff      	cmp	r3, #255	@ 0xff
 800218e:	d911      	bls.n	80021b4 <HAL_I2C_Mem_Write+0x110>
    {
      hi2c->XferSize = MAX_NBYTE_SIZE;
 8002190:	68fb      	ldr	r3, [r7, #12]
 8002192:	22ff      	movs	r2, #255	@ 0xff
 8002194:	851a      	strh	r2, [r3, #40]	@ 0x28
      I2C_TransferConfig(hi2c, DevAddress, (uint8_t)hi2c->XferSize, I2C_RELOAD_MODE, I2C_NO_STARTSTOP);
 8002196:	68fb      	ldr	r3, [r7, #12]
 8002198:	8d1b      	ldrh	r3, [r3, #40]	@ 0x28
 800219a:	b2da      	uxtb	r2, r3
 800219c:	2380      	movs	r3, #128	@ 0x80
 800219e:	045c      	lsls	r4, r3, #17
 80021a0:	230a      	movs	r3, #10
 80021a2:	18fb      	adds	r3, r7, r3
 80021a4:	8819      	ldrh	r1, [r3, #0]
 80021a6:	68f8      	ldr	r0, [r7, #12]
 80021a8:	2300      	movs	r3, #0
 80021aa:	9300      	str	r3, [sp, #0]
 80021ac:	0023      	movs	r3, r4
 80021ae:	f000 fc9d 	bl	8002aec <I2C_TransferConfig>
 80021b2:	e012      	b.n	80021da <HAL_I2C_Mem_Write+0x136>
    }
    else
    {
      hi2c->XferSize = hi2c->XferCount;
 80021b4:	68fb      	ldr	r3, [r7, #12]
 80021b6:	8d5b      	ldrh	r3, [r3, #42]	@ 0x2a
 80021b8:	b29a      	uxth	r2, r3
 80021ba:	68fb      	ldr	r3, [r7, #12]
 80021bc:	851a      	strh	r2, [r3, #40]	@ 0x28
      I2C_TransferConfig(hi2c, DevAddress, (uint8_t)hi2c->XferSize, I2C_AUTOEND_MODE, I2C_NO_STARTSTOP);
 80021be:	68fb      	ldr	r3, [r7, #12]
 80021c0:	8d1b      	ldrh	r3, [r3, #40]	@ 0x28
 80021c2:	b2da      	uxtb	r2, r3
 80021c4:	2380      	movs	r3, #128	@ 0x80
 80021c6:	049c      	lsls	r4, r3, #18
 80021c8:	230a      	movs	r3, #10
 80021ca:	18fb      	adds	r3, r7, r3
 80021cc:	8819      	ldrh	r1, [r3, #0]
 80021ce:	68f8      	ldr	r0, [r7, #12]
 80021d0:	2300      	movs	r3, #0
 80021d2:	9300      	str	r3, [sp, #0]
 80021d4:	0023      	movs	r3, r4
 80021d6:	f000 fc89 	bl	8002aec <I2C_TransferConfig>
    }

    do
    {
      /* Wait until TXIS flag is set */
      if (I2C_WaitOnTXISFlagUntilTimeout(hi2c, Timeout, tickstart) != HAL_OK)
 80021da:	697a      	ldr	r2, [r7, #20]
 80021dc:	6b39      	ldr	r1, [r7, #48]	@ 0x30
 80021de:	68fb      	ldr	r3, [r7, #12]
 80021e0:	0018      	movs	r0, r3
 80021e2:	f000 fb01 	bl	80027e8 <I2C_WaitOnTXISFlagUntilTimeout>
 80021e6:	1e03      	subs	r3, r0, #0
 80021e8:	d001      	beq.n	80021ee <HAL_I2C_Mem_Write+0x14a>
      {
        return HAL_ERROR;
 80021ea:	2301      	movs	r3, #1
 80021ec:	e081      	b.n	80022f2 <HAL_I2C_Mem_Write+0x24e>
      }

      /* Write data to TXDR */
      hi2c->Instance->TXDR = *hi2c->pBuffPtr;
 80021ee:	68fb      	ldr	r3, [r7, #12]
 80021f0:	6a5b      	ldr	r3, [r3, #36]	@ 0x24
 80021f2:	781a      	ldrb	r2, [r3, #0]
 80021f4:	68fb      	ldr	r3, [r7, #12]
 80021f6:	681b      	ldr	r3, [r3, #0]
 80021f8:	629a      	str	r2, [r3, #40]	@ 0x28

      /* Increment Buffer pointer */
      hi2c->pBuffPtr++;
 80021fa:	68fb      	ldr	r3, [r7, #12]
 80021fc:	6a5b      	ldr	r3, [r3, #36]	@ 0x24
 80021fe:	1c5a      	adds	r2, r3, #1
 8002200:	68fb      	ldr	r3, [r7, #12]
 8002202:	625a      	str	r2, [r3, #36]	@ 0x24

      hi2c->XferCount--;
 8002204:	68fb      	ldr	r3, [r7, #12]
 8002206:	8d5b      	ldrh	r3, [r3, #42]	@ 0x2a
 8002208:	b29b      	uxth	r3, r3
 800220a:	3b01      	subs	r3, #1
 800220c:	b29a      	uxth	r2, r3
 800220e:	68fb      	ldr	r3, [r7, #12]
 8002210:	855a      	strh	r2, [r3, #42]	@ 0x2a
      hi2c->XferSize--;
 8002212:	68fb      	ldr	r3, [r7, #12]
 8002214:	8d1b      	ldrh	r3, [r3, #40]	@ 0x28
 8002216:	3b01      	subs	r3, #1
 8002218:	b29a      	uxth	r2, r3
 800221a:	68fb      	ldr	r3, [r7, #12]
 800221c:	851a      	strh	r2, [r3, #40]	@ 0x28

      if ((hi2c->XferCount != 0U) && (hi2c->XferSize == 0U))
 800221e:	68fb      	ldr	r3, [r7, #12]
 8002220:	8d5b      	ldrh	r3, [r3, #42]	@ 0x2a
 8002222:	b29b      	uxth	r3, r3
 8002224:	2b00      	cmp	r3, #0
 8002226:	d03a      	beq.n	800229e <HAL_I2C_Mem_Write+0x1fa>
 8002228:	68fb      	ldr	r3, [r7, #12]
 800222a:	8d1b      	ldrh	r3, [r3, #40]	@ 0x28
 800222c:	2b00      	cmp	r3, #0
 800222e:	d136      	bne.n	800229e <HAL_I2C_Mem_Write+0x1fa>
      {
        /* Wait until TCR flag is set */
        if (I2C_WaitOnFlagUntilTimeout(hi2c, I2C_FLAG_TCR, RESET, Timeout, tickstart) != HAL_OK)
 8002230:	6b3a      	ldr	r2, [r7, #48]	@ 0x30
 8002232:	68f8      	ldr	r0, [r7, #12]
 8002234:	697b      	ldr	r3, [r7, #20]
 8002236:	9300      	str	r3, [sp, #0]
 8002238:	0013      	movs	r3, r2
 800223a:	2200      	movs	r2, #0
 800223c:	2180      	movs	r1, #128	@ 0x80
 800223e:	f000 fa7b 	bl	8002738 <I2C_WaitOnFlagUntilTimeout>
 8002242:	1e03      	subs	r3, r0, #0
 8002244:	d001      	beq.n	800224a <HAL_I2C_Mem_Write+0x1a6>
        {
          return HAL_ERROR;
 8002246:	2301      	movs	r3, #1
 8002248:	e053      	b.n	80022f2 <HAL_I2C_Mem_Write+0x24e>
        }

        if (hi2c->XferCount > MAX_NBYTE_SIZE)
 800224a:	68fb      	ldr	r3, [r7, #12]
 800224c:	8d5b      	ldrh	r3, [r3, #42]	@ 0x2a
 800224e:	b29b      	uxth	r3, r3
 8002250:	2bff      	cmp	r3, #255	@ 0xff
 8002252:	d911      	bls.n	8002278 <HAL_I2C_Mem_Write+0x1d4>
        {
          hi2c->XferSize = MAX_NBYTE_SIZE;
 8002254:	68fb      	ldr	r3, [r7, #12]
 8002256:	22ff      	movs	r2, #255	@ 0xff
 8002258:	851a      	strh	r2, [r3, #40]	@ 0x28
          I2C_TransferConfig(hi2c, DevAddress, (uint8_t)hi2c->XferSize, I2C_RELOAD_MODE,
 800225a:	68fb      	ldr	r3, [r7, #12]
 800225c:	8d1b      	ldrh	r3, [r3, #40]	@ 0x28
 800225e:	b2da      	uxtb	r2, r3
 8002260:	2380      	movs	r3, #128	@ 0x80
 8002262:	045c      	lsls	r4, r3, #17
 8002264:	230a      	movs	r3, #10
 8002266:	18fb      	adds	r3, r7, r3
 8002268:	8819      	ldrh	r1, [r3, #0]
 800226a:	68f8      	ldr	r0, [r7, #12]
 800226c:	2300      	movs	r3, #0
 800226e:	9300      	str	r3, [sp, #0]
 8002270:	0023      	movs	r3, r4
 8002272:	f000 fc3b 	bl	8002aec <I2C_TransferConfig>
 8002276:	e012      	b.n	800229e <HAL_I2C_Mem_Write+0x1fa>
                             I2C_NO_STARTSTOP);
        }
        else
        {
          hi2c->XferSize = hi2c->XferCount;
 8002278:	68fb      	ldr	r3, [r7, #12]
 800227a:	8d5b      	ldrh	r3, [r3, #42]	@ 0x2a
 800227c:	b29a      	uxth	r2, r3
 800227e:	68fb      	ldr	r3, [r7, #12]
 8002280:	851a      	strh	r2, [r3, #40]	@ 0x28
          I2C_TransferConfig(hi2c, DevAddress, (uint8_t)hi2c->XferSize, I2C_AUTOEND_MODE,
 8002282:	68fb      	ldr	r3, [r7, #12]
 8002284:	8d1b      	ldrh	r3, [r3, #40]	@ 0x28
 8002286:	b2da      	uxtb	r2, r3
 8002288:	2380      	movs	r3, #128	@ 0x80
 800228a:	049c      	lsls	r4, r3, #18
 800228c:	230a      	movs	r3, #10
 800228e:	18fb      	adds	r3, r7, r3
 8002290:	8819      	ldrh	r1, [r3, #0]
 8002292:	68f8      	ldr	r0, [r7, #12]
 8002294:	2300      	movs	r3, #0
 8002296:	9300      	str	r3, [sp, #0]
 8002298:	0023      	movs	r3, r4
 800229a:	f000 fc27 	bl	8002aec <I2C_TransferConfig>
                             I2C_NO_STARTSTOP);
        }
      }

    } while (hi2c->XferCount > 0U);
 800229e:	68fb      	ldr	r3, [r7, #12]
 80022a0:	8d5b      	ldrh	r3, [r3, #42]	@ 0x2a
 80022a2:	b29b      	uxth	r3, r3
 80022a4:	2b00      	cmp	r3, #0
 80022a6:	d198      	bne.n	80021da <HAL_I2C_Mem_Write+0x136>

    /* No need to Check TC flag, with AUTOEND mode the stop is automatically generated */
    /* Wait until STOPF flag is reset */
    if (I2C_WaitOnSTOPFlagUntilTimeout(hi2c, Timeout, tickstart) != HAL_OK)
 80022a8:	697a      	ldr	r2, [r7, #20]
 80022aa:	6b39      	ldr	r1, [r7, #48]	@ 0x30
 80022ac:	68fb      	ldr	r3, [r7, #12]
 80022ae:	0018      	movs	r0, r3
 80022b0:	f000 fae0 	bl	8002874 <I2C_WaitOnSTOPFlagUntilTimeout>
 80022b4:	1e03      	subs	r3, r0, #0
 80022b6:	d001      	beq.n	80022bc <HAL_I2C_Mem_Write+0x218>
    {
      return HAL_ERROR;
 80022b8:	2301      	movs	r3, #1
 80022ba:	e01a      	b.n	80022f2 <HAL_I2C_Mem_Write+0x24e>
    }

    /* Clear STOP Flag */
    __HAL_I2C_CLEAR_FLAG(hi2c, I2C_FLAG_STOPF);
 80022bc:	68fb      	ldr	r3, [r7, #12]
 80022be:	681b      	ldr	r3, [r3, #0]
 80022c0:	2220      	movs	r2, #32
 80022c2:	61da      	str	r2, [r3, #28]

    /* Clear Configuration Register 2 */
    I2C_RESET_CR2(hi2c);
 80022c4:	68fb      	ldr	r3, [r7, #12]
 80022c6:	681b      	ldr	r3, [r3, #0]
 80022c8:	685a      	ldr	r2, [r3, #4]
 80022ca:	68fb      	ldr	r3, [r7, #12]
 80022cc:	681b      	ldr	r3, [r3, #0]
 80022ce:	490b      	ldr	r1, [pc, #44]	@ (80022fc <HAL_I2C_Mem_Write+0x258>)
 80022d0:	400a      	ands	r2, r1
 80022d2:	605a      	str	r2, [r3, #4]

    hi2c->State = HAL_I2C_STATE_READY;
 80022d4:	68fb      	ldr	r3, [r7, #12]
 80022d6:	2241      	movs	r2, #65	@ 0x41
 80022d8:	2120      	movs	r1, #32
 80022da:	5499      	strb	r1, [r3, r2]
    hi2c->Mode  = HAL_I2C_MODE_NONE;
 80022dc:	68fb      	ldr	r3, [r7, #12]
 80022de:	2242      	movs	r2, #66	@ 0x42
 80022e0:	2100      	movs	r1, #0
 80022e2:	5499      	strb	r1, [r3, r2]

    /* Process Unlocked */
    __HAL_UNLOCK(hi2c);
 80022e4:	68fb      	ldr	r3, [r7, #12]
 80022e6:	2240      	movs	r2, #64	@ 0x40
 80022e8:	2100      	movs	r1, #0
 80022ea:	5499      	strb	r1, [r3, r2]

    return HAL_OK;
 80022ec:	2300      	movs	r3, #0
 80022ee:	e000      	b.n	80022f2 <HAL_I2C_Mem_Write+0x24e>
  }
  else
  {
    return HAL_BUSY;
 80022f0:	2302      	movs	r3, #2
  }
}
 80022f2:	0018      	movs	r0, r3
 80022f4:	46bd      	mov	sp, r7
 80022f6:	b007      	add	sp, #28
 80022f8:	bd90      	pop	{r4, r7, pc}
 80022fa:	46c0      	nop			@ (mov r8, r8)
 80022fc:	fe00e800 	.word	0xfe00e800

08002300 <HAL_I2C_Mem_Read>:
  * @param  Timeout Timeout duration
  * @retval HAL status
  */
HAL_StatusTypeDef HAL_I2C_Mem_Read(I2C_HandleTypeDef *hi2c, uint16_t DevAddress, uint16_t MemAddress,
                                   uint16_t MemAddSize, uint8_t *pData, uint16_t Size, uint32_t Timeout)
{
 8002300:	b590      	push	{r4, r7, lr}
 8002302:	b089      	sub	sp, #36	@ 0x24
 8002304:	af02      	add	r7, sp, #8
 8002306:	60f8      	str	r0, [r7, #12]
 8002308:	000c      	movs	r4, r1
 800230a:	0010      	movs	r0, r2
 800230c:	0019      	movs	r1, r3
 800230e:	230a      	movs	r3, #10
 8002310:	18fb      	adds	r3, r7, r3
 8002312:	1c22      	adds	r2, r4, #0
 8002314:	801a      	strh	r2, [r3, #0]
 8002316:	2308      	movs	r3, #8
 8002318:	18fb      	adds	r3, r7, r3
 800231a:	1c02      	adds	r2, r0, #0
 800231c:	801a      	strh	r2, [r3, #0]
 800231e:	1dbb      	adds	r3, r7, #6
 8002320:	1c0a      	adds	r2, r1, #0
 8002322:	801a      	strh	r2, [r3, #0]
  uint32_t tickstart;

  /* Check the parameters */
  assert_param(IS_I2C_MEMADD_SIZE(MemAddSize));

  if (hi2c->State == HAL_I2C_STATE_READY)
 8002324:	68fb      	ldr	r3, [r7, #12]
 8002326:	2241      	movs	r2, #65	@ 0x41
 8002328:	5c9b      	ldrb	r3, [r3, r2]
 800232a:	b2db      	uxtb	r3, r3
 800232c:	2b20      	cmp	r3, #32
 800232e:	d000      	beq.n	8002332 <HAL_I2C_Mem_Read+0x32>
 8002330:	e110      	b.n	8002554 <HAL_I2C_Mem_Read+0x254>
  {
    if ((pData == NULL) || (Size == 0U))
 8002332:	6abb      	ldr	r3, [r7, #40]	@ 0x28
 8002334:	2b00      	cmp	r3, #0
 8002336:	d004      	beq.n	8002342 <HAL_I2C_Mem_Read+0x42>
 8002338:	232c      	movs	r3, #44	@ 0x2c
 800233a:	18fb      	adds	r3, r7, r3
 800233c:	881b      	ldrh	r3, [r3, #0]
 800233e:	2b00      	cmp	r3, #0
 8002340:	d105      	bne.n	800234e <HAL_I2C_Mem_Read+0x4e>
    {
      hi2c->ErrorCode = HAL_I2C_ERROR_INVALID_PARAM;
 8002342:	68fb      	ldr	r3, [r7, #12]
 8002344:	2280      	movs	r2, #128	@ 0x80
 8002346:	0092      	lsls	r2, r2, #2
 8002348:	645a      	str	r2, [r3, #68]	@ 0x44
      return  HAL_ERROR;
 800234a:	2301      	movs	r3, #1
 800234c:	e103      	b.n	8002556 <HAL_I2C_Mem_Read+0x256>
    }

    /* Process Locked */
    __HAL_LOCK(hi2c);
 800234e:	68fb      	ldr	r3, [r7, #12]
 8002350:	2240      	movs	r2, #64	@ 0x40
 8002352:	5c9b      	ldrb	r3, [r3, r2]
 8002354:	2b01      	cmp	r3, #1
 8002356:	d101      	bne.n	800235c <HAL_I2C_Mem_Read+0x5c>
 8002358:	2302      	movs	r3, #2
 800235a:	e0fc      	b.n	8002556 <HAL_I2C_Mem_Read+0x256>
 800235c:	68fb      	ldr	r3, [r7, #12]
 800235e:	2240      	movs	r2, #64	@ 0x40
 8002360:	2101      	movs	r1, #1
 8002362:	5499      	strb	r1, [r3, r2]

    /* Init tickstart for timeout management*/
    tickstart = HAL_GetTick();
 8002364:	f7ff fb7c 	bl	8001a60 <HAL_GetTick>
 8002368:	0003      	movs	r3, r0
 800236a:	617b      	str	r3, [r7, #20]

    if (I2C_WaitOnFlagUntilTimeout(hi2c, I2C_FLAG_BUSY, SET, I2C_TIMEOUT_BUSY, tickstart) != HAL_OK)
 800236c:	2380      	movs	r3, #128	@ 0x80
 800236e:	0219      	lsls	r1, r3, #8
 8002370:	68f8      	ldr	r0, [r7, #12]
 8002372:	697b      	ldr	r3, [r7, #20]
 8002374:	9300      	str	r3, [sp, #0]
 8002376:	2319      	movs	r3, #25
 8002378:	2201      	movs	r2, #1
 800237a:	f000 f9dd 	bl	8002738 <I2C_WaitOnFlagUntilTimeout>
 800237e:	1e03      	subs	r3, r0, #0
 8002380:	d001      	beq.n	8002386 <HAL_I2C_Mem_Read+0x86>
    {
      return HAL_ERROR;
 8002382:	2301      	movs	r3, #1
 8002384:	e0e7      	b.n	8002556 <HAL_I2C_Mem_Read+0x256>
    }

    hi2c->State     = HAL_I2C_STATE_BUSY_RX;
 8002386:	68fb      	ldr	r3, [r7, #12]
 8002388:	2241      	movs	r2, #65	@ 0x41
 800238a:	2122      	movs	r1, #34	@ 0x22
 800238c:	5499      	strb	r1, [r3, r2]
    hi2c->Mode      = HAL_I2C_MODE_MEM;
 800238e:	68fb      	ldr	r3, [r7, #12]
 8002390:	2242      	movs	r2, #66	@ 0x42
 8002392:	2140      	movs	r1, #64	@ 0x40
 8002394:	5499      	strb	r1, [r3, r2]
    hi2c->ErrorCode = HAL_I2C_ERROR_NONE;
 8002396:	68fb      	ldr	r3, [r7, #12]
 8002398:	2200      	movs	r2, #0
 800239a:	645a      	str	r2, [r3, #68]	@ 0x44

    /* Prepare transfer parameters */
    hi2c->pBuffPtr  = pData;
 800239c:	68fb      	ldr	r3, [r7, #12]
 800239e:	6aba      	ldr	r2, [r7, #40]	@ 0x28
 80023a0:	625a      	str	r2, [r3, #36]	@ 0x24
    hi2c->XferCount = Size;
 80023a2:	68fb      	ldr	r3, [r7, #12]
 80023a4:	222c      	movs	r2, #44	@ 0x2c
 80023a6:	18ba      	adds	r2, r7, r2
 80023a8:	8812      	ldrh	r2, [r2, #0]
 80023aa:	855a      	strh	r2, [r3, #42]	@ 0x2a
    hi2c->XferISR   = NULL;
 80023ac:	68fb      	ldr	r3, [r7, #12]
 80023ae:	2200      	movs	r2, #0
 80023b0:	635a      	str	r2, [r3, #52]	@ 0x34

    /* Send Slave Address and Memory Address */
    if (I2C_RequestMemoryRead(hi2c, DevAddress, MemAddress, MemAddSize, Timeout, tickstart) != HAL_OK)
 80023b2:	1dbb      	adds	r3, r7, #6
 80023b4:	881c      	ldrh	r4, [r3, #0]
 80023b6:	2308      	movs	r3, #8
 80023b8:	18fb      	adds	r3, r7, r3
 80023ba:	881a      	ldrh	r2, [r3, #0]
 80023bc:	230a      	movs	r3, #10
 80023be:	18fb      	adds	r3, r7, r3
 80023c0:	8819      	ldrh	r1, [r3, #0]
 80023c2:	68f8      	ldr	r0, [r7, #12]
 80023c4:	697b      	ldr	r3, [r7, #20]
 80023c6:	9301      	str	r3, [sp, #4]
 80023c8:	6b3b      	ldr	r3, [r7, #48]	@ 0x30
 80023ca:	9300      	str	r3, [sp, #0]
 80023cc:	0023      	movs	r3, r4
 80023ce:	f000 f92f 	bl	8002630 <I2C_RequestMemoryRead>
 80023d2:	1e03      	subs	r3, r0, #0
 80023d4:	d005      	beq.n	80023e2 <HAL_I2C_Mem_Read+0xe2>
    {
      /* Process Unlocked */
      __HAL_UNLOCK(hi2c);
 80023d6:	68fb      	ldr	r3, [r7, #12]
 80023d8:	2240      	movs	r2, #64	@ 0x40
 80023da:	2100      	movs	r1, #0
 80023dc:	5499      	strb	r1, [r3, r2]
      return HAL_ERROR;
 80023de:	2301      	movs	r3, #1
 80023e0:	e0b9      	b.n	8002556 <HAL_I2C_Mem_Read+0x256>
    }

    /* Send Slave Address */
    /* Set NBYTES to write and reload if hi2c->XferCount > MAX_NBYTE_SIZE and generate RESTART */
    if (hi2c->XferCount > MAX_NBYTE_SIZE)
 80023e2:	68fb      	ldr	r3, [r7, #12]
 80023e4:	8d5b      	ldrh	r3, [r3, #42]	@ 0x2a
 80023e6:	b29b      	uxth	r3, r3
 80023e8:	2bff      	cmp	r3, #255	@ 0xff
 80023ea:	d911      	bls.n	8002410 <HAL_I2C_Mem_Read+0x110>
    {
      hi2c->XferSize = 1U;
 80023ec:	68fb      	ldr	r3, [r7, #12]
 80023ee:	2201      	movs	r2, #1
 80023f0:	851a      	strh	r2, [r3, #40]	@ 0x28
      I2C_TransferConfig(hi2c, DevAddress, (uint8_t)hi2c->XferSize, I2C_RELOAD_MODE,
 80023f2:	68fb      	ldr	r3, [r7, #12]
 80023f4:	8d1b      	ldrh	r3, [r3, #40]	@ 0x28
 80023f6:	b2da      	uxtb	r2, r3
 80023f8:	2380      	movs	r3, #128	@ 0x80
 80023fa:	045c      	lsls	r4, r3, #17
 80023fc:	230a      	movs	r3, #10
 80023fe:	18fb      	adds	r3, r7, r3
 8002400:	8819      	ldrh	r1, [r3, #0]
 8002402:	68f8      	ldr	r0, [r7, #12]
 8002404:	4b56      	ldr	r3, [pc, #344]	@ (8002560 <HAL_I2C_Mem_Read+0x260>)
 8002406:	9300      	str	r3, [sp, #0]
 8002408:	0023      	movs	r3, r4
 800240a:	f000 fb6f 	bl	8002aec <I2C_TransferConfig>
 800240e:	e012      	b.n	8002436 <HAL_I2C_Mem_Read+0x136>
                         I2C_GENERATE_START_READ);
    }
    else
    {
      hi2c->XferSize = hi2c->XferCount;
 8002410:	68fb      	ldr	r3, [r7, #12]
 8002412:	8d5b      	ldrh	r3, [r3, #42]	@ 0x2a
 8002414:	b29a      	uxth	r2, r3
 8002416:	68fb      	ldr	r3, [r7, #12]
 8002418:	851a      	strh	r2, [r3, #40]	@ 0x28
      I2C_TransferConfig(hi2c, DevAddress, (uint8_t)hi2c->XferSize, I2C_AUTOEND_MODE,
 800241a:	68fb      	ldr	r3, [r7, #12]
 800241c:	8d1b      	ldrh	r3, [r3, #40]	@ 0x28
 800241e:	b2da      	uxtb	r2, r3
 8002420:	2380      	movs	r3, #128	@ 0x80
 8002422:	049c      	lsls	r4, r3, #18
 8002424:	230a      	movs	r3, #10
 8002426:	18fb      	adds	r3, r7, r3
 8002428:	8819      	ldrh	r1, [r3, #0]
 800242a:	68f8      	ldr	r0, [r7, #12]
 800242c:	4b4c      	ldr	r3, [pc, #304]	@ (8002560 <HAL_I2C_Mem_Read+0x260>)
 800242e:	9300      	str	r3, [sp, #0]
 8002430:	0023      	movs	r3, r4
 8002432:	f000 fb5b 	bl	8002aec <I2C_TransferConfig>
    }

    do
    {
      /* Wait until RXNE flag is set */
      if (I2C_WaitOnFlagUntilTimeout(hi2c, I2C_FLAG_RXNE, RESET, Timeout, tickstart) != HAL_OK)
 8002436:	6b3a      	ldr	r2, [r7, #48]	@ 0x30
 8002438:	68f8      	ldr	r0, [r7, #12]
 800243a:	697b      	ldr	r3, [r7, #20]
 800243c:	9300      	str	r3, [sp, #0]
 800243e:	0013      	movs	r3, r2
 8002440:	2200      	movs	r2, #0
 8002442:	2104      	movs	r1, #4
 8002444:	f000 f978 	bl	8002738 <I2C_WaitOnFlagUntilTimeout>
 8002448:	1e03      	subs	r3, r0, #0
 800244a:	d001      	beq.n	8002450 <HAL_I2C_Mem_Read+0x150>
      {
        return HAL_ERROR;
 800244c:	2301      	movs	r3, #1
 800244e:	e082      	b.n	8002556 <HAL_I2C_Mem_Read+0x256>
      }

      /* Read data from RXDR */
      *hi2c->pBuffPtr = (uint8_t)hi2c->Instance->RXDR;
 8002450:	68fb      	ldr	r3, [r7, #12]
 8002452:	681b      	ldr	r3, [r3, #0]
 8002454:	6a5a      	ldr	r2, [r3, #36]	@ 0x24
 8002456:	68fb      	ldr	r3, [r7, #12]
 8002458:	6a5b      	ldr	r3, [r3, #36]	@ 0x24
 800245a:	b2d2      	uxtb	r2, r2
 800245c:	701a      	strb	r2, [r3, #0]

      /* Increment Buffer pointer */
      hi2c->pBuffPtr++;
 800245e:	68fb      	ldr	r3, [r7, #12]
 8002460:	6a5b      	ldr	r3, [r3, #36]	@ 0x24
 8002462:	1c5a      	adds	r2, r3, #1
 8002464:	68fb      	ldr	r3, [r7, #12]
 8002466:	625a      	str	r2, [r3, #36]	@ 0x24

      hi2c->XferSize--;
 8002468:	68fb      	ldr	r3, [r7, #12]
 800246a:	8d1b      	ldrh	r3, [r3, #40]	@ 0x28
 800246c:	3b01      	subs	r3, #1
 800246e:	b29a      	uxth	r2, r3
 8002470:	68fb      	ldr	r3, [r7, #12]
 8002472:	851a      	strh	r2, [r3, #40]	@ 0x28
      hi2c->XferCount--;
 8002474:	68fb      	ldr	r3, [r7, #12]
 8002476:	8d5b      	ldrh	r3, [r3, #42]	@ 0x2a
 8002478:	b29b      	uxth	r3, r3
 800247a:	3b01      	subs	r3, #1
 800247c:	b29a      	uxth	r2, r3
 800247e:	68fb      	ldr	r3, [r7, #12]
 8002480:	855a      	strh	r2, [r3, #42]	@ 0x2a

      if ((hi2c->XferCount != 0U) && (hi2c->XferSize == 0U))
 8002482:	68fb      	ldr	r3, [r7, #12]
 8002484:	8d5b      	ldrh	r3, [r3, #42]	@ 0x2a
 8002486:	b29b      	uxth	r3, r3
 8002488:	2b00      	cmp	r3, #0
 800248a:	d03a      	beq.n	8002502 <HAL_I2C_Mem_Read+0x202>
 800248c:	68fb      	ldr	r3, [r7, #12]
 800248e:	8d1b      	ldrh	r3, [r3, #40]	@ 0x28
 8002490:	2b00      	cmp	r3, #0
 8002492:	d136      	bne.n	8002502 <HAL_I2C_Mem_Read+0x202>
      {
        /* Wait until TCR flag is set */
        if (I2C_WaitOnFlagUntilTimeout(hi2c, I2C_FLAG_TCR, RESET, Timeout, tickstart) != HAL_OK)
 8002494:	6b3a      	ldr	r2, [r7, #48]	@ 0x30
 8002496:	68f8      	ldr	r0, [r7, #12]
 8002498:	697b      	ldr	r3, [r7, #20]
 800249a:	9300      	str	r3, [sp, #0]
 800249c:	0013      	movs	r3, r2
 800249e:	2200      	movs	r2, #0
 80024a0:	2180      	movs	r1, #128	@ 0x80
 80024a2:	f000 f949 	bl	8002738 <I2C_WaitOnFlagUntilTimeout>
 80024a6:	1e03      	subs	r3, r0, #0
 80024a8:	d001      	beq.n	80024ae <HAL_I2C_Mem_Read+0x1ae>
        {
          return HAL_ERROR;
 80024aa:	2301      	movs	r3, #1
 80024ac:	e053      	b.n	8002556 <HAL_I2C_Mem_Read+0x256>
        }

        if (hi2c->XferCount > MAX_NBYTE_SIZE)
 80024ae:	68fb      	ldr	r3, [r7, #12]
 80024b0:	8d5b      	ldrh	r3, [r3, #42]	@ 0x2a
 80024b2:	b29b      	uxth	r3, r3
 80024b4:	2bff      	cmp	r3, #255	@ 0xff
 80024b6:	d911      	bls.n	80024dc <HAL_I2C_Mem_Read+0x1dc>
        {
          hi2c->XferSize = 1U;
 80024b8:	68fb      	ldr	r3, [r7, #12]
 80024ba:	2201      	movs	r2, #1
 80024bc:	851a      	strh	r2, [r3, #40]	@ 0x28
          I2C_TransferConfig(hi2c, DevAddress, (uint8_t) hi2c->XferSize, I2C_RELOAD_MODE,
 80024be:	68fb      	ldr	r3, [r7, #12]
 80024c0:	8d1b      	ldrh	r3, [r3, #40]	@ 0x28
 80024c2:	b2da      	uxtb	r2, r3
 80024c4:	2380      	movs	r3, #128	@ 0x80
 80024c6:	045c      	lsls	r4, r3, #17
 80024c8:	230a      	movs	r3, #10
 80024ca:	18fb      	adds	r3, r7, r3
 80024cc:	8819      	ldrh	r1, [r3, #0]
 80024ce:	68f8      	ldr	r0, [r7, #12]
 80024d0:	2300      	movs	r3, #0
 80024d2:	9300      	str	r3, [sp, #0]
 80024d4:	0023      	movs	r3, r4
 80024d6:	f000 fb09 	bl	8002aec <I2C_TransferConfig>
 80024da:	e012      	b.n	8002502 <HAL_I2C_Mem_Read+0x202>
                             I2C_NO_STARTSTOP);
        }
        else
        {
          hi2c->XferSize = hi2c->XferCount;
 80024dc:	68fb      	ldr	r3, [r7, #12]
 80024de:	8d5b      	ldrh	r3, [r3, #42]	@ 0x2a
 80024e0:	b29a      	uxth	r2, r3
 80024e2:	68fb      	ldr	r3, [r7, #12]
 80024e4:	851a      	strh	r2, [r3, #40]	@ 0x28
          I2C_TransferConfig(hi2c, DevAddress, (uint8_t)hi2c->XferSize, I2C_AUTOEND_MODE,
 80024e6:	68fb      	ldr	r3, [r7, #12]
 80024e8:	8d1b      	ldrh	r3, [r3, #40]	@ 0x28
 80024ea:	b2da      	uxtb	r2, r3
 80024ec:	2380      	movs	r3, #128	@ 0x80
 80024ee:	049c      	lsls	r4, r3, #18
 80024f0:	230a      	movs	r3, #10
 80024f2:	18fb      	adds	r3, r7, r3
 80024f4:	8819      	ldrh	r1, [r3, #0]
 80024f6:	68f8      	ldr	r0, [r7, #12]
 80024f8:	2300      	movs	r3, #0
 80024fa:	9300      	str	r3, [sp, #0]
 80024fc:	0023      	movs	r3, r4
 80024fe:	f000 faf5 	bl	8002aec <I2C_TransferConfig>
                             I2C_NO_STARTSTOP);
        }
      }
    } while (hi2c->XferCount > 0U);
 8002502:	68fb      	ldr	r3, [r7, #12]
 8002504:	8d5b      	ldrh	r3, [r3, #42]	@ 0x2a
 8002506:	b29b      	uxth	r3, r3
 8002508:	2b00      	cmp	r3, #0
 800250a:	d194      	bne.n	8002436 <HAL_I2C_Mem_Read+0x136>

    /* No need to Check TC flag, with AUTOEND mode the stop is automatically generated */
    /* Wait until STOPF flag is reset */
    if (I2C_WaitOnSTOPFlagUntilTimeout(hi2c, Timeout, tickstart) != HAL_OK)
 800250c:	697a      	ldr	r2, [r7, #20]
 800250e:	6b39      	ldr	r1, [r7, #48]	@ 0x30
 8002510:	68fb      	ldr	r3, [r7, #12]
 8002512:	0018      	movs	r0, r3
 8002514:	f000 f9ae 	bl	8002874 <I2C_WaitOnSTOPFlagUntilTimeout>
 8002518:	1e03      	subs	r3, r0, #0
 800251a:	d001      	beq.n	8002520 <HAL_I2C_Mem_Read+0x220>
    {
      return HAL_ERROR;
 800251c:	2301      	movs	r3, #1
 800251e:	e01a      	b.n	8002556 <HAL_I2C_Mem_Read+0x256>
    }

    /* Clear STOP Flag */
    __HAL_I2C_CLEAR_FLAG(hi2c, I2C_FLAG_STOPF);
 8002520:	68fb      	ldr	r3, [r7, #12]
 8002522:	681b      	ldr	r3, [r3, #0]
 8002524:	2220      	movs	r2, #32
 8002526:	61da      	str	r2, [r3, #28]

    /* Clear Configuration Register 2 */
    I2C_RESET_CR2(hi2c);
 8002528:	68fb      	ldr	r3, [r7, #12]
 800252a:	681b      	ldr	r3, [r3, #0]
 800252c:	685a      	ldr	r2, [r3, #4]
 800252e:	68fb      	ldr	r3, [r7, #12]
 8002530:	681b      	ldr	r3, [r3, #0]
 8002532:	490c      	ldr	r1, [pc, #48]	@ (8002564 <HAL_I2C_Mem_Read+0x264>)
 8002534:	400a      	ands	r2, r1
 8002536:	605a      	str	r2, [r3, #4]

    hi2c->State = HAL_I2C_STATE_READY;
 8002538:	68fb      	ldr	r3, [r7, #12]
 800253a:	2241      	movs	r2, #65	@ 0x41
 800253c:	2120      	movs	r1, #32
 800253e:	5499      	strb	r1, [r3, r2]
    hi2c->Mode  = HAL_I2C_MODE_NONE;
 8002540:	68fb      	ldr	r3, [r7, #12]
 8002542:	2242      	movs	r2, #66	@ 0x42
 8002544:	2100      	movs	r1, #0
 8002546:	5499      	strb	r1, [r3, r2]

    /* Process Unlocked */
    __HAL_UNLOCK(hi2c);
 8002548:	68fb      	ldr	r3, [r7, #12]
 800254a:	2240      	movs	r2, #64	@ 0x40
 800254c:	2100      	movs	r1, #0
 800254e:	5499      	strb	r1, [r3, r2]

    return HAL_OK;
 8002550:	2300      	movs	r3, #0
 8002552:	e000      	b.n	8002556 <HAL_I2C_Mem_Read+0x256>
  }
  else
  {
    return HAL_BUSY;
 8002554:	2302      	movs	r3, #2
  }
}
 8002556:	0018      	movs	r0, r3
 8002558:	46bd      	mov	sp, r7
 800255a:	b007      	add	sp, #28
 800255c:	bd90      	pop	{r4, r7, pc}
 800255e:	46c0      	nop			@ (mov r8, r8)
 8002560:	80002400 	.word	0x80002400
 8002564:	fe00e800 	.word	0xfe00e800

08002568 <I2C_RequestMemoryWrite>:
  * @retval HAL status
  */
static HAL_StatusTypeDef I2C_RequestMemoryWrite(I2C_HandleTypeDef *hi2c, uint16_t DevAddress,
                                                uint16_t MemAddress, uint16_t MemAddSize, uint32_t Timeout,
                                                uint32_t Tickstart)
{
 8002568:	b5b0      	push	{r4, r5, r7, lr}
 800256a:	b086      	sub	sp, #24
 800256c:	af02      	add	r7, sp, #8
 800256e:	60f8      	str	r0, [r7, #12]
 8002570:	000c      	movs	r4, r1
 8002572:	0010      	movs	r0, r2
 8002574:	0019      	movs	r1, r3
 8002576:	250a      	movs	r5, #10
 8002578:	197b      	adds	r3, r7, r5
 800257a:	1c22      	adds	r2, r4, #0
 800257c:	801a      	strh	r2, [r3, #0]
 800257e:	2308      	movs	r3, #8
 8002580:	18fb      	adds	r3, r7, r3
 8002582:	1c02      	adds	r2, r0, #0
 8002584:	801a      	strh	r2, [r3, #0]
 8002586:	1dbb      	adds	r3, r7, #6
 8002588:	1c0a      	adds	r2, r1, #0
 800258a:	801a      	strh	r2, [r3, #0]
  I2C_TransferConfig(hi2c, DevAddress, (uint8_t)MemAddSize, I2C_RELOAD_MODE, I2C_GENERATE_START_WRITE);
 800258c:	1dbb      	adds	r3, r7, #6
 800258e:	881b      	ldrh	r3, [r3, #0]
 8002590:	b2da      	uxtb	r2, r3
 8002592:	2380      	movs	r3, #128	@ 0x80
 8002594:	045c      	lsls	r4, r3, #17
 8002596:	197b      	adds	r3, r7, r5
 8002598:	8819      	ldrh	r1, [r3, #0]
 800259a:	68f8      	ldr	r0, [r7, #12]
 800259c:	4b23      	ldr	r3, [pc, #140]	@ (800262c <I2C_RequestMemoryWrite+0xc4>)
 800259e:	9300      	str	r3, [sp, #0]
 80025a0:	0023      	movs	r3, r4
 80025a2:	f000 faa3 	bl	8002aec <I2C_TransferConfig>

  /* Wait until TXIS flag is set */
  if (I2C_WaitOnTXISFlagUntilTimeout(hi2c, Timeout, Tickstart) != HAL_OK)
 80025a6:	6a7a      	ldr	r2, [r7, #36]	@ 0x24
 80025a8:	6a39      	ldr	r1, [r7, #32]
 80025aa:	68fb      	ldr	r3, [r7, #12]
 80025ac:	0018      	movs	r0, r3
 80025ae:	f000 f91b 	bl	80027e8 <I2C_WaitOnTXISFlagUntilTimeout>
 80025b2:	1e03      	subs	r3, r0, #0
 80025b4:	d001      	beq.n	80025ba <I2C_RequestMemoryWrite+0x52>
  {
    return HAL_ERROR;
 80025b6:	2301      	movs	r3, #1
 80025b8:	e033      	b.n	8002622 <I2C_RequestMemoryWrite+0xba>
  }

  /* If Memory address size is 8Bit */
  if (MemAddSize == I2C_MEMADD_SIZE_8BIT)
 80025ba:	1dbb      	adds	r3, r7, #6
 80025bc:	881b      	ldrh	r3, [r3, #0]
 80025be:	2b01      	cmp	r3, #1
 80025c0:	d107      	bne.n	80025d2 <I2C_RequestMemoryWrite+0x6a>
  {
    /* Send Memory Address */
    hi2c->Instance->TXDR = I2C_MEM_ADD_LSB(MemAddress);
 80025c2:	2308      	movs	r3, #8
 80025c4:	18fb      	adds	r3, r7, r3
 80025c6:	881b      	ldrh	r3, [r3, #0]
 80025c8:	b2da      	uxtb	r2, r3
 80025ca:	68fb      	ldr	r3, [r7, #12]
 80025cc:	681b      	ldr	r3, [r3, #0]
 80025ce:	629a      	str	r2, [r3, #40]	@ 0x28
 80025d0:	e019      	b.n	8002606 <I2C_RequestMemoryWrite+0x9e>
  }
  /* If Memory address size is 16Bit */
  else
  {
    /* Send MSB of Memory Address */
    hi2c->Instance->TXDR = I2C_MEM_ADD_MSB(MemAddress);
 80025d2:	2308      	movs	r3, #8
 80025d4:	18fb      	adds	r3, r7, r3
 80025d6:	881b      	ldrh	r3, [r3, #0]
 80025d8:	0a1b      	lsrs	r3, r3, #8
 80025da:	b29b      	uxth	r3, r3
 80025dc:	b2da      	uxtb	r2, r3
 80025de:	68fb      	ldr	r3, [r7, #12]
 80025e0:	681b      	ldr	r3, [r3, #0]
 80025e2:	629a      	str	r2, [r3, #40]	@ 0x28

    /* Wait until TXIS flag is set */
    if (I2C_WaitOnTXISFlagUntilTimeout(hi2c, Timeout, Tickstart) != HAL_OK)
 80025e4:	6a7a      	ldr	r2, [r7, #36]	@ 0x24
 80025e6:	6a39      	ldr	r1, [r7, #32]
 80025e8:	68fb      	ldr	r3, [r7, #12]
 80025ea:	0018      	movs	r0, r3
 80025ec:	f000 f8fc 	bl	80027e8 <I2C_WaitOnTXISFlagUntilTimeout>
 80025f0:	1e03      	subs	r3, r0, #0
 80025f2:	d001      	beq.n	80025f8 <I2C_RequestMemoryWrite+0x90>
    {
      return HAL_ERROR;
 80025f4:	2301      	movs	r3, #1
 80025f6:	e014      	b.n	8002622 <I2C_RequestMemoryWrite+0xba>
    }

    /* Send LSB of Memory Address */
    hi2c->Instance->TXDR = I2C_MEM_ADD_LSB(MemAddress);
 80025f8:	2308      	movs	r3, #8
 80025fa:	18fb      	adds	r3, r7, r3
 80025fc:	881b      	ldrh	r3, [r3, #0]
 80025fe:	b2da      	uxtb	r2, r3
 8002600:	68fb      	ldr	r3, [r7, #12]
 8002602:	681b      	ldr	r3, [r3, #0]
 8002604:	629a      	str	r2, [r3, #40]	@ 0x28
  }

  /* Wait until TCR flag is set */
  if (I2C_WaitOnFlagUntilTimeout(hi2c, I2C_FLAG_TCR, RESET, Timeout, Tickstart) != HAL_OK)
 8002606:	6a3a      	ldr	r2, [r7, #32]
 8002608:	68f8      	ldr	r0, [r7, #12]
 800260a:	6a7b      	ldr	r3, [r7, #36]	@ 0x24
 800260c:	9300      	str	r3, [sp, #0]
 800260e:	0013      	movs	r3, r2
 8002610:	2200      	movs	r2, #0
 8002612:	2180      	movs	r1, #128	@ 0x80
 8002614:	f000 f890 	bl	8002738 <I2C_WaitOnFlagUntilTimeout>
 8002618:	1e03      	subs	r3, r0, #0
 800261a:	d001      	beq.n	8002620 <I2C_RequestMemoryWrite+0xb8>
  {
    return HAL_ERROR;
 800261c:	2301      	movs	r3, #1
 800261e:	e000      	b.n	8002622 <I2C_RequestMemoryWrite+0xba>
  }

  return HAL_OK;
 8002620:	2300      	movs	r3, #0
}
 8002622:	0018      	movs	r0, r3
 8002624:	46bd      	mov	sp, r7
 8002626:	b004      	add	sp, #16
 8002628:	bdb0      	pop	{r4, r5, r7, pc}
 800262a:	46c0      	nop			@ (mov r8, r8)
 800262c:	80002000 	.word	0x80002000

08002630 <I2C_RequestMemoryRead>:
  * @retval HAL status
  */
static HAL_StatusTypeDef I2C_RequestMemoryRead(I2C_HandleTypeDef *hi2c, uint16_t DevAddress,
                                               uint16_t MemAddress, uint16_t MemAddSize, uint32_t Timeout,
                                               uint32_t Tickstart)
{
 8002630:	b5b0      	push	{r4, r5, r7, lr}
 8002632:	b086      	sub	sp, #24
 8002634:	af02      	add	r7, sp, #8
 8002636:	60f8      	str	r0, [r7, #12]
 8002638:	000c      	movs	r4, r1
 800263a:	0010      	movs	r0, r2
 800263c:	0019      	movs	r1, r3
 800263e:	250a      	movs	r5, #10
 8002640:	197b      	adds	r3, r7, r5
 8002642:	1c22      	adds	r2, r4, #0
 8002644:	801a      	strh	r2, [r3, #0]
 8002646:	2308      	movs	r3, #8
 8002648:	18fb      	adds	r3, r7, r3
 800264a:	1c02      	adds	r2, r0, #0
 800264c:	801a      	strh	r2, [r3, #0]
 800264e:	1dbb      	adds	r3, r7, #6
 8002650:	1c0a      	adds	r2, r1, #0
 8002652:	801a      	strh	r2, [r3, #0]
  I2C_TransferConfig(hi2c, DevAddress, (uint8_t)MemAddSize, I2C_SOFTEND_MODE, I2C_GENERATE_START_WRITE);
 8002654:	1dbb      	adds	r3, r7, #6
 8002656:	881b      	ldrh	r3, [r3, #0]
 8002658:	b2da      	uxtb	r2, r3
 800265a:	197b      	adds	r3, r7, r5
 800265c:	8819      	ldrh	r1, [r3, #0]
 800265e:	68f8      	ldr	r0, [r7, #12]
 8002660:	4b23      	ldr	r3, [pc, #140]	@ (80026f0 <I2C_RequestMemoryRead+0xc0>)
 8002662:	9300      	str	r3, [sp, #0]
 8002664:	2300      	movs	r3, #0
 8002666:	f000 fa41 	bl	8002aec <I2C_TransferConfig>

  /* Wait until TXIS flag is set */
  if (I2C_WaitOnTXISFlagUntilTimeout(hi2c, Timeout, Tickstart) != HAL_OK)
 800266a:	6a7a      	ldr	r2, [r7, #36]	@ 0x24
 800266c:	6a39      	ldr	r1, [r7, #32]
 800266e:	68fb      	ldr	r3, [r7, #12]
 8002670:	0018      	movs	r0, r3
 8002672:	f000 f8b9 	bl	80027e8 <I2C_WaitOnTXISFlagUntilTimeout>
 8002676:	1e03      	subs	r3, r0, #0
 8002678:	d001      	beq.n	800267e <I2C_RequestMemoryRead+0x4e>
  {
    return HAL_ERROR;
 800267a:	2301      	movs	r3, #1
 800267c:	e033      	b.n	80026e6 <I2C_RequestMemoryRead+0xb6>
  }

  /* If Memory address size is 8Bit */
  if (MemAddSize == I2C_MEMADD_SIZE_8BIT)
 800267e:	1dbb      	adds	r3, r7, #6
 8002680:	881b      	ldrh	r3, [r3, #0]
 8002682:	2b01      	cmp	r3, #1
 8002684:	d107      	bne.n	8002696 <I2C_RequestMemoryRead+0x66>
  {
    /* Send Memory Address */
    hi2c->Instance->TXDR = I2C_MEM_ADD_LSB(MemAddress);
 8002686:	2308      	movs	r3, #8
 8002688:	18fb      	adds	r3, r7, r3
 800268a:	881b      	ldrh	r3, [r3, #0]
 800268c:	b2da      	uxtb	r2, r3
 800268e:	68fb      	ldr	r3, [r7, #12]
 8002690:	681b      	ldr	r3, [r3, #0]
 8002692:	629a      	str	r2, [r3, #40]	@ 0x28
 8002694:	e019      	b.n	80026ca <I2C_RequestMemoryRead+0x9a>
  }
  /* If Memory address size is 16Bit */
  else
  {
    /* Send MSB of Memory Address */
    hi2c->Instance->TXDR = I2C_MEM_ADD_MSB(MemAddress);
 8002696:	2308      	movs	r3, #8
 8002698:	18fb      	adds	r3, r7, r3
 800269a:	881b      	ldrh	r3, [r3, #0]
 800269c:	0a1b      	lsrs	r3, r3, #8
 800269e:	b29b      	uxth	r3, r3
 80026a0:	b2da      	uxtb	r2, r3
 80026a2:	68fb      	ldr	r3, [r7, #12]
 80026a4:	681b      	ldr	r3, [r3, #0]
 80026a6:	629a      	str	r2, [r3, #40]	@ 0x28

    /* Wait until TXIS flag is set */
    if (I2C_WaitOnTXISFlagUntilTimeout(hi2c, Timeout, Tickstart) != HAL_OK)
 80026a8:	6a7a      	ldr	r2, [r7, #36]	@ 0x24
 80026aa:	6a39      	ldr	r1, [r7, #32]
 80026ac:	68fb      	ldr	r3, [r7, #12]
 80026ae:	0018      	movs	r0, r3
 80026b0:	f000 f89a 	bl	80027e8 <I2C_WaitOnTXISFlagUntilTimeout>
 80026b4:	1e03      	subs	r3, r0, #0
 80026b6:	d001      	beq.n	80026bc <I2C_RequestMemoryRead+0x8c>
    {
      return HAL_ERROR;
 80026b8:	2301      	movs	r3, #1
 80026ba:	e014      	b.n	80026e6 <I2C_RequestMemoryRead+0xb6>
    }

    /* Send LSB of Memory Address */
    hi2c->Instance->TXDR = I2C_MEM_ADD_LSB(MemAddress);
 80026bc:	2308      	movs	r3, #8
 80026be:	18fb      	adds	r3, r7, r3
 80026c0:	881b      	ldrh	r3, [r3, #0]
 80026c2:	b2da      	uxtb	r2, r3
 80026c4:	68fb      	ldr	r3, [r7, #12]
 80026c6:	681b      	ldr	r3, [r3, #0]
 80026c8:	629a      	str	r2, [r3, #40]	@ 0x28
  }

  /* Wait until TC flag is set */
  if (I2C_WaitOnFlagUntilTimeout(hi2c, I2C_FLAG_TC, RESET, Timeout, Tickstart) != HAL_OK)
 80026ca:	6a3a      	ldr	r2, [r7, #32]
 80026cc:	68f8      	ldr	r0, [r7, #12]
 80026ce:	6a7b      	ldr	r3, [r7, #36]	@ 0x24
 80026d0:	9300      	str	r3, [sp, #0]
 80026d2:	0013      	movs	r3, r2
 80026d4:	2200      	movs	r2, #0
 80026d6:	2140      	movs	r1, #64	@ 0x40
 80026d8:	f000 f82e 	bl	8002738 <I2C_WaitOnFlagUntilTimeout>
 80026dc:	1e03      	subs	r3, r0, #0
 80026de:	d001      	beq.n	80026e4 <I2C_RequestMemoryRead+0xb4>
  {
    return HAL_ERROR;
 80026e0:	2301      	movs	r3, #1
 80026e2:	e000      	b.n	80026e6 <I2C_RequestMemoryRead+0xb6>
  }

  return HAL_OK;
 80026e4:	2300      	movs	r3, #0
}
 80026e6:	0018      	movs	r0, r3
 80026e8:	46bd      	mov	sp, r7
 80026ea:	b004      	add	sp, #16
 80026ec:	bdb0      	pop	{r4, r5, r7, pc}
 80026ee:	46c0      	nop			@ (mov r8, r8)
 80026f0:	80002000 	.word	0x80002000

080026f4 <I2C_Flush_TXDR>:
  * @brief  I2C Tx data register flush process.
  * @param  hi2c I2C handle.
  * @retval None
  */
static void I2C_Flush_TXDR(I2C_HandleTypeDef *hi2c)
{
 80026f4:	b580      	push	{r7, lr}
 80026f6:	b082      	sub	sp, #8
 80026f8:	af00      	add	r7, sp, #0
 80026fa:	6078      	str	r0, [r7, #4]
  /* If a pending TXIS flag is set */
  /* Write a dummy data in TXDR to clear it */
  if (__HAL_I2C_GET_FLAG(hi2c, I2C_FLAG_TXIS) != RESET)
 80026fc:	687b      	ldr	r3, [r7, #4]
 80026fe:	681b      	ldr	r3, [r3, #0]
 8002700:	699b      	ldr	r3, [r3, #24]
 8002702:	2202      	movs	r2, #2
 8002704:	4013      	ands	r3, r2
 8002706:	2b02      	cmp	r3, #2
 8002708:	d103      	bne.n	8002712 <I2C_Flush_TXDR+0x1e>
  {
    hi2c->Instance->TXDR = 0x00U;
 800270a:	687b      	ldr	r3, [r7, #4]
 800270c:	681b      	ldr	r3, [r3, #0]
 800270e:	2200      	movs	r2, #0
 8002710:	629a      	str	r2, [r3, #40]	@ 0x28
  }

  /* Flush TX register if not empty */
  if (__HAL_I2C_GET_FLAG(hi2c, I2C_FLAG_TXE) == RESET)
 8002712:	687b      	ldr	r3, [r7, #4]
 8002714:	681b      	ldr	r3, [r3, #0]
 8002716:	699b      	ldr	r3, [r3, #24]
 8002718:	2201      	movs	r2, #1
 800271a:	4013      	ands	r3, r2
 800271c:	2b01      	cmp	r3, #1
 800271e:	d007      	beq.n	8002730 <I2C_Flush_TXDR+0x3c>
  {
    __HAL_I2C_CLEAR_FLAG(hi2c, I2C_FLAG_TXE);
 8002720:	687b      	ldr	r3, [r7, #4]
 8002722:	681b      	ldr	r3, [r3, #0]
 8002724:	699a      	ldr	r2, [r3, #24]
 8002726:	687b      	ldr	r3, [r7, #4]
 8002728:	681b      	ldr	r3, [r3, #0]
 800272a:	2101      	movs	r1, #1
 800272c:	430a      	orrs	r2, r1
 800272e:	619a      	str	r2, [r3, #24]
  }
}
 8002730:	46c0      	nop			@ (mov r8, r8)
 8002732:	46bd      	mov	sp, r7
 8002734:	b002      	add	sp, #8
 8002736:	bd80      	pop	{r7, pc}

08002738 <I2C_WaitOnFlagUntilTimeout>:
  * @param  Tickstart Tick start value
  * @retval HAL status
  */
static HAL_StatusTypeDef I2C_WaitOnFlagUntilTimeout(I2C_HandleTypeDef *hi2c, uint32_t Flag, FlagStatus Status,
                                                    uint32_t Timeout, uint32_t Tickstart)
{
 8002738:	b580      	push	{r7, lr}
 800273a:	b084      	sub	sp, #16
 800273c:	af00      	add	r7, sp, #0
 800273e:	60f8      	str	r0, [r7, #12]
 8002740:	60b9      	str	r1, [r7, #8]
 8002742:	603b      	str	r3, [r7, #0]
 8002744:	1dfb      	adds	r3, r7, #7
 8002746:	701a      	strb	r2, [r3, #0]
  while (__HAL_I2C_GET_FLAG(hi2c, Flag) == Status)
 8002748:	e03a      	b.n	80027c0 <I2C_WaitOnFlagUntilTimeout+0x88>
  {
    /* Check if an error is detected */
    if (I2C_IsErrorOccurred(hi2c, Timeout, Tickstart) != HAL_OK)
 800274a:	69ba      	ldr	r2, [r7, #24]
 800274c:	6839      	ldr	r1, [r7, #0]
 800274e:	68fb      	ldr	r3, [r7, #12]
 8002750:	0018      	movs	r0, r3
 8002752:	f000 f8d3 	bl	80028fc <I2C_IsErrorOccurred>
 8002756:	1e03      	subs	r3, r0, #0
 8002758:	d001      	beq.n	800275e <I2C_WaitOnFlagUntilTimeout+0x26>
    {
      return HAL_ERROR;
 800275a:	2301      	movs	r3, #1
 800275c:	e040      	b.n	80027e0 <I2C_WaitOnFlagUntilTimeout+0xa8>
    }

    /* Check for the Timeout */
    if (Timeout != HAL_MAX_DELAY)
 800275e:	683b      	ldr	r3, [r7, #0]
 8002760:	3301      	adds	r3, #1
 8002762:	d02d      	beq.n	80027c0 <I2C_WaitOnFlagUntilTimeout+0x88>
    {
      if (((HAL_GetTick() - Tickstart) > Timeout) || (Timeout == 0U))
 8002764:	f7ff f97c 	bl	8001a60 <HAL_GetTick>
 8002768:	0002      	movs	r2, r0
 800276a:	69bb      	ldr	r3, [r7, #24]
 800276c:	1ad3      	subs	r3, r2, r3
 800276e:	683a      	ldr	r2, [r7, #0]
 8002770:	429a      	cmp	r2, r3
 8002772:	d302      	bcc.n	800277a <I2C_WaitOnFlagUntilTimeout+0x42>
 8002774:	683b      	ldr	r3, [r7, #0]
 8002776:	2b00      	cmp	r3, #0
 8002778:	d122      	bne.n	80027c0 <I2C_WaitOnFlagUntilTimeout+0x88>
      {
        if ((__HAL_I2C_GET_FLAG(hi2c, Flag) == Status))
 800277a:	68fb      	ldr	r3, [r7, #12]
 800277c:	681b      	ldr	r3, [r3, #0]
 800277e:	699b      	ldr	r3, [r3, #24]
 8002780:	68ba      	ldr	r2, [r7, #8]
 8002782:	4013      	ands	r3, r2
 8002784:	68ba      	ldr	r2, [r7, #8]
 8002786:	1ad3      	subs	r3, r2, r3
 8002788:	425a      	negs	r2, r3
 800278a:	4153      	adcs	r3, r2
 800278c:	b2db      	uxtb	r3, r3
 800278e:	001a      	movs	r2, r3
 8002790:	1dfb      	adds	r3, r7, #7
 8002792:	781b      	ldrb	r3, [r3, #0]
 8002794:	429a      	cmp	r2, r3
 8002796:	d113      	bne.n	80027c0 <I2C_WaitOnFlagUntilTimeout+0x88>
        {
          hi2c->ErrorCode |= HAL_I2C_ERROR_TIMEOUT;
 8002798:	68fb      	ldr	r3, [r7, #12]
 800279a:	6c5b      	ldr	r3, [r3, #68]	@ 0x44
 800279c:	2220      	movs	r2, #32
 800279e:	431a      	orrs	r2, r3
 80027a0:	68fb      	ldr	r3, [r7, #12]
 80027a2:	645a      	str	r2, [r3, #68]	@ 0x44
          hi2c->State = HAL_I2C_STATE_READY;
 80027a4:	68fb      	ldr	r3, [r7, #12]
 80027a6:	2241      	movs	r2, #65	@ 0x41
 80027a8:	2120      	movs	r1, #32
 80027aa:	5499      	strb	r1, [r3, r2]
          hi2c->Mode = HAL_I2C_MODE_NONE;
 80027ac:	68fb      	ldr	r3, [r7, #12]
 80027ae:	2242      	movs	r2, #66	@ 0x42
 80027b0:	2100      	movs	r1, #0
 80027b2:	5499      	strb	r1, [r3, r2]

          /* Process Unlocked */
          __HAL_UNLOCK(hi2c);
 80027b4:	68fb      	ldr	r3, [r7, #12]
 80027b6:	2240      	movs	r2, #64	@ 0x40
 80027b8:	2100      	movs	r1, #0
 80027ba:	5499      	strb	r1, [r3, r2]
          return HAL_ERROR;
 80027bc:	2301      	movs	r3, #1
 80027be:	e00f      	b.n	80027e0 <I2C_WaitOnFlagUntilTimeout+0xa8>
  while (__HAL_I2C_GET_FLAG(hi2c, Flag) == Status)
 80027c0:	68fb      	ldr	r3, [r7, #12]
 80027c2:	681b      	ldr	r3, [r3, #0]
 80027c4:	699b      	ldr	r3, [r3, #24]
 80027c6:	68ba      	ldr	r2, [r7, #8]
 80027c8:	4013      	ands	r3, r2
 80027ca:	68ba      	ldr	r2, [r7, #8]
 80027cc:	1ad3      	subs	r3, r2, r3
 80027ce:	425a      	negs	r2, r3
 80027d0:	4153      	adcs	r3, r2
 80027d2:	b2db      	uxtb	r3, r3
 80027d4:	001a      	movs	r2, r3
 80027d6:	1dfb      	adds	r3, r7, #7
 80027d8:	781b      	ldrb	r3, [r3, #0]
 80027da:	429a      	cmp	r2, r3
 80027dc:	d0b5      	beq.n	800274a <I2C_WaitOnFlagUntilTimeout+0x12>
        }
      }
    }
  }
  return HAL_OK;
 80027de:	2300      	movs	r3, #0
}
 80027e0:	0018      	movs	r0, r3
 80027e2:	46bd      	mov	sp, r7
 80027e4:	b004      	add	sp, #16
 80027e6:	bd80      	pop	{r7, pc}

080027e8 <I2C_WaitOnTXISFlagUntilTimeout>:
  * @param  Tickstart Tick start value
  * @retval HAL status
  */
static HAL_StatusTypeDef I2C_WaitOnTXISFlagUntilTimeout(I2C_HandleTypeDef *hi2c, uint32_t Timeout,
                                                        uint32_t Tickstart)
{
 80027e8:	b580      	push	{r7, lr}
 80027ea:	b084      	sub	sp, #16
 80027ec:	af00      	add	r7, sp, #0
 80027ee:	60f8      	str	r0, [r7, #12]
 80027f0:	60b9      	str	r1, [r7, #8]
 80027f2:	607a      	str	r2, [r7, #4]
  while (__HAL_I2C_GET_FLAG(hi2c, I2C_FLAG_TXIS) == RESET)
 80027f4:	e032      	b.n	800285c <I2C_WaitOnTXISFlagUntilTimeout+0x74>
  {
    /* Check if an error is detected */
    if (I2C_IsErrorOccurred(hi2c, Timeout, Tickstart) != HAL_OK)
 80027f6:	687a      	ldr	r2, [r7, #4]
 80027f8:	68b9      	ldr	r1, [r7, #8]
 80027fa:	68fb      	ldr	r3, [r7, #12]
 80027fc:	0018      	movs	r0, r3
 80027fe:	f000 f87d 	bl	80028fc <I2C_IsErrorOccurred>
 8002802:	1e03      	subs	r3, r0, #0
 8002804:	d001      	beq.n	800280a <I2C_WaitOnTXISFlagUntilTimeout+0x22>
    {
      return HAL_ERROR;
 8002806:	2301      	movs	r3, #1
 8002808:	e030      	b.n	800286c <I2C_WaitOnTXISFlagUntilTimeout+0x84>
    }

    /* Check for the Timeout */
    if (Timeout != HAL_MAX_DELAY)
 800280a:	68bb      	ldr	r3, [r7, #8]
 800280c:	3301      	adds	r3, #1
 800280e:	d025      	beq.n	800285c <I2C_WaitOnTXISFlagUntilTimeout+0x74>
    {
      if (((HAL_GetTick() - Tickstart) > Timeout) || (Timeout == 0U))
 8002810:	f7ff f926 	bl	8001a60 <HAL_GetTick>
 8002814:	0002      	movs	r2, r0
 8002816:	687b      	ldr	r3, [r7, #4]
 8002818:	1ad3      	subs	r3, r2, r3
 800281a:	68ba      	ldr	r2, [r7, #8]
 800281c:	429a      	cmp	r2, r3
 800281e:	d302      	bcc.n	8002826 <I2C_WaitOnTXISFlagUntilTimeout+0x3e>
 8002820:	68bb      	ldr	r3, [r7, #8]
 8002822:	2b00      	cmp	r3, #0
 8002824:	d11a      	bne.n	800285c <I2C_WaitOnTXISFlagUntilTimeout+0x74>
      {
        if ((__HAL_I2C_GET_FLAG(hi2c, I2C_FLAG_TXIS) == RESET))
 8002826:	68fb      	ldr	r3, [r7, #12]
 8002828:	681b      	ldr	r3, [r3, #0]
 800282a:	699b      	ldr	r3, [r3, #24]
 800282c:	2202      	movs	r2, #2
 800282e:	4013      	ands	r3, r2
 8002830:	2b02      	cmp	r3, #2
 8002832:	d013      	beq.n	800285c <I2C_WaitOnTXISFlagUntilTimeout+0x74>
        {
          hi2c->ErrorCode |= HAL_I2C_ERROR_TIMEOUT;
 8002834:	68fb      	ldr	r3, [r7, #12]
 8002836:	6c5b      	ldr	r3, [r3, #68]	@ 0x44
 8002838:	2220      	movs	r2, #32
 800283a:	431a      	orrs	r2, r3
 800283c:	68fb      	ldr	r3, [r7, #12]
 800283e:	645a      	str	r2, [r3, #68]	@ 0x44
          hi2c->State = HAL_I2C_STATE_READY;
 8002840:	68fb      	ldr	r3, [r7, #12]
 8002842:	2241      	movs	r2, #65	@ 0x41
 8002844:	2120      	movs	r1, #32
 8002846:	5499      	strb	r1, [r3, r2]
          hi2c->Mode = HAL_I2C_MODE_NONE;
 8002848:	68fb      	ldr	r3, [r7, #12]
 800284a:	2242      	movs	r2, #66	@ 0x42
 800284c:	2100      	movs	r1, #0
 800284e:	5499      	strb	r1, [r3, r2]

          /* Process Unlocked */
          __HAL_UNLOCK(hi2c);
 8002850:	68fb      	ldr	r3, [r7, #12]
 8002852:	2240      	movs	r2, #64	@ 0x40
 8002854:	2100      	movs	r1, #0
 8002856:	5499      	strb	r1, [r3, r2]

          return HAL_ERROR;
 8002858:	2301      	movs	r3, #1
 800285a:	e007      	b.n	800286c <I2C_WaitOnTXISFlagUntilTimeout+0x84>
  while (__HAL_I2C_GET_FLAG(hi2c, I2C_FLAG_TXIS) == RESET)
 800285c:	68fb      	ldr	r3, [r7, #12]
 800285e:	681b      	ldr	r3, [r3, #0]
 8002860:	699b      	ldr	r3, [r3, #24]
 8002862:	2202      	movs	r2, #2
 8002864:	4013      	ands	r3, r2
 8002866:	2b02      	cmp	r3, #2
 8002868:	d1c5      	bne.n	80027f6 <I2C_WaitOnTXISFlagUntilTimeout+0xe>
        }
      }
    }
  }
  return HAL_OK;
 800286a:	2300      	movs	r3, #0
}
 800286c:	0018      	movs	r0, r3
 800286e:	46bd      	mov	sp, r7
 8002870:	b004      	add	sp, #16
 8002872:	bd80      	pop	{r7, pc}

08002874 <I2C_WaitOnSTOPFlagUntilTimeout>:
  * @param  Tickstart Tick start value
  * @retval HAL status
  */
static HAL_StatusTypeDef I2C_WaitOnSTOPFlagUntilTimeout(I2C_HandleTypeDef *hi2c, uint32_t Timeout,
                                                        uint32_t Tickstart)
{
 8002874:	b580      	push	{r7, lr}
 8002876:	b084      	sub	sp, #16
 8002878:	af00      	add	r7, sp, #0
 800287a:	60f8      	str	r0, [r7, #12]
 800287c:	60b9      	str	r1, [r7, #8]
 800287e:	607a      	str	r2, [r7, #4]
  while (__HAL_I2C_GET_FLAG(hi2c, I2C_FLAG_STOPF) == RESET)
 8002880:	e02f      	b.n	80028e2 <I2C_WaitOnSTOPFlagUntilTimeout+0x6e>
  {
    /* Check if an error is detected */
    if (I2C_IsErrorOccurred(hi2c, Timeout, Tickstart) != HAL_OK)
 8002882:	687a      	ldr	r2, [r7, #4]
 8002884:	68b9      	ldr	r1, [r7, #8]
 8002886:	68fb      	ldr	r3, [r7, #12]
 8002888:	0018      	movs	r0, r3
 800288a:	f000 f837 	bl	80028fc <I2C_IsErrorOccurred>
 800288e:	1e03      	subs	r3, r0, #0
 8002890:	d001      	beq.n	8002896 <I2C_WaitOnSTOPFlagUntilTimeout+0x22>
    {
      return HAL_ERROR;
 8002892:	2301      	movs	r3, #1
 8002894:	e02d      	b.n	80028f2 <I2C_WaitOnSTOPFlagUntilTimeout+0x7e>
    }

    /* Check for the Timeout */
    if (((HAL_GetTick() - Tickstart) > Timeout) || (Timeout == 0U))
 8002896:	f7ff f8e3 	bl	8001a60 <HAL_GetTick>
 800289a:	0002      	movs	r2, r0
 800289c:	687b      	ldr	r3, [r7, #4]
 800289e:	1ad3      	subs	r3, r2, r3
 80028a0:	68ba      	ldr	r2, [r7, #8]
 80028a2:	429a      	cmp	r2, r3
 80028a4:	d302      	bcc.n	80028ac <I2C_WaitOnSTOPFlagUntilTimeout+0x38>
 80028a6:	68bb      	ldr	r3, [r7, #8]
 80028a8:	2b00      	cmp	r3, #0
 80028aa:	d11a      	bne.n	80028e2 <I2C_WaitOnSTOPFlagUntilTimeout+0x6e>
    {
      if ((__HAL_I2C_GET_FLAG(hi2c, I2C_FLAG_STOPF) == RESET))
 80028ac:	68fb      	ldr	r3, [r7, #12]
 80028ae:	681b      	ldr	r3, [r3, #0]
 80028b0:	699b      	ldr	r3, [r3, #24]
 80028b2:	2220      	movs	r2, #32
 80028b4:	4013      	ands	r3, r2
 80028b6:	2b20      	cmp	r3, #32
 80028b8:	d013      	beq.n	80028e2 <I2C_WaitOnSTOPFlagUntilTimeout+0x6e>
      {
        hi2c->ErrorCode |= HAL_I2C_ERROR_TIMEOUT;
 80028ba:	68fb      	ldr	r3, [r7, #12]
 80028bc:	6c5b      	ldr	r3, [r3, #68]	@ 0x44
 80028be:	2220      	movs	r2, #32
 80028c0:	431a      	orrs	r2, r3
 80028c2:	68fb      	ldr	r3, [r7, #12]
 80028c4:	645a      	str	r2, [r3, #68]	@ 0x44
        hi2c->State = HAL_I2C_STATE_READY;
 80028c6:	68fb      	ldr	r3, [r7, #12]
 80028c8:	2241      	movs	r2, #65	@ 0x41
 80028ca:	2120      	movs	r1, #32
 80028cc:	5499      	strb	r1, [r3, r2]
        hi2c->Mode = HAL_I2C_MODE_NONE;
 80028ce:	68fb      	ldr	r3, [r7, #12]
 80028d0:	2242      	movs	r2, #66	@ 0x42
 80028d2:	2100      	movs	r1, #0
 80028d4:	5499      	strb	r1, [r3, r2]

        /* Process Unlocked */
        __HAL_UNLOCK(hi2c);
 80028d6:	68fb      	ldr	r3, [r7, #12]
 80028d8:	2240      	movs	r2, #64	@ 0x40
 80028da:	2100      	movs	r1, #0
 80028dc:	5499      	strb	r1, [r3, r2]

        return HAL_ERROR;
 80028de:	2301      	movs	r3, #1
 80028e0:	e007      	b.n	80028f2 <I2C_WaitOnSTOPFlagUntilTimeout+0x7e>
  while (__HAL_I2C_GET_FLAG(hi2c, I2C_FLAG_STOPF) == RESET)
 80028e2:	68fb      	ldr	r3, [r7, #12]
 80028e4:	681b      	ldr	r3, [r3, #0]
 80028e6:	699b      	ldr	r3, [r3, #24]
 80028e8:	2220      	movs	r2, #32
 80028ea:	4013      	ands	r3, r2
 80028ec:	2b20      	cmp	r3, #32
 80028ee:	d1c8      	bne.n	8002882 <I2C_WaitOnSTOPFlagUntilTimeout+0xe>
      }
    }
  }
  return HAL_OK;
 80028f0:	2300      	movs	r3, #0
}
 80028f2:	0018      	movs	r0, r3
 80028f4:	46bd      	mov	sp, r7
 80028f6:	b004      	add	sp, #16
 80028f8:	bd80      	pop	{r7, pc}
	...

080028fc <I2C_IsErrorOccurred>:
  * @param  Timeout Timeout duration
  * @param  Tickstart Tick start value
  * @retval HAL status
  */
static HAL_StatusTypeDef I2C_IsErrorOccurred(I2C_HandleTypeDef *hi2c, uint32_t Timeout, uint32_t Tickstart)
{
 80028fc:	b580      	push	{r7, lr}
 80028fe:	b08a      	sub	sp, #40	@ 0x28
 8002900:	af00      	add	r7, sp, #0
 8002902:	60f8      	str	r0, [r7, #12]
 8002904:	60b9      	str	r1, [r7, #8]
 8002906:	607a      	str	r2, [r7, #4]
  HAL_StatusTypeDef status = HAL_OK;
 8002908:	2327      	movs	r3, #39	@ 0x27
 800290a:	18fb      	adds	r3, r7, r3
 800290c:	2200      	movs	r2, #0
 800290e:	701a      	strb	r2, [r3, #0]
  uint32_t itflag   = hi2c->Instance->ISR;
 8002910:	68fb      	ldr	r3, [r7, #12]
 8002912:	681b      	ldr	r3, [r3, #0]
 8002914:	699b      	ldr	r3, [r3, #24]
 8002916:	61bb      	str	r3, [r7, #24]
  uint32_t error_code = 0;
 8002918:	2300      	movs	r3, #0
 800291a:	623b      	str	r3, [r7, #32]
  uint32_t tickstart = Tickstart;
 800291c:	687b      	ldr	r3, [r7, #4]
 800291e:	61fb      	str	r3, [r7, #28]
  uint32_t tmp1;
  HAL_I2C_ModeTypeDef tmp2;

  if (HAL_IS_BIT_SET(itflag, I2C_FLAG_AF))
 8002920:	69bb      	ldr	r3, [r7, #24]
 8002922:	2210      	movs	r2, #16
 8002924:	4013      	ands	r3, r2
 8002926:	d100      	bne.n	800292a <I2C_IsErrorOccurred+0x2e>
 8002928:	e079      	b.n	8002a1e <I2C_IsErrorOccurred+0x122>
  {
    /* Clear NACKF Flag */
    __HAL_I2C_CLEAR_FLAG(hi2c, I2C_FLAG_AF);
 800292a:	68fb      	ldr	r3, [r7, #12]
 800292c:	681b      	ldr	r3, [r3, #0]
 800292e:	2210      	movs	r2, #16
 8002930:	61da      	str	r2, [r3, #28]

    /* Wait until STOP Flag is set or timeout occurred */
    /* AutoEnd should be initiate after AF */
    while ((__HAL_I2C_GET_FLAG(hi2c, I2C_FLAG_STOPF) == RESET) && (status == HAL_OK))
 8002932:	e057      	b.n	80029e4 <I2C_IsErrorOccurred+0xe8>
 8002934:	2227      	movs	r2, #39	@ 0x27
 8002936:	18bb      	adds	r3, r7, r2
 8002938:	18ba      	adds	r2, r7, r2
 800293a:	7812      	ldrb	r2, [r2, #0]
 800293c:	701a      	strb	r2, [r3, #0]
    {
      /* Check for the Timeout */
      if (Timeout != HAL_MAX_DELAY)
 800293e:	68bb      	ldr	r3, [r7, #8]
 8002940:	3301      	adds	r3, #1
 8002942:	d04f      	beq.n	80029e4 <I2C_IsErrorOccurred+0xe8>
      {
        if (((HAL_GetTick() - tickstart) > Timeout) || (Timeout == 0U))
 8002944:	f7ff f88c 	bl	8001a60 <HAL_GetTick>
 8002948:	0002      	movs	r2, r0
 800294a:	69fb      	ldr	r3, [r7, #28]
 800294c:	1ad3      	subs	r3, r2, r3
 800294e:	68ba      	ldr	r2, [r7, #8]
 8002950:	429a      	cmp	r2, r3
 8002952:	d302      	bcc.n	800295a <I2C_IsErrorOccurred+0x5e>
 8002954:	68bb      	ldr	r3, [r7, #8]
 8002956:	2b00      	cmp	r3, #0
 8002958:	d144      	bne.n	80029e4 <I2C_IsErrorOccurred+0xe8>
        {
          tmp1 = (uint32_t)(hi2c->Instance->CR2 & I2C_CR2_STOP);
 800295a:	68fb      	ldr	r3, [r7, #12]
 800295c:	681b      	ldr	r3, [r3, #0]
 800295e:	685a      	ldr	r2, [r3, #4]
 8002960:	2380      	movs	r3, #128	@ 0x80
 8002962:	01db      	lsls	r3, r3, #7
 8002964:	4013      	ands	r3, r2
 8002966:	617b      	str	r3, [r7, #20]
          tmp2 = hi2c->Mode;
 8002968:	2013      	movs	r0, #19
 800296a:	183b      	adds	r3, r7, r0
 800296c:	68fa      	ldr	r2, [r7, #12]
 800296e:	2142      	movs	r1, #66	@ 0x42
 8002970:	5c52      	ldrb	r2, [r2, r1]
 8002972:	701a      	strb	r2, [r3, #0]

          /* In case of I2C still busy, try to regenerate a STOP manually */
          if ((__HAL_I2C_GET_FLAG(hi2c, I2C_FLAG_BUSY) != RESET) && \
 8002974:	68fb      	ldr	r3, [r7, #12]
 8002976:	681b      	ldr	r3, [r3, #0]
 8002978:	699a      	ldr	r2, [r3, #24]
 800297a:	2380      	movs	r3, #128	@ 0x80
 800297c:	021b      	lsls	r3, r3, #8
 800297e:	401a      	ands	r2, r3
 8002980:	2380      	movs	r3, #128	@ 0x80
 8002982:	021b      	lsls	r3, r3, #8
 8002984:	429a      	cmp	r2, r3
 8002986:	d126      	bne.n	80029d6 <I2C_IsErrorOccurred+0xda>
 8002988:	697a      	ldr	r2, [r7, #20]
 800298a:	2380      	movs	r3, #128	@ 0x80
 800298c:	01db      	lsls	r3, r3, #7
 800298e:	429a      	cmp	r2, r3
 8002990:	d021      	beq.n	80029d6 <I2C_IsErrorOccurred+0xda>
              (tmp1 != I2C_CR2_STOP) && \
 8002992:	183b      	adds	r3, r7, r0
 8002994:	781b      	ldrb	r3, [r3, #0]
 8002996:	2b20      	cmp	r3, #32
 8002998:	d01d      	beq.n	80029d6 <I2C_IsErrorOccurred+0xda>
              (tmp2 != HAL_I2C_MODE_SLAVE))
          {
            /* Generate Stop */
            hi2c->Instance->CR2 |= I2C_CR2_STOP;
 800299a:	68fb      	ldr	r3, [r7, #12]
 800299c:	681b      	ldr	r3, [r3, #0]
 800299e:	685a      	ldr	r2, [r3, #4]
 80029a0:	68fb      	ldr	r3, [r7, #12]
 80029a2:	681b      	ldr	r3, [r3, #0]
 80029a4:	2180      	movs	r1, #128	@ 0x80
 80029a6:	01c9      	lsls	r1, r1, #7
 80029a8:	430a      	orrs	r2, r1
 80029aa:	605a      	str	r2, [r3, #4]

            /* Update Tick with new reference */
            tickstart = HAL_GetTick();
 80029ac:	f7ff f858 	bl	8001a60 <HAL_GetTick>
 80029b0:	0003      	movs	r3, r0
 80029b2:	61fb      	str	r3, [r7, #28]
          }

          while (__HAL_I2C_GET_FLAG(hi2c, I2C_FLAG_STOPF) == RESET)
 80029b4:	e00f      	b.n	80029d6 <I2C_IsErrorOccurred+0xda>
          {
            /* Check for the Timeout */
            if ((HAL_GetTick() - tickstart) > I2C_TIMEOUT_STOPF)
 80029b6:	f7ff f853 	bl	8001a60 <HAL_GetTick>
 80029ba:	0002      	movs	r2, r0
 80029bc:	69fb      	ldr	r3, [r7, #28]
 80029be:	1ad3      	subs	r3, r2, r3
 80029c0:	2b19      	cmp	r3, #25
 80029c2:	d908      	bls.n	80029d6 <I2C_IsErrorOccurred+0xda>
            {
              error_code |= HAL_I2C_ERROR_TIMEOUT;
 80029c4:	6a3b      	ldr	r3, [r7, #32]
 80029c6:	2220      	movs	r2, #32
 80029c8:	4313      	orrs	r3, r2
 80029ca:	623b      	str	r3, [r7, #32]

              status = HAL_ERROR;
 80029cc:	2327      	movs	r3, #39	@ 0x27
 80029ce:	18fb      	adds	r3, r7, r3
 80029d0:	2201      	movs	r2, #1
 80029d2:	701a      	strb	r2, [r3, #0]

              break;
 80029d4:	e006      	b.n	80029e4 <I2C_IsErrorOccurred+0xe8>
          while (__HAL_I2C_GET_FLAG(hi2c, I2C_FLAG_STOPF) == RESET)
 80029d6:	68fb      	ldr	r3, [r7, #12]
 80029d8:	681b      	ldr	r3, [r3, #0]
 80029da:	699b      	ldr	r3, [r3, #24]
 80029dc:	2220      	movs	r2, #32
 80029de:	4013      	ands	r3, r2
 80029e0:	2b20      	cmp	r3, #32
 80029e2:	d1e8      	bne.n	80029b6 <I2C_IsErrorOccurred+0xba>
    while ((__HAL_I2C_GET_FLAG(hi2c, I2C_FLAG_STOPF) == RESET) && (status == HAL_OK))
 80029e4:	68fb      	ldr	r3, [r7, #12]
 80029e6:	681b      	ldr	r3, [r3, #0]
 80029e8:	699b      	ldr	r3, [r3, #24]
 80029ea:	2220      	movs	r2, #32
 80029ec:	4013      	ands	r3, r2
 80029ee:	2b20      	cmp	r3, #32
 80029f0:	d004      	beq.n	80029fc <I2C_IsErrorOccurred+0x100>
 80029f2:	2327      	movs	r3, #39	@ 0x27
 80029f4:	18fb      	adds	r3, r7, r3
 80029f6:	781b      	ldrb	r3, [r3, #0]
 80029f8:	2b00      	cmp	r3, #0
 80029fa:	d09b      	beq.n	8002934 <I2C_IsErrorOccurred+0x38>
        }
      }
    }

    /* In case STOP Flag is detected, clear it */
    if (status == HAL_OK)
 80029fc:	2327      	movs	r3, #39	@ 0x27
 80029fe:	18fb      	adds	r3, r7, r3
 8002a00:	781b      	ldrb	r3, [r3, #0]
 8002a02:	2b00      	cmp	r3, #0
 8002a04:	d103      	bne.n	8002a0e <I2C_IsErrorOccurred+0x112>
    {
      /* Clear STOP Flag */
      __HAL_I2C_CLEAR_FLAG(hi2c, I2C_FLAG_STOPF);
 8002a06:	68fb      	ldr	r3, [r7, #12]
 8002a08:	681b      	ldr	r3, [r3, #0]
 8002a0a:	2220      	movs	r2, #32
 8002a0c:	61da      	str	r2, [r3, #28]
    }

    error_code |= HAL_I2C_ERROR_AF;
 8002a0e:	6a3b      	ldr	r3, [r7, #32]
 8002a10:	2204      	movs	r2, #4
 8002a12:	4313      	orrs	r3, r2
 8002a14:	623b      	str	r3, [r7, #32]

    status = HAL_ERROR;
 8002a16:	2327      	movs	r3, #39	@ 0x27
 8002a18:	18fb      	adds	r3, r7, r3
 8002a1a:	2201      	movs	r2, #1
 8002a1c:	701a      	strb	r2, [r3, #0]
  }

  /* Refresh Content of Status register */
  itflag = hi2c->Instance->ISR;
 8002a1e:	68fb      	ldr	r3, [r7, #12]
 8002a20:	681b      	ldr	r3, [r3, #0]
 8002a22:	699b      	ldr	r3, [r3, #24]
 8002a24:	61bb      	str	r3, [r7, #24]

  /* Then verify if an additional errors occurs */
  /* Check if a Bus error occurred */
  if (HAL_IS_BIT_SET(itflag, I2C_FLAG_BERR))
 8002a26:	69ba      	ldr	r2, [r7, #24]
 8002a28:	2380      	movs	r3, #128	@ 0x80
 8002a2a:	005b      	lsls	r3, r3, #1
 8002a2c:	4013      	ands	r3, r2
 8002a2e:	d00c      	beq.n	8002a4a <I2C_IsErrorOccurred+0x14e>
  {
    error_code |= HAL_I2C_ERROR_BERR;
 8002a30:	6a3b      	ldr	r3, [r7, #32]
 8002a32:	2201      	movs	r2, #1
 8002a34:	4313      	orrs	r3, r2
 8002a36:	623b      	str	r3, [r7, #32]

    /* Clear BERR flag */
    __HAL_I2C_CLEAR_FLAG(hi2c, I2C_FLAG_BERR);
 8002a38:	68fb      	ldr	r3, [r7, #12]
 8002a3a:	681b      	ldr	r3, [r3, #0]
 8002a3c:	2280      	movs	r2, #128	@ 0x80
 8002a3e:	0052      	lsls	r2, r2, #1
 8002a40:	61da      	str	r2, [r3, #28]

    status = HAL_ERROR;
 8002a42:	2327      	movs	r3, #39	@ 0x27
 8002a44:	18fb      	adds	r3, r7, r3
 8002a46:	2201      	movs	r2, #1
 8002a48:	701a      	strb	r2, [r3, #0]
  }

  /* Check if an Over-Run/Under-Run error occurred */
  if (HAL_IS_BIT_SET(itflag, I2C_FLAG_OVR))
 8002a4a:	69ba      	ldr	r2, [r7, #24]
 8002a4c:	2380      	movs	r3, #128	@ 0x80
 8002a4e:	00db      	lsls	r3, r3, #3
 8002a50:	4013      	ands	r3, r2
 8002a52:	d00c      	beq.n	8002a6e <I2C_IsErrorOccurred+0x172>
  {
    error_code |= HAL_I2C_ERROR_OVR;
 8002a54:	6a3b      	ldr	r3, [r7, #32]
 8002a56:	2208      	movs	r2, #8
 8002a58:	4313      	orrs	r3, r2
 8002a5a:	623b      	str	r3, [r7, #32]

    /* Clear OVR flag */
    __HAL_I2C_CLEAR_FLAG(hi2c, I2C_FLAG_OVR);
 8002a5c:	68fb      	ldr	r3, [r7, #12]
 8002a5e:	681b      	ldr	r3, [r3, #0]
 8002a60:	2280      	movs	r2, #128	@ 0x80
 8002a62:	00d2      	lsls	r2, r2, #3
 8002a64:	61da      	str	r2, [r3, #28]

    status = HAL_ERROR;
 8002a66:	2327      	movs	r3, #39	@ 0x27
 8002a68:	18fb      	adds	r3, r7, r3
 8002a6a:	2201      	movs	r2, #1
 8002a6c:	701a      	strb	r2, [r3, #0]
  }

  /* Check if an Arbitration Loss error occurred */
  if (HAL_IS_BIT_SET(itflag, I2C_FLAG_ARLO))
 8002a6e:	69ba      	ldr	r2, [r7, #24]
 8002a70:	2380      	movs	r3, #128	@ 0x80
 8002a72:	009b      	lsls	r3, r3, #2
 8002a74:	4013      	ands	r3, r2
 8002a76:	d00c      	beq.n	8002a92 <I2C_IsErrorOccurred+0x196>
  {
    error_code |= HAL_I2C_ERROR_ARLO;
 8002a78:	6a3b      	ldr	r3, [r7, #32]
 8002a7a:	2202      	movs	r2, #2
 8002a7c:	4313      	orrs	r3, r2
 8002a7e:	623b      	str	r3, [r7, #32]

    /* Clear ARLO flag */
    __HAL_I2C_CLEAR_FLAG(hi2c, I2C_FLAG_ARLO);
 8002a80:	68fb      	ldr	r3, [r7, #12]
 8002a82:	681b      	ldr	r3, [r3, #0]
 8002a84:	2280      	movs	r2, #128	@ 0x80
 8002a86:	0092      	lsls	r2, r2, #2
 8002a88:	61da      	str	r2, [r3, #28]

    status = HAL_ERROR;
 8002a8a:	2327      	movs	r3, #39	@ 0x27
 8002a8c:	18fb      	adds	r3, r7, r3
 8002a8e:	2201      	movs	r2, #1
 8002a90:	701a      	strb	r2, [r3, #0]
  }

  if (status != HAL_OK)
 8002a92:	2327      	movs	r3, #39	@ 0x27
 8002a94:	18fb      	adds	r3, r7, r3
 8002a96:	781b      	ldrb	r3, [r3, #0]
 8002a98:	2b00      	cmp	r3, #0
 8002a9a:	d01d      	beq.n	8002ad8 <I2C_IsErrorOccurred+0x1dc>
  {
    /* Flush TX register */
    I2C_Flush_TXDR(hi2c);
 8002a9c:	68fb      	ldr	r3, [r7, #12]
 8002a9e:	0018      	movs	r0, r3
 8002aa0:	f7ff fe28 	bl	80026f4 <I2C_Flush_TXDR>

    /* Clear Configuration Register 2 */
    I2C_RESET_CR2(hi2c);
 8002aa4:	68fb      	ldr	r3, [r7, #12]
 8002aa6:	681b      	ldr	r3, [r3, #0]
 8002aa8:	685a      	ldr	r2, [r3, #4]
 8002aaa:	68fb      	ldr	r3, [r7, #12]
 8002aac:	681b      	ldr	r3, [r3, #0]
 8002aae:	490e      	ldr	r1, [pc, #56]	@ (8002ae8 <I2C_IsErrorOccurred+0x1ec>)
 8002ab0:	400a      	ands	r2, r1
 8002ab2:	605a      	str	r2, [r3, #4]

    hi2c->ErrorCode |= error_code;
 8002ab4:	68fb      	ldr	r3, [r7, #12]
 8002ab6:	6c5a      	ldr	r2, [r3, #68]	@ 0x44
 8002ab8:	6a3b      	ldr	r3, [r7, #32]
 8002aba:	431a      	orrs	r2, r3
 8002abc:	68fb      	ldr	r3, [r7, #12]
 8002abe:	645a      	str	r2, [r3, #68]	@ 0x44
    hi2c->State = HAL_I2C_STATE_READY;
 8002ac0:	68fb      	ldr	r3, [r7, #12]
 8002ac2:	2241      	movs	r2, #65	@ 0x41
 8002ac4:	2120      	movs	r1, #32
 8002ac6:	5499      	strb	r1, [r3, r2]
    hi2c->Mode = HAL_I2C_MODE_NONE;
 8002ac8:	68fb      	ldr	r3, [r7, #12]
 8002aca:	2242      	movs	r2, #66	@ 0x42
 8002acc:	2100      	movs	r1, #0
 8002ace:	5499      	strb	r1, [r3, r2]

    /* Process Unlocked */
    __HAL_UNLOCK(hi2c);
 8002ad0:	68fb      	ldr	r3, [r7, #12]
 8002ad2:	2240      	movs	r2, #64	@ 0x40
 8002ad4:	2100      	movs	r1, #0
 8002ad6:	5499      	strb	r1, [r3, r2]
  }

  return status;
 8002ad8:	2327      	movs	r3, #39	@ 0x27
 8002ada:	18fb      	adds	r3, r7, r3
 8002adc:	781b      	ldrb	r3, [r3, #0]
}
 8002ade:	0018      	movs	r0, r3
 8002ae0:	46bd      	mov	sp, r7
 8002ae2:	b00a      	add	sp, #40	@ 0x28
 8002ae4:	bd80      	pop	{r7, pc}
 8002ae6:	46c0      	nop			@ (mov r8, r8)
 8002ae8:	fe00e800 	.word	0xfe00e800

08002aec <I2C_TransferConfig>:
  *     @arg @ref I2C_GENERATE_START_WRITE Generate Restart for write request.
  * @retval None
  */
static void I2C_TransferConfig(I2C_HandleTypeDef *hi2c, uint16_t DevAddress, uint8_t Size, uint32_t Mode,
                               uint32_t Request)
{
 8002aec:	b590      	push	{r4, r7, lr}
 8002aee:	b087      	sub	sp, #28
 8002af0:	af00      	add	r7, sp, #0
 8002af2:	60f8      	str	r0, [r7, #12]
 8002af4:	0008      	movs	r0, r1
 8002af6:	0011      	movs	r1, r2
 8002af8:	607b      	str	r3, [r7, #4]
 8002afa:	240a      	movs	r4, #10
 8002afc:	193b      	adds	r3, r7, r4
 8002afe:	1c02      	adds	r2, r0, #0
 8002b00:	801a      	strh	r2, [r3, #0]
 8002b02:	2009      	movs	r0, #9
 8002b04:	183b      	adds	r3, r7, r0
 8002b06:	1c0a      	adds	r2, r1, #0
 8002b08:	701a      	strb	r2, [r3, #0]
  assert_param(IS_I2C_ALL_INSTANCE(hi2c->Instance));
  assert_param(IS_TRANSFER_MODE(Mode));
  assert_param(IS_TRANSFER_REQUEST(Request));

  /* Declaration of tmp to prevent undefined behavior of volatile usage */
  uint32_t tmp = ((uint32_t)(((uint32_t)DevAddress & I2C_CR2_SADD) | \
 8002b0a:	193b      	adds	r3, r7, r4
 8002b0c:	881b      	ldrh	r3, [r3, #0]
 8002b0e:	059b      	lsls	r3, r3, #22
 8002b10:	0d9a      	lsrs	r2, r3, #22
                             (((uint32_t)Size << I2C_CR2_NBYTES_Pos) & I2C_CR2_NBYTES) | \
 8002b12:	183b      	adds	r3, r7, r0
 8002b14:	781b      	ldrb	r3, [r3, #0]
 8002b16:	0419      	lsls	r1, r3, #16
 8002b18:	23ff      	movs	r3, #255	@ 0xff
 8002b1a:	041b      	lsls	r3, r3, #16
 8002b1c:	400b      	ands	r3, r1
  uint32_t tmp = ((uint32_t)(((uint32_t)DevAddress & I2C_CR2_SADD) | \
 8002b1e:	431a      	orrs	r2, r3
                             (((uint32_t)Size << I2C_CR2_NBYTES_Pos) & I2C_CR2_NBYTES) | \
 8002b20:	687b      	ldr	r3, [r7, #4]
 8002b22:	431a      	orrs	r2, r3
  uint32_t tmp = ((uint32_t)(((uint32_t)DevAddress & I2C_CR2_SADD) | \
 8002b24:	6abb      	ldr	r3, [r7, #40]	@ 0x28
 8002b26:	4313      	orrs	r3, r2
 8002b28:	005b      	lsls	r3, r3, #1
 8002b2a:	085b      	lsrs	r3, r3, #1
 8002b2c:	617b      	str	r3, [r7, #20]
                             (uint32_t)Mode | (uint32_t)Request) & (~0x80000000U));

  /* update CR2 register */
  MODIFY_REG(hi2c->Instance->CR2, \
 8002b2e:	68fb      	ldr	r3, [r7, #12]
 8002b30:	681b      	ldr	r3, [r3, #0]
 8002b32:	685b      	ldr	r3, [r3, #4]
 8002b34:	6aba      	ldr	r2, [r7, #40]	@ 0x28
 8002b36:	0d51      	lsrs	r1, r2, #21
 8002b38:	2280      	movs	r2, #128	@ 0x80
 8002b3a:	00d2      	lsls	r2, r2, #3
 8002b3c:	400a      	ands	r2, r1
 8002b3e:	4907      	ldr	r1, [pc, #28]	@ (8002b5c <I2C_TransferConfig+0x70>)
 8002b40:	430a      	orrs	r2, r1
 8002b42:	43d2      	mvns	r2, r2
 8002b44:	401a      	ands	r2, r3
 8002b46:	0011      	movs	r1, r2
 8002b48:	68fb      	ldr	r3, [r7, #12]
 8002b4a:	681b      	ldr	r3, [r3, #0]
 8002b4c:	697a      	ldr	r2, [r7, #20]
 8002b4e:	430a      	orrs	r2, r1
 8002b50:	605a      	str	r2, [r3, #4]
             ((I2C_CR2_SADD | I2C_CR2_NBYTES | I2C_CR2_RELOAD | I2C_CR2_AUTOEND | \
               (I2C_CR2_RD_WRN & (uint32_t)(Request >> (31U - I2C_CR2_RD_WRN_Pos))) | \
               I2C_CR2_START | I2C_CR2_STOP)), tmp);
}
 8002b52:	46c0      	nop			@ (mov r8, r8)
 8002b54:	46bd      	mov	sp, r7
 8002b56:	b007      	add	sp, #28
 8002b58:	bd90      	pop	{r4, r7, pc}
 8002b5a:	46c0      	nop			@ (mov r8, r8)
 8002b5c:	03ff63ff 	.word	0x03ff63ff

08002b60 <HAL_I2CEx_ConfigAnalogFilter>:
  *                the configuration information for the specified I2Cx peripheral.
  * @param  AnalogFilter New state of the Analog filter.
  * @retval HAL status
  */
HAL_StatusTypeDef HAL_I2CEx_ConfigAnalogFilter(I2C_HandleTypeDef *hi2c, uint32_t AnalogFilter)
{
 8002b60:	b580      	push	{r7, lr}
 8002b62:	b082      	sub	sp, #8
 8002b64:	af00      	add	r7, sp, #0
 8002b66:	6078      	str	r0, [r7, #4]
 8002b68:	6039      	str	r1, [r7, #0]
  /* Check the parameters */
  assert_param(IS_I2C_ALL_INSTANCE(hi2c->Instance));
  assert_param(IS_I2C_ANALOG_FILTER(AnalogFilter));

  if (hi2c->State == HAL_I2C_STATE_READY)
 8002b6a:	687b      	ldr	r3, [r7, #4]
 8002b6c:	2241      	movs	r2, #65	@ 0x41
 8002b6e:	5c9b      	ldrb	r3, [r3, r2]
 8002b70:	b2db      	uxtb	r3, r3
 8002b72:	2b20      	cmp	r3, #32
 8002b74:	d138      	bne.n	8002be8 <HAL_I2CEx_ConfigAnalogFilter+0x88>
  {
    /* Process Locked */
    __HAL_LOCK(hi2c);
 8002b76:	687b      	ldr	r3, [r7, #4]
 8002b78:	2240      	movs	r2, #64	@ 0x40
 8002b7a:	5c9b      	ldrb	r3, [r3, r2]
 8002b7c:	2b01      	cmp	r3, #1
 8002b7e:	d101      	bne.n	8002b84 <HAL_I2CEx_ConfigAnalogFilter+0x24>
 8002b80:	2302      	movs	r3, #2
 8002b82:	e032      	b.n	8002bea <HAL_I2CEx_ConfigAnalogFilter+0x8a>
 8002b84:	687b      	ldr	r3, [r7, #4]
 8002b86:	2240      	movs	r2, #64	@ 0x40
 8002b88:	2101      	movs	r1, #1
 8002b8a:	5499      	strb	r1, [r3, r2]

    hi2c->State = HAL_I2C_STATE_BUSY;
 8002b8c:	687b      	ldr	r3, [r7, #4]
 8002b8e:	2241      	movs	r2, #65	@ 0x41
 8002b90:	2124      	movs	r1, #36	@ 0x24
 8002b92:	5499      	strb	r1, [r3, r2]

    /* Disable the selected I2C peripheral */
    __HAL_I2C_DISABLE(hi2c);
 8002b94:	687b      	ldr	r3, [r7, #4]
 8002b96:	681b      	ldr	r3, [r3, #0]
 8002b98:	681a      	ldr	r2, [r3, #0]
 8002b9a:	687b      	ldr	r3, [r7, #4]
 8002b9c:	681b      	ldr	r3, [r3, #0]
 8002b9e:	2101      	movs	r1, #1
 8002ba0:	438a      	bics	r2, r1
 8002ba2:	601a      	str	r2, [r3, #0]

    /* Reset I2Cx ANOFF bit */
    hi2c->Instance->CR1 &= ~(I2C_CR1_ANFOFF);
 8002ba4:	687b      	ldr	r3, [r7, #4]
 8002ba6:	681b      	ldr	r3, [r3, #0]
 8002ba8:	681a      	ldr	r2, [r3, #0]
 8002baa:	687b      	ldr	r3, [r7, #4]
 8002bac:	681b      	ldr	r3, [r3, #0]
 8002bae:	4911      	ldr	r1, [pc, #68]	@ (8002bf4 <HAL_I2CEx_ConfigAnalogFilter+0x94>)
 8002bb0:	400a      	ands	r2, r1
 8002bb2:	601a      	str	r2, [r3, #0]

    /* Set analog filter bit*/
    hi2c->Instance->CR1 |= AnalogFilter;
 8002bb4:	687b      	ldr	r3, [r7, #4]
 8002bb6:	681b      	ldr	r3, [r3, #0]
 8002bb8:	6819      	ldr	r1, [r3, #0]
 8002bba:	687b      	ldr	r3, [r7, #4]
 8002bbc:	681b      	ldr	r3, [r3, #0]
 8002bbe:	683a      	ldr	r2, [r7, #0]
 8002bc0:	430a      	orrs	r2, r1
 8002bc2:	601a      	str	r2, [r3, #0]

    __HAL_I2C_ENABLE(hi2c);
 8002bc4:	687b      	ldr	r3, [r7, #4]
 8002bc6:	681b      	ldr	r3, [r3, #0]
 8002bc8:	681a      	ldr	r2, [r3, #0]
 8002bca:	687b      	ldr	r3, [r7, #4]
 8002bcc:	681b      	ldr	r3, [r3, #0]
 8002bce:	2101      	movs	r1, #1
 8002bd0:	430a      	orrs	r2, r1
 8002bd2:	601a      	str	r2, [r3, #0]

    hi2c->State = HAL_I2C_STATE_READY;
 8002bd4:	687b      	ldr	r3, [r7, #4]
 8002bd6:	2241      	movs	r2, #65	@ 0x41
 8002bd8:	2120      	movs	r1, #32
 8002bda:	5499      	strb	r1, [r3, r2]

    /* Process Unlocked */
    __HAL_UNLOCK(hi2c);
 8002bdc:	687b      	ldr	r3, [r7, #4]
 8002bde:	2240      	movs	r2, #64	@ 0x40
 8002be0:	2100      	movs	r1, #0
 8002be2:	5499      	strb	r1, [r3, r2]

    return HAL_OK;
 8002be4:	2300      	movs	r3, #0
 8002be6:	e000      	b.n	8002bea <HAL_I2CEx_ConfigAnalogFilter+0x8a>
  }
  else
  {
    return HAL_BUSY;
 8002be8:	2302      	movs	r3, #2
  }
}
 8002bea:	0018      	movs	r0, r3
 8002bec:	46bd      	mov	sp, r7
 8002bee:	b002      	add	sp, #8
 8002bf0:	bd80      	pop	{r7, pc}
 8002bf2:	46c0      	nop			@ (mov r8, r8)
 8002bf4:	ffffefff 	.word	0xffffefff

08002bf8 <HAL_I2CEx_ConfigDigitalFilter>:
  *                the configuration information for the specified I2Cx peripheral.
  * @param  DigitalFilter Coefficient of digital noise filter between Min_Data=0x00 and Max_Data=0x0F.
  * @retval HAL status
  */
HAL_StatusTypeDef HAL_I2CEx_ConfigDigitalFilter(I2C_HandleTypeDef *hi2c, uint32_t DigitalFilter)
{
 8002bf8:	b580      	push	{r7, lr}
 8002bfa:	b084      	sub	sp, #16
 8002bfc:	af00      	add	r7, sp, #0
 8002bfe:	6078      	str	r0, [r7, #4]
 8002c00:	6039      	str	r1, [r7, #0]

  /* Check the parameters */
  assert_param(IS_I2C_ALL_INSTANCE(hi2c->Instance));
  assert_param(IS_I2C_DIGITAL_FILTER(DigitalFilter));

  if (hi2c->State == HAL_I2C_STATE_READY)
 8002c02:	687b      	ldr	r3, [r7, #4]
 8002c04:	2241      	movs	r2, #65	@ 0x41
 8002c06:	5c9b      	ldrb	r3, [r3, r2]
 8002c08:	b2db      	uxtb	r3, r3
 8002c0a:	2b20      	cmp	r3, #32
 8002c0c:	d139      	bne.n	8002c82 <HAL_I2CEx_ConfigDigitalFilter+0x8a>
  {
    /* Process Locked */
    __HAL_LOCK(hi2c);
 8002c0e:	687b      	ldr	r3, [r7, #4]
 8002c10:	2240      	movs	r2, #64	@ 0x40
 8002c12:	5c9b      	ldrb	r3, [r3, r2]
 8002c14:	2b01      	cmp	r3, #1
 8002c16:	d101      	bne.n	8002c1c <HAL_I2CEx_ConfigDigitalFilter+0x24>
 8002c18:	2302      	movs	r3, #2
 8002c1a:	e033      	b.n	8002c84 <HAL_I2CEx_ConfigDigitalFilter+0x8c>
 8002c1c:	687b      	ldr	r3, [r7, #4]
 8002c1e:	2240      	movs	r2, #64	@ 0x40
 8002c20:	2101      	movs	r1, #1
 8002c22:	5499      	strb	r1, [r3, r2]

    hi2c->State = HAL_I2C_STATE_BUSY;
 8002c24:	687b      	ldr	r3, [r7, #4]
 8002c26:	2241      	movs	r2, #65	@ 0x41
 8002c28:	2124      	movs	r1, #36	@ 0x24
 8002c2a:	5499      	strb	r1, [r3, r2]

    /* Disable the selected I2C peripheral */
    __HAL_I2C_DISABLE(hi2c);
 8002c2c:	687b      	ldr	r3, [r7, #4]
 8002c2e:	681b      	ldr	r3, [r3, #0]
 8002c30:	681a      	ldr	r2, [r3, #0]
 8002c32:	687b      	ldr	r3, [r7, #4]
 8002c34:	681b      	ldr	r3, [r3, #0]
 8002c36:	2101      	movs	r1, #1
 8002c38:	438a      	bics	r2, r1
 8002c3a:	601a      	str	r2, [r3, #0]

    /* Get the old register value */
    tmpreg = hi2c->Instance->CR1;
 8002c3c:	687b      	ldr	r3, [r7, #4]
 8002c3e:	681b      	ldr	r3, [r3, #0]
 8002c40:	681b      	ldr	r3, [r3, #0]
 8002c42:	60fb      	str	r3, [r7, #12]

    /* Reset I2Cx DNF bits [11:8] */
    tmpreg &= ~(I2C_CR1_DNF);
 8002c44:	68fb      	ldr	r3, [r7, #12]
 8002c46:	4a11      	ldr	r2, [pc, #68]	@ (8002c8c <HAL_I2CEx_ConfigDigitalFilter+0x94>)
 8002c48:	4013      	ands	r3, r2
 8002c4a:	60fb      	str	r3, [r7, #12]

    /* Set I2Cx DNF coefficient */
    tmpreg |= DigitalFilter << 8U;
 8002c4c:	683b      	ldr	r3, [r7, #0]
 8002c4e:	021b      	lsls	r3, r3, #8
 8002c50:	68fa      	ldr	r2, [r7, #12]
 8002c52:	4313      	orrs	r3, r2
 8002c54:	60fb      	str	r3, [r7, #12]

    /* Store the new register value */
    hi2c->Instance->CR1 = tmpreg;
 8002c56:	687b      	ldr	r3, [r7, #4]
 8002c58:	681b      	ldr	r3, [r3, #0]
 8002c5a:	68fa      	ldr	r2, [r7, #12]
 8002c5c:	601a      	str	r2, [r3, #0]

    __HAL_I2C_ENABLE(hi2c);
 8002c5e:	687b      	ldr	r3, [r7, #4]
 8002c60:	681b      	ldr	r3, [r3, #0]
 8002c62:	681a      	ldr	r2, [r3, #0]
 8002c64:	687b      	ldr	r3, [r7, #4]
 8002c66:	681b      	ldr	r3, [r3, #0]
 8002c68:	2101      	movs	r1, #1
 8002c6a:	430a      	orrs	r2, r1
 8002c6c:	601a      	str	r2, [r3, #0]

    hi2c->State = HAL_I2C_STATE_READY;
 8002c6e:	687b      	ldr	r3, [r7, #4]
 8002c70:	2241      	movs	r2, #65	@ 0x41
 8002c72:	2120      	movs	r1, #32
 8002c74:	5499      	strb	r1, [r3, r2]

    /* Process Unlocked */
    __HAL_UNLOCK(hi2c);
 8002c76:	687b      	ldr	r3, [r7, #4]
 8002c78:	2240      	movs	r2, #64	@ 0x40
 8002c7a:	2100      	movs	r1, #0
 8002c7c:	5499      	strb	r1, [r3, r2]

    return HAL_OK;
 8002c7e:	2300      	movs	r3, #0
 8002c80:	e000      	b.n	8002c84 <HAL_I2CEx_ConfigDigitalFilter+0x8c>
  }
  else
  {
    return HAL_BUSY;
 8002c82:	2302      	movs	r3, #2
  }
}
 8002c84:	0018      	movs	r0, r3
 8002c86:	46bd      	mov	sp, r7
 8002c88:	b004      	add	sp, #16
 8002c8a:	bd80      	pop	{r7, pc}
 8002c8c:	fffff0ff 	.word	0xfffff0ff

08002c90 <HAL_RCC_OscConfig>:
  *         supported by this macro. User should request a transition to HSE Off
  *         first and then HSE On or HSE Bypass.
  * @retval HAL status
  */
HAL_StatusTypeDef HAL_RCC_OscConfig(RCC_OscInitTypeDef  *RCC_OscInitStruct)
{
 8002c90:	b580      	push	{r7, lr}
 8002c92:	b088      	sub	sp, #32
 8002c94:	af00      	add	r7, sp, #0
 8002c96:	6078      	str	r0, [r7, #4]
  uint32_t tickstart;
  uint32_t pll_config;
  uint32_t pll_config2;

  /* Check Null pointer */
  if(RCC_OscInitStruct == NULL)
 8002c98:	687b      	ldr	r3, [r7, #4]
 8002c9a:	2b00      	cmp	r3, #0
 8002c9c:	d101      	bne.n	8002ca2 <HAL_RCC_OscConfig+0x12>
  {
    return HAL_ERROR;
 8002c9e:	2301      	movs	r3, #1
 8002ca0:	e301      	b.n	80032a6 <HAL_RCC_OscConfig+0x616>

  /* Check the parameters */
  assert_param(IS_RCC_OSCILLATORTYPE(RCC_OscInitStruct->OscillatorType));

  /*------------------------------- HSE Configuration ------------------------*/ 
  if(((RCC_OscInitStruct->OscillatorType) & RCC_OSCILLATORTYPE_HSE) == RCC_OSCILLATORTYPE_HSE)
 8002ca2:	687b      	ldr	r3, [r7, #4]
 8002ca4:	681b      	ldr	r3, [r3, #0]
 8002ca6:	2201      	movs	r2, #1
 8002ca8:	4013      	ands	r3, r2
 8002caa:	d100      	bne.n	8002cae <HAL_RCC_OscConfig+0x1e>
 8002cac:	e08d      	b.n	8002dca <HAL_RCC_OscConfig+0x13a>
  {
    /* Check the parameters */
    assert_param(IS_RCC_HSE(RCC_OscInitStruct->HSEState));

    /* When the HSE is used as system clock or clock source for PLL in these cases it is not allowed to be disabled */
    if((__HAL_RCC_GET_SYSCLK_SOURCE() == RCC_SYSCLKSOURCE_STATUS_HSE) 
 8002cae:	4bc3      	ldr	r3, [pc, #780]	@ (8002fbc <HAL_RCC_OscConfig+0x32c>)
 8002cb0:	685b      	ldr	r3, [r3, #4]
 8002cb2:	220c      	movs	r2, #12
 8002cb4:	4013      	ands	r3, r2
 8002cb6:	2b04      	cmp	r3, #4
 8002cb8:	d00e      	beq.n	8002cd8 <HAL_RCC_OscConfig+0x48>
       || ((__HAL_RCC_GET_SYSCLK_SOURCE() == RCC_SYSCLKSOURCE_STATUS_PLLCLK) && (__HAL_RCC_GET_PLL_OSCSOURCE() == RCC_PLLSOURCE_HSE)))
 8002cba:	4bc0      	ldr	r3, [pc, #768]	@ (8002fbc <HAL_RCC_OscConfig+0x32c>)
 8002cbc:	685b      	ldr	r3, [r3, #4]
 8002cbe:	220c      	movs	r2, #12
 8002cc0:	4013      	ands	r3, r2
 8002cc2:	2b08      	cmp	r3, #8
 8002cc4:	d116      	bne.n	8002cf4 <HAL_RCC_OscConfig+0x64>
 8002cc6:	4bbd      	ldr	r3, [pc, #756]	@ (8002fbc <HAL_RCC_OscConfig+0x32c>)
 8002cc8:	685a      	ldr	r2, [r3, #4]
 8002cca:	2380      	movs	r3, #128	@ 0x80
 8002ccc:	025b      	lsls	r3, r3, #9
 8002cce:	401a      	ands	r2, r3
 8002cd0:	2380      	movs	r3, #128	@ 0x80
 8002cd2:	025b      	lsls	r3, r3, #9
 8002cd4:	429a      	cmp	r2, r3
 8002cd6:	d10d      	bne.n	8002cf4 <HAL_RCC_OscConfig+0x64>
    {
      if((__HAL_RCC_GET_FLAG(RCC_FLAG_HSERDY) != RESET) && (RCC_OscInitStruct->HSEState == RCC_HSE_OFF))
 8002cd8:	4bb8      	ldr	r3, [pc, #736]	@ (8002fbc <HAL_RCC_OscConfig+0x32c>)
 8002cda:	681a      	ldr	r2, [r3, #0]
 8002cdc:	2380      	movs	r3, #128	@ 0x80
 8002cde:	029b      	lsls	r3, r3, #10
 8002ce0:	4013      	ands	r3, r2
 8002ce2:	d100      	bne.n	8002ce6 <HAL_RCC_OscConfig+0x56>
 8002ce4:	e070      	b.n	8002dc8 <HAL_RCC_OscConfig+0x138>
 8002ce6:	687b      	ldr	r3, [r7, #4]
 8002ce8:	685b      	ldr	r3, [r3, #4]
 8002cea:	2b00      	cmp	r3, #0
 8002cec:	d000      	beq.n	8002cf0 <HAL_RCC_OscConfig+0x60>
 8002cee:	e06b      	b.n	8002dc8 <HAL_RCC_OscConfig+0x138>
      {
        return HAL_ERROR;
 8002cf0:	2301      	movs	r3, #1
 8002cf2:	e2d8      	b.n	80032a6 <HAL_RCC_OscConfig+0x616>
      }
    }
    else
    {
      /* Set the new HSE configuration ---------------------------------------*/
      __HAL_RCC_HSE_CONFIG(RCC_OscInitStruct->HSEState);
 8002cf4:	687b      	ldr	r3, [r7, #4]
 8002cf6:	685b      	ldr	r3, [r3, #4]
 8002cf8:	2b01      	cmp	r3, #1
 8002cfa:	d107      	bne.n	8002d0c <HAL_RCC_OscConfig+0x7c>
 8002cfc:	4baf      	ldr	r3, [pc, #700]	@ (8002fbc <HAL_RCC_OscConfig+0x32c>)
 8002cfe:	681a      	ldr	r2, [r3, #0]
 8002d00:	4bae      	ldr	r3, [pc, #696]	@ (8002fbc <HAL_RCC_OscConfig+0x32c>)
 8002d02:	2180      	movs	r1, #128	@ 0x80
 8002d04:	0249      	lsls	r1, r1, #9
 8002d06:	430a      	orrs	r2, r1
 8002d08:	601a      	str	r2, [r3, #0]
 8002d0a:	e02f      	b.n	8002d6c <HAL_RCC_OscConfig+0xdc>
 8002d0c:	687b      	ldr	r3, [r7, #4]
 8002d0e:	685b      	ldr	r3, [r3, #4]
 8002d10:	2b00      	cmp	r3, #0
 8002d12:	d10c      	bne.n	8002d2e <HAL_RCC_OscConfig+0x9e>
 8002d14:	4ba9      	ldr	r3, [pc, #676]	@ (8002fbc <HAL_RCC_OscConfig+0x32c>)
 8002d16:	681a      	ldr	r2, [r3, #0]
 8002d18:	4ba8      	ldr	r3, [pc, #672]	@ (8002fbc <HAL_RCC_OscConfig+0x32c>)
 8002d1a:	49a9      	ldr	r1, [pc, #676]	@ (8002fc0 <HAL_RCC_OscConfig+0x330>)
 8002d1c:	400a      	ands	r2, r1
 8002d1e:	601a      	str	r2, [r3, #0]
 8002d20:	4ba6      	ldr	r3, [pc, #664]	@ (8002fbc <HAL_RCC_OscConfig+0x32c>)
 8002d22:	681a      	ldr	r2, [r3, #0]
 8002d24:	4ba5      	ldr	r3, [pc, #660]	@ (8002fbc <HAL_RCC_OscConfig+0x32c>)
 8002d26:	49a7      	ldr	r1, [pc, #668]	@ (8002fc4 <HAL_RCC_OscConfig+0x334>)
 8002d28:	400a      	ands	r2, r1
 8002d2a:	601a      	str	r2, [r3, #0]
 8002d2c:	e01e      	b.n	8002d6c <HAL_RCC_OscConfig+0xdc>
 8002d2e:	687b      	ldr	r3, [r7, #4]
 8002d30:	685b      	ldr	r3, [r3, #4]
 8002d32:	2b05      	cmp	r3, #5
 8002d34:	d10e      	bne.n	8002d54 <HAL_RCC_OscConfig+0xc4>
 8002d36:	4ba1      	ldr	r3, [pc, #644]	@ (8002fbc <HAL_RCC_OscConfig+0x32c>)
 8002d38:	681a      	ldr	r2, [r3, #0]
 8002d3a:	4ba0      	ldr	r3, [pc, #640]	@ (8002fbc <HAL_RCC_OscConfig+0x32c>)
 8002d3c:	2180      	movs	r1, #128	@ 0x80
 8002d3e:	02c9      	lsls	r1, r1, #11
 8002d40:	430a      	orrs	r2, r1
 8002d42:	601a      	str	r2, [r3, #0]
 8002d44:	4b9d      	ldr	r3, [pc, #628]	@ (8002fbc <HAL_RCC_OscConfig+0x32c>)
 8002d46:	681a      	ldr	r2, [r3, #0]
 8002d48:	4b9c      	ldr	r3, [pc, #624]	@ (8002fbc <HAL_RCC_OscConfig+0x32c>)
 8002d4a:	2180      	movs	r1, #128	@ 0x80
 8002d4c:	0249      	lsls	r1, r1, #9
 8002d4e:	430a      	orrs	r2, r1
 8002d50:	601a      	str	r2, [r3, #0]
 8002d52:	e00b      	b.n	8002d6c <HAL_RCC_OscConfig+0xdc>
 8002d54:	4b99      	ldr	r3, [pc, #612]	@ (8002fbc <HAL_RCC_OscConfig+0x32c>)
 8002d56:	681a      	ldr	r2, [r3, #0]
 8002d58:	4b98      	ldr	r3, [pc, #608]	@ (8002fbc <HAL_RCC_OscConfig+0x32c>)
 8002d5a:	4999      	ldr	r1, [pc, #612]	@ (8002fc0 <HAL_RCC_OscConfig+0x330>)
 8002d5c:	400a      	ands	r2, r1
 8002d5e:	601a      	str	r2, [r3, #0]
 8002d60:	4b96      	ldr	r3, [pc, #600]	@ (8002fbc <HAL_RCC_OscConfig+0x32c>)
 8002d62:	681a      	ldr	r2, [r3, #0]
 8002d64:	4b95      	ldr	r3, [pc, #596]	@ (8002fbc <HAL_RCC_OscConfig+0x32c>)
 8002d66:	4997      	ldr	r1, [pc, #604]	@ (8002fc4 <HAL_RCC_OscConfig+0x334>)
 8002d68:	400a      	ands	r2, r1
 8002d6a:	601a      	str	r2, [r3, #0]
      

       /* Check the HSE State */
      if(RCC_OscInitStruct->HSEState != RCC_HSE_OFF)
 8002d6c:	687b      	ldr	r3, [r7, #4]
 8002d6e:	685b      	ldr	r3, [r3, #4]
 8002d70:	2b00      	cmp	r3, #0
 8002d72:	d014      	beq.n	8002d9e <HAL_RCC_OscConfig+0x10e>
      {
        /* Get Start Tick */
        tickstart = HAL_GetTick();
 8002d74:	f7fe fe74 	bl	8001a60 <HAL_GetTick>
 8002d78:	0003      	movs	r3, r0
 8002d7a:	61bb      	str	r3, [r7, #24]
        
        /* Wait till HSE is ready */
        while(__HAL_RCC_GET_FLAG(RCC_FLAG_HSERDY) == RESET)
 8002d7c:	e008      	b.n	8002d90 <HAL_RCC_OscConfig+0x100>
        {
          if((HAL_GetTick() - tickstart ) > HSE_TIMEOUT_VALUE)
 8002d7e:	f7fe fe6f 	bl	8001a60 <HAL_GetTick>
 8002d82:	0002      	movs	r2, r0
 8002d84:	69bb      	ldr	r3, [r7, #24]
 8002d86:	1ad3      	subs	r3, r2, r3
 8002d88:	2b64      	cmp	r3, #100	@ 0x64
 8002d8a:	d901      	bls.n	8002d90 <HAL_RCC_OscConfig+0x100>
          {
            return HAL_TIMEOUT;
 8002d8c:	2303      	movs	r3, #3
 8002d8e:	e28a      	b.n	80032a6 <HAL_RCC_OscConfig+0x616>
        while(__HAL_RCC_GET_FLAG(RCC_FLAG_HSERDY) == RESET)
 8002d90:	4b8a      	ldr	r3, [pc, #552]	@ (8002fbc <HAL_RCC_OscConfig+0x32c>)
 8002d92:	681a      	ldr	r2, [r3, #0]
 8002d94:	2380      	movs	r3, #128	@ 0x80
 8002d96:	029b      	lsls	r3, r3, #10
 8002d98:	4013      	ands	r3, r2
 8002d9a:	d0f0      	beq.n	8002d7e <HAL_RCC_OscConfig+0xee>
 8002d9c:	e015      	b.n	8002dca <HAL_RCC_OscConfig+0x13a>
        }
      }
      else
      {
        /* Get Start Tick */
        tickstart = HAL_GetTick();
 8002d9e:	f7fe fe5f 	bl	8001a60 <HAL_GetTick>
 8002da2:	0003      	movs	r3, r0
 8002da4:	61bb      	str	r3, [r7, #24]
        
        /* Wait till HSE is disabled */
        while(__HAL_RCC_GET_FLAG(RCC_FLAG_HSERDY) != RESET)
 8002da6:	e008      	b.n	8002dba <HAL_RCC_OscConfig+0x12a>
        {
           if((HAL_GetTick() - tickstart ) > HSE_TIMEOUT_VALUE)
 8002da8:	f7fe fe5a 	bl	8001a60 <HAL_GetTick>
 8002dac:	0002      	movs	r2, r0
 8002dae:	69bb      	ldr	r3, [r7, #24]
 8002db0:	1ad3      	subs	r3, r2, r3
 8002db2:	2b64      	cmp	r3, #100	@ 0x64
 8002db4:	d901      	bls.n	8002dba <HAL_RCC_OscConfig+0x12a>
          {
            return HAL_TIMEOUT;
 8002db6:	2303      	movs	r3, #3
 8002db8:	e275      	b.n	80032a6 <HAL_RCC_OscConfig+0x616>
        while(__HAL_RCC_GET_FLAG(RCC_FLAG_HSERDY) != RESET)
 8002dba:	4b80      	ldr	r3, [pc, #512]	@ (8002fbc <HAL_RCC_OscConfig+0x32c>)
 8002dbc:	681a      	ldr	r2, [r3, #0]
 8002dbe:	2380      	movs	r3, #128	@ 0x80
 8002dc0:	029b      	lsls	r3, r3, #10
 8002dc2:	4013      	ands	r3, r2
 8002dc4:	d1f0      	bne.n	8002da8 <HAL_RCC_OscConfig+0x118>
 8002dc6:	e000      	b.n	8002dca <HAL_RCC_OscConfig+0x13a>
      if((__HAL_RCC_GET_FLAG(RCC_FLAG_HSERDY) != RESET) && (RCC_OscInitStruct->HSEState == RCC_HSE_OFF))
 8002dc8:	46c0      	nop			@ (mov r8, r8)
        }
      }
    }
  }
  /*----------------------------- HSI Configuration --------------------------*/ 
  if(((RCC_OscInitStruct->OscillatorType) & RCC_OSCILLATORTYPE_HSI) == RCC_OSCILLATORTYPE_HSI)
 8002dca:	687b      	ldr	r3, [r7, #4]
 8002dcc:	681b      	ldr	r3, [r3, #0]
 8002dce:	2202      	movs	r2, #2
 8002dd0:	4013      	ands	r3, r2
 8002dd2:	d100      	bne.n	8002dd6 <HAL_RCC_OscConfig+0x146>
 8002dd4:	e069      	b.n	8002eaa <HAL_RCC_OscConfig+0x21a>
    /* Check the parameters */
    assert_param(IS_RCC_HSI(RCC_OscInitStruct->HSIState));
    assert_param(IS_RCC_CALIBRATION_VALUE(RCC_OscInitStruct->HSICalibrationValue));
    
    /* Check if HSI is used as system clock or as PLL source when PLL is selected as system clock */ 
    if((__HAL_RCC_GET_SYSCLK_SOURCE() == RCC_SYSCLKSOURCE_STATUS_HSI) 
 8002dd6:	4b79      	ldr	r3, [pc, #484]	@ (8002fbc <HAL_RCC_OscConfig+0x32c>)
 8002dd8:	685b      	ldr	r3, [r3, #4]
 8002dda:	220c      	movs	r2, #12
 8002ddc:	4013      	ands	r3, r2
 8002dde:	d00b      	beq.n	8002df8 <HAL_RCC_OscConfig+0x168>
       || ((__HAL_RCC_GET_SYSCLK_SOURCE() == RCC_SYSCLKSOURCE_STATUS_PLLCLK) && (__HAL_RCC_GET_PLL_OSCSOURCE() == RCC_PLLSOURCE_HSI)))
 8002de0:	4b76      	ldr	r3, [pc, #472]	@ (8002fbc <HAL_RCC_OscConfig+0x32c>)
 8002de2:	685b      	ldr	r3, [r3, #4]
 8002de4:	220c      	movs	r2, #12
 8002de6:	4013      	ands	r3, r2
 8002de8:	2b08      	cmp	r3, #8
 8002dea:	d11c      	bne.n	8002e26 <HAL_RCC_OscConfig+0x196>
 8002dec:	4b73      	ldr	r3, [pc, #460]	@ (8002fbc <HAL_RCC_OscConfig+0x32c>)
 8002dee:	685a      	ldr	r2, [r3, #4]
 8002df0:	2380      	movs	r3, #128	@ 0x80
 8002df2:	025b      	lsls	r3, r3, #9
 8002df4:	4013      	ands	r3, r2
 8002df6:	d116      	bne.n	8002e26 <HAL_RCC_OscConfig+0x196>
    {
      /* When HSI is used as system clock it will not disabled */
      if((__HAL_RCC_GET_FLAG(RCC_FLAG_HSIRDY) != RESET) && (RCC_OscInitStruct->HSIState != RCC_HSI_ON))
 8002df8:	4b70      	ldr	r3, [pc, #448]	@ (8002fbc <HAL_RCC_OscConfig+0x32c>)
 8002dfa:	681b      	ldr	r3, [r3, #0]
 8002dfc:	2202      	movs	r2, #2
 8002dfe:	4013      	ands	r3, r2
 8002e00:	d005      	beq.n	8002e0e <HAL_RCC_OscConfig+0x17e>
 8002e02:	687b      	ldr	r3, [r7, #4]
 8002e04:	68db      	ldr	r3, [r3, #12]
 8002e06:	2b01      	cmp	r3, #1
 8002e08:	d001      	beq.n	8002e0e <HAL_RCC_OscConfig+0x17e>
      {
        return HAL_ERROR;
 8002e0a:	2301      	movs	r3, #1
 8002e0c:	e24b      	b.n	80032a6 <HAL_RCC_OscConfig+0x616>
      }
      /* Otherwise, just the calibration is allowed */
      else
      {
        /* Adjusts the Internal High Speed oscillator (HSI) calibration value.*/
        __HAL_RCC_HSI_CALIBRATIONVALUE_ADJUST(RCC_OscInitStruct->HSICalibrationValue);
 8002e0e:	4b6b      	ldr	r3, [pc, #428]	@ (8002fbc <HAL_RCC_OscConfig+0x32c>)
 8002e10:	681b      	ldr	r3, [r3, #0]
 8002e12:	22f8      	movs	r2, #248	@ 0xf8
 8002e14:	4393      	bics	r3, r2
 8002e16:	0019      	movs	r1, r3
 8002e18:	687b      	ldr	r3, [r7, #4]
 8002e1a:	691b      	ldr	r3, [r3, #16]
 8002e1c:	00da      	lsls	r2, r3, #3
 8002e1e:	4b67      	ldr	r3, [pc, #412]	@ (8002fbc <HAL_RCC_OscConfig+0x32c>)
 8002e20:	430a      	orrs	r2, r1
 8002e22:	601a      	str	r2, [r3, #0]
      if((__HAL_RCC_GET_FLAG(RCC_FLAG_HSIRDY) != RESET) && (RCC_OscInitStruct->HSIState != RCC_HSI_ON))
 8002e24:	e041      	b.n	8002eaa <HAL_RCC_OscConfig+0x21a>
      }
    }
    else
    {
      /* Check the HSI State */
      if(RCC_OscInitStruct->HSIState != RCC_HSI_OFF)
 8002e26:	687b      	ldr	r3, [r7, #4]
 8002e28:	68db      	ldr	r3, [r3, #12]
 8002e2a:	2b00      	cmp	r3, #0
 8002e2c:	d024      	beq.n	8002e78 <HAL_RCC_OscConfig+0x1e8>
      {
       /* Enable the Internal High Speed oscillator (HSI). */
        __HAL_RCC_HSI_ENABLE();
 8002e2e:	4b63      	ldr	r3, [pc, #396]	@ (8002fbc <HAL_RCC_OscConfig+0x32c>)
 8002e30:	681a      	ldr	r2, [r3, #0]
 8002e32:	4b62      	ldr	r3, [pc, #392]	@ (8002fbc <HAL_RCC_OscConfig+0x32c>)
 8002e34:	2101      	movs	r1, #1
 8002e36:	430a      	orrs	r2, r1
 8002e38:	601a      	str	r2, [r3, #0]
        
        /* Get Start Tick */
        tickstart = HAL_GetTick();
 8002e3a:	f7fe fe11 	bl	8001a60 <HAL_GetTick>
 8002e3e:	0003      	movs	r3, r0
 8002e40:	61bb      	str	r3, [r7, #24]
        
        /* Wait till HSI is ready */
        while(__HAL_RCC_GET_FLAG(RCC_FLAG_HSIRDY) == RESET)
 8002e42:	e008      	b.n	8002e56 <HAL_RCC_OscConfig+0x1c6>
        {
          if((HAL_GetTick() - tickstart ) > HSI_TIMEOUT_VALUE)
 8002e44:	f7fe fe0c 	bl	8001a60 <HAL_GetTick>
 8002e48:	0002      	movs	r2, r0
 8002e4a:	69bb      	ldr	r3, [r7, #24]
 8002e4c:	1ad3      	subs	r3, r2, r3
 8002e4e:	2b02      	cmp	r3, #2
 8002e50:	d901      	bls.n	8002e56 <HAL_RCC_OscConfig+0x1c6>
          {
            return HAL_TIMEOUT;
 8002e52:	2303      	movs	r3, #3
 8002e54:	e227      	b.n	80032a6 <HAL_RCC_OscConfig+0x616>
        while(__HAL_RCC_GET_FLAG(RCC_FLAG_HSIRDY) == RESET)
 8002e56:	4b59      	ldr	r3, [pc, #356]	@ (8002fbc <HAL_RCC_OscConfig+0x32c>)
 8002e58:	681b      	ldr	r3, [r3, #0]
 8002e5a:	2202      	movs	r2, #2
 8002e5c:	4013      	ands	r3, r2
 8002e5e:	d0f1      	beq.n	8002e44 <HAL_RCC_OscConfig+0x1b4>
          }
        }
                
        /* Adjusts the Internal High Speed oscillator (HSI) calibration value.*/
        __HAL_RCC_HSI_CALIBRATIONVALUE_ADJUST(RCC_OscInitStruct->HSICalibrationValue);
 8002e60:	4b56      	ldr	r3, [pc, #344]	@ (8002fbc <HAL_RCC_OscConfig+0x32c>)
 8002e62:	681b      	ldr	r3, [r3, #0]
 8002e64:	22f8      	movs	r2, #248	@ 0xf8
 8002e66:	4393      	bics	r3, r2
 8002e68:	0019      	movs	r1, r3
 8002e6a:	687b      	ldr	r3, [r7, #4]
 8002e6c:	691b      	ldr	r3, [r3, #16]
 8002e6e:	00da      	lsls	r2, r3, #3
 8002e70:	4b52      	ldr	r3, [pc, #328]	@ (8002fbc <HAL_RCC_OscConfig+0x32c>)
 8002e72:	430a      	orrs	r2, r1
 8002e74:	601a      	str	r2, [r3, #0]
 8002e76:	e018      	b.n	8002eaa <HAL_RCC_OscConfig+0x21a>
      }
      else
      {
        /* Disable the Internal High Speed oscillator (HSI). */
        __HAL_RCC_HSI_DISABLE();
 8002e78:	4b50      	ldr	r3, [pc, #320]	@ (8002fbc <HAL_RCC_OscConfig+0x32c>)
 8002e7a:	681a      	ldr	r2, [r3, #0]
 8002e7c:	4b4f      	ldr	r3, [pc, #316]	@ (8002fbc <HAL_RCC_OscConfig+0x32c>)
 8002e7e:	2101      	movs	r1, #1
 8002e80:	438a      	bics	r2, r1
 8002e82:	601a      	str	r2, [r3, #0]
        
        /* Get Start Tick */
        tickstart = HAL_GetTick();
 8002e84:	f7fe fdec 	bl	8001a60 <HAL_GetTick>
 8002e88:	0003      	movs	r3, r0
 8002e8a:	61bb      	str	r3, [r7, #24]
        
        /* Wait till HSI is disabled */
        while(__HAL_RCC_GET_FLAG(RCC_FLAG_HSIRDY) != RESET)
 8002e8c:	e008      	b.n	8002ea0 <HAL_RCC_OscConfig+0x210>
        {
          if((HAL_GetTick() - tickstart ) > HSI_TIMEOUT_VALUE)
 8002e8e:	f7fe fde7 	bl	8001a60 <HAL_GetTick>
 8002e92:	0002      	movs	r2, r0
 8002e94:	69bb      	ldr	r3, [r7, #24]
 8002e96:	1ad3      	subs	r3, r2, r3
 8002e98:	2b02      	cmp	r3, #2
 8002e9a:	d901      	bls.n	8002ea0 <HAL_RCC_OscConfig+0x210>
          {
            return HAL_TIMEOUT;
 8002e9c:	2303      	movs	r3, #3
 8002e9e:	e202      	b.n	80032a6 <HAL_RCC_OscConfig+0x616>
        while(__HAL_RCC_GET_FLAG(RCC_FLAG_HSIRDY) != RESET)
 8002ea0:	4b46      	ldr	r3, [pc, #280]	@ (8002fbc <HAL_RCC_OscConfig+0x32c>)
 8002ea2:	681b      	ldr	r3, [r3, #0]
 8002ea4:	2202      	movs	r2, #2
 8002ea6:	4013      	ands	r3, r2
 8002ea8:	d1f1      	bne.n	8002e8e <HAL_RCC_OscConfig+0x1fe>
        }
      }
    }
  }
  /*------------------------------ LSI Configuration -------------------------*/ 
  if(((RCC_OscInitStruct->OscillatorType) & RCC_OSCILLATORTYPE_LSI) == RCC_OSCILLATORTYPE_LSI)
 8002eaa:	687b      	ldr	r3, [r7, #4]
 8002eac:	681b      	ldr	r3, [r3, #0]
 8002eae:	2208      	movs	r2, #8
 8002eb0:	4013      	ands	r3, r2
 8002eb2:	d036      	beq.n	8002f22 <HAL_RCC_OscConfig+0x292>
  {
    /* Check the parameters */
    assert_param(IS_RCC_LSI(RCC_OscInitStruct->LSIState));
    
    /* Check the LSI State */
    if(RCC_OscInitStruct->LSIState != RCC_LSI_OFF)
 8002eb4:	687b      	ldr	r3, [r7, #4]
 8002eb6:	69db      	ldr	r3, [r3, #28]
 8002eb8:	2b00      	cmp	r3, #0
 8002eba:	d019      	beq.n	8002ef0 <HAL_RCC_OscConfig+0x260>
    {
      /* Enable the Internal Low Speed oscillator (LSI). */
      __HAL_RCC_LSI_ENABLE();
 8002ebc:	4b3f      	ldr	r3, [pc, #252]	@ (8002fbc <HAL_RCC_OscConfig+0x32c>)
 8002ebe:	6a5a      	ldr	r2, [r3, #36]	@ 0x24
 8002ec0:	4b3e      	ldr	r3, [pc, #248]	@ (8002fbc <HAL_RCC_OscConfig+0x32c>)
 8002ec2:	2101      	movs	r1, #1
 8002ec4:	430a      	orrs	r2, r1
 8002ec6:	625a      	str	r2, [r3, #36]	@ 0x24
      
      /* Get Start Tick */
      tickstart = HAL_GetTick();
 8002ec8:	f7fe fdca 	bl	8001a60 <HAL_GetTick>
 8002ecc:	0003      	movs	r3, r0
 8002ece:	61bb      	str	r3, [r7, #24]
      
      /* Wait till LSI is ready */  
      while(__HAL_RCC_GET_FLAG(RCC_FLAG_LSIRDY) == RESET)
 8002ed0:	e008      	b.n	8002ee4 <HAL_RCC_OscConfig+0x254>
      {
        if((HAL_GetTick() - tickstart ) > LSI_TIMEOUT_VALUE)
 8002ed2:	f7fe fdc5 	bl	8001a60 <HAL_GetTick>
 8002ed6:	0002      	movs	r2, r0
 8002ed8:	69bb      	ldr	r3, [r7, #24]
 8002eda:	1ad3      	subs	r3, r2, r3
 8002edc:	2b02      	cmp	r3, #2
 8002ede:	d901      	bls.n	8002ee4 <HAL_RCC_OscConfig+0x254>
        {
          return HAL_TIMEOUT;
 8002ee0:	2303      	movs	r3, #3
 8002ee2:	e1e0      	b.n	80032a6 <HAL_RCC_OscConfig+0x616>
      while(__HAL_RCC_GET_FLAG(RCC_FLAG_LSIRDY) == RESET)
 8002ee4:	4b35      	ldr	r3, [pc, #212]	@ (8002fbc <HAL_RCC_OscConfig+0x32c>)
 8002ee6:	6a5b      	ldr	r3, [r3, #36]	@ 0x24
 8002ee8:	2202      	movs	r2, #2
 8002eea:	4013      	ands	r3, r2
 8002eec:	d0f1      	beq.n	8002ed2 <HAL_RCC_OscConfig+0x242>
 8002eee:	e018      	b.n	8002f22 <HAL_RCC_OscConfig+0x292>
      }
    }
    else
    {
      /* Disable the Internal Low Speed oscillator (LSI). */
      __HAL_RCC_LSI_DISABLE();
 8002ef0:	4b32      	ldr	r3, [pc, #200]	@ (8002fbc <HAL_RCC_OscConfig+0x32c>)
 8002ef2:	6a5a      	ldr	r2, [r3, #36]	@ 0x24
 8002ef4:	4b31      	ldr	r3, [pc, #196]	@ (8002fbc <HAL_RCC_OscConfig+0x32c>)
 8002ef6:	2101      	movs	r1, #1
 8002ef8:	438a      	bics	r2, r1
 8002efa:	625a      	str	r2, [r3, #36]	@ 0x24
      
      /* Get Start Tick */
      tickstart = HAL_GetTick();
 8002efc:	f7fe fdb0 	bl	8001a60 <HAL_GetTick>
 8002f00:	0003      	movs	r3, r0
 8002f02:	61bb      	str	r3, [r7, #24]
      
      /* Wait till LSI is disabled */  
      while(__HAL_RCC_GET_FLAG(RCC_FLAG_LSIRDY) != RESET)
 8002f04:	e008      	b.n	8002f18 <HAL_RCC_OscConfig+0x288>
      {
        if((HAL_GetTick() - tickstart ) > LSI_TIMEOUT_VALUE)
 8002f06:	f7fe fdab 	bl	8001a60 <HAL_GetTick>
 8002f0a:	0002      	movs	r2, r0
 8002f0c:	69bb      	ldr	r3, [r7, #24]
 8002f0e:	1ad3      	subs	r3, r2, r3
 8002f10:	2b02      	cmp	r3, #2
 8002f12:	d901      	bls.n	8002f18 <HAL_RCC_OscConfig+0x288>
        {
          return HAL_TIMEOUT;
 8002f14:	2303      	movs	r3, #3
 8002f16:	e1c6      	b.n	80032a6 <HAL_RCC_OscConfig+0x616>
      while(__HAL_RCC_GET_FLAG(RCC_FLAG_LSIRDY) != RESET)
 8002f18:	4b28      	ldr	r3, [pc, #160]	@ (8002fbc <HAL_RCC_OscConfig+0x32c>)
 8002f1a:	6a5b      	ldr	r3, [r3, #36]	@ 0x24
 8002f1c:	2202      	movs	r2, #2
 8002f1e:	4013      	ands	r3, r2
 8002f20:	d1f1      	bne.n	8002f06 <HAL_RCC_OscConfig+0x276>
        }
      }
    }
  }
  /*------------------------------ LSE Configuration -------------------------*/ 
  if(((RCC_OscInitStruct->OscillatorType) & RCC_OSCILLATORTYPE_LSE) == RCC_OSCILLATORTYPE_LSE)
 8002f22:	687b      	ldr	r3, [r7, #4]
 8002f24:	681b      	ldr	r3, [r3, #0]
 8002f26:	2204      	movs	r2, #4
 8002f28:	4013      	ands	r3, r2
 8002f2a:	d100      	bne.n	8002f2e <HAL_RCC_OscConfig+0x29e>
 8002f2c:	e0b4      	b.n	8003098 <HAL_RCC_OscConfig+0x408>
  {
    FlagStatus       pwrclkchanged = RESET;
 8002f2e:	201f      	movs	r0, #31
 8002f30:	183b      	adds	r3, r7, r0
 8002f32:	2200      	movs	r2, #0
 8002f34:	701a      	strb	r2, [r3, #0]
    /* Check the parameters */
    assert_param(IS_RCC_LSE(RCC_OscInitStruct->LSEState));

    /* Update LSE configuration in Backup Domain control register    */
    /* Requires to enable write access to Backup Domain of necessary */
    if(__HAL_RCC_PWR_IS_CLK_DISABLED())
 8002f36:	4b21      	ldr	r3, [pc, #132]	@ (8002fbc <HAL_RCC_OscConfig+0x32c>)
 8002f38:	69da      	ldr	r2, [r3, #28]
 8002f3a:	2380      	movs	r3, #128	@ 0x80
 8002f3c:	055b      	lsls	r3, r3, #21
 8002f3e:	4013      	ands	r3, r2
 8002f40:	d110      	bne.n	8002f64 <HAL_RCC_OscConfig+0x2d4>
    {
      __HAL_RCC_PWR_CLK_ENABLE();
 8002f42:	4b1e      	ldr	r3, [pc, #120]	@ (8002fbc <HAL_RCC_OscConfig+0x32c>)
 8002f44:	69da      	ldr	r2, [r3, #28]
 8002f46:	4b1d      	ldr	r3, [pc, #116]	@ (8002fbc <HAL_RCC_OscConfig+0x32c>)
 8002f48:	2180      	movs	r1, #128	@ 0x80
 8002f4a:	0549      	lsls	r1, r1, #21
 8002f4c:	430a      	orrs	r2, r1
 8002f4e:	61da      	str	r2, [r3, #28]
 8002f50:	4b1a      	ldr	r3, [pc, #104]	@ (8002fbc <HAL_RCC_OscConfig+0x32c>)
 8002f52:	69da      	ldr	r2, [r3, #28]
 8002f54:	2380      	movs	r3, #128	@ 0x80
 8002f56:	055b      	lsls	r3, r3, #21
 8002f58:	4013      	ands	r3, r2
 8002f5a:	60fb      	str	r3, [r7, #12]
 8002f5c:	68fb      	ldr	r3, [r7, #12]
      pwrclkchanged = SET;
 8002f5e:	183b      	adds	r3, r7, r0
 8002f60:	2201      	movs	r2, #1
 8002f62:	701a      	strb	r2, [r3, #0]
    }
    
    if(HAL_IS_BIT_CLR(PWR->CR, PWR_CR_DBP))
 8002f64:	4b18      	ldr	r3, [pc, #96]	@ (8002fc8 <HAL_RCC_OscConfig+0x338>)
 8002f66:	681a      	ldr	r2, [r3, #0]
 8002f68:	2380      	movs	r3, #128	@ 0x80
 8002f6a:	005b      	lsls	r3, r3, #1
 8002f6c:	4013      	ands	r3, r2
 8002f6e:	d11a      	bne.n	8002fa6 <HAL_RCC_OscConfig+0x316>
    {
      /* Enable write access to Backup domain */
      SET_BIT(PWR->CR, PWR_CR_DBP);
 8002f70:	4b15      	ldr	r3, [pc, #84]	@ (8002fc8 <HAL_RCC_OscConfig+0x338>)
 8002f72:	681a      	ldr	r2, [r3, #0]
 8002f74:	4b14      	ldr	r3, [pc, #80]	@ (8002fc8 <HAL_RCC_OscConfig+0x338>)
 8002f76:	2180      	movs	r1, #128	@ 0x80
 8002f78:	0049      	lsls	r1, r1, #1
 8002f7a:	430a      	orrs	r2, r1
 8002f7c:	601a      	str	r2, [r3, #0]
      
      /* Wait for Backup domain Write protection disable */
      tickstart = HAL_GetTick();
 8002f7e:	f7fe fd6f 	bl	8001a60 <HAL_GetTick>
 8002f82:	0003      	movs	r3, r0
 8002f84:	61bb      	str	r3, [r7, #24]

      while(HAL_IS_BIT_CLR(PWR->CR, PWR_CR_DBP))
 8002f86:	e008      	b.n	8002f9a <HAL_RCC_OscConfig+0x30a>
      {
        if((HAL_GetTick() - tickstart) > RCC_DBP_TIMEOUT_VALUE)
 8002f88:	f7fe fd6a 	bl	8001a60 <HAL_GetTick>
 8002f8c:	0002      	movs	r2, r0
 8002f8e:	69bb      	ldr	r3, [r7, #24]
 8002f90:	1ad3      	subs	r3, r2, r3
 8002f92:	2b64      	cmp	r3, #100	@ 0x64
 8002f94:	d901      	bls.n	8002f9a <HAL_RCC_OscConfig+0x30a>
        {
          return HAL_TIMEOUT;
 8002f96:	2303      	movs	r3, #3
 8002f98:	e185      	b.n	80032a6 <HAL_RCC_OscConfig+0x616>
      while(HAL_IS_BIT_CLR(PWR->CR, PWR_CR_DBP))
 8002f9a:	4b0b      	ldr	r3, [pc, #44]	@ (8002fc8 <HAL_RCC_OscConfig+0x338>)
 8002f9c:	681a      	ldr	r2, [r3, #0]
 8002f9e:	2380      	movs	r3, #128	@ 0x80
 8002fa0:	005b      	lsls	r3, r3, #1
 8002fa2:	4013      	ands	r3, r2
 8002fa4:	d0f0      	beq.n	8002f88 <HAL_RCC_OscConfig+0x2f8>
        }
      }
    }

    /* Set the new LSE configuration -----------------------------------------*/
    __HAL_RCC_LSE_CONFIG(RCC_OscInitStruct->LSEState);
 8002fa6:	687b      	ldr	r3, [r7, #4]
 8002fa8:	689b      	ldr	r3, [r3, #8]
 8002faa:	2b01      	cmp	r3, #1
 8002fac:	d10e      	bne.n	8002fcc <HAL_RCC_OscConfig+0x33c>
 8002fae:	4b03      	ldr	r3, [pc, #12]	@ (8002fbc <HAL_RCC_OscConfig+0x32c>)
 8002fb0:	6a1a      	ldr	r2, [r3, #32]
 8002fb2:	4b02      	ldr	r3, [pc, #8]	@ (8002fbc <HAL_RCC_OscConfig+0x32c>)
 8002fb4:	2101      	movs	r1, #1
 8002fb6:	430a      	orrs	r2, r1
 8002fb8:	621a      	str	r2, [r3, #32]
 8002fba:	e035      	b.n	8003028 <HAL_RCC_OscConfig+0x398>
 8002fbc:	40021000 	.word	0x40021000
 8002fc0:	fffeffff 	.word	0xfffeffff
 8002fc4:	fffbffff 	.word	0xfffbffff
 8002fc8:	40007000 	.word	0x40007000
 8002fcc:	687b      	ldr	r3, [r7, #4]
 8002fce:	689b      	ldr	r3, [r3, #8]
 8002fd0:	2b00      	cmp	r3, #0
 8002fd2:	d10c      	bne.n	8002fee <HAL_RCC_OscConfig+0x35e>
 8002fd4:	4bb6      	ldr	r3, [pc, #728]	@ (80032b0 <HAL_RCC_OscConfig+0x620>)
 8002fd6:	6a1a      	ldr	r2, [r3, #32]
 8002fd8:	4bb5      	ldr	r3, [pc, #724]	@ (80032b0 <HAL_RCC_OscConfig+0x620>)
 8002fda:	2101      	movs	r1, #1
 8002fdc:	438a      	bics	r2, r1
 8002fde:	621a      	str	r2, [r3, #32]
 8002fe0:	4bb3      	ldr	r3, [pc, #716]	@ (80032b0 <HAL_RCC_OscConfig+0x620>)
 8002fe2:	6a1a      	ldr	r2, [r3, #32]
 8002fe4:	4bb2      	ldr	r3, [pc, #712]	@ (80032b0 <HAL_RCC_OscConfig+0x620>)
 8002fe6:	2104      	movs	r1, #4
 8002fe8:	438a      	bics	r2, r1
 8002fea:	621a      	str	r2, [r3, #32]
 8002fec:	e01c      	b.n	8003028 <HAL_RCC_OscConfig+0x398>
 8002fee:	687b      	ldr	r3, [r7, #4]
 8002ff0:	689b      	ldr	r3, [r3, #8]
 8002ff2:	2b05      	cmp	r3, #5
 8002ff4:	d10c      	bne.n	8003010 <HAL_RCC_OscConfig+0x380>
 8002ff6:	4bae      	ldr	r3, [pc, #696]	@ (80032b0 <HAL_RCC_OscConfig+0x620>)
 8002ff8:	6a1a      	ldr	r2, [r3, #32]
 8002ffa:	4bad      	ldr	r3, [pc, #692]	@ (80032b0 <HAL_RCC_OscConfig+0x620>)
 8002ffc:	2104      	movs	r1, #4
 8002ffe:	430a      	orrs	r2, r1
 8003000:	621a      	str	r2, [r3, #32]
 8003002:	4bab      	ldr	r3, [pc, #684]	@ (80032b0 <HAL_RCC_OscConfig+0x620>)
 8003004:	6a1a      	ldr	r2, [r3, #32]
 8003006:	4baa      	ldr	r3, [pc, #680]	@ (80032b0 <HAL_RCC_OscConfig+0x620>)
 8003008:	2101      	movs	r1, #1
 800300a:	430a      	orrs	r2, r1
 800300c:	621a      	str	r2, [r3, #32]
 800300e:	e00b      	b.n	8003028 <HAL_RCC_OscConfig+0x398>
 8003010:	4ba7      	ldr	r3, [pc, #668]	@ (80032b0 <HAL_RCC_OscConfig+0x620>)
 8003012:	6a1a      	ldr	r2, [r3, #32]
 8003014:	4ba6      	ldr	r3, [pc, #664]	@ (80032b0 <HAL_RCC_OscConfig+0x620>)
 8003016:	2101      	movs	r1, #1
 8003018:	438a      	bics	r2, r1
 800301a:	621a      	str	r2, [r3, #32]
 800301c:	4ba4      	ldr	r3, [pc, #656]	@ (80032b0 <HAL_RCC_OscConfig+0x620>)
 800301e:	6a1a      	ldr	r2, [r3, #32]
 8003020:	4ba3      	ldr	r3, [pc, #652]	@ (80032b0 <HAL_RCC_OscConfig+0x620>)
 8003022:	2104      	movs	r1, #4
 8003024:	438a      	bics	r2, r1
 8003026:	621a      	str	r2, [r3, #32]
    /* Check the LSE State */
    if(RCC_OscInitStruct->LSEState != RCC_LSE_OFF)
 8003028:	687b      	ldr	r3, [r7, #4]
 800302a:	689b      	ldr	r3, [r3, #8]
 800302c:	2b00      	cmp	r3, #0
 800302e:	d014      	beq.n	800305a <HAL_RCC_OscConfig+0x3ca>
    {
      /* Get Start Tick */
      tickstart = HAL_GetTick();
 8003030:	f7fe fd16 	bl	8001a60 <HAL_GetTick>
 8003034:	0003      	movs	r3, r0
 8003036:	61bb      	str	r3, [r7, #24]
      
      /* Wait till LSE is ready */  
      while(__HAL_RCC_GET_FLAG(RCC_FLAG_LSERDY) == RESET)
 8003038:	e009      	b.n	800304e <HAL_RCC_OscConfig+0x3be>
      {
        if((HAL_GetTick() - tickstart ) > RCC_LSE_TIMEOUT_VALUE)
 800303a:	f7fe fd11 	bl	8001a60 <HAL_GetTick>
 800303e:	0002      	movs	r2, r0
 8003040:	69bb      	ldr	r3, [r7, #24]
 8003042:	1ad3      	subs	r3, r2, r3
 8003044:	4a9b      	ldr	r2, [pc, #620]	@ (80032b4 <HAL_RCC_OscConfig+0x624>)
 8003046:	4293      	cmp	r3, r2
 8003048:	d901      	bls.n	800304e <HAL_RCC_OscConfig+0x3be>
        {
          return HAL_TIMEOUT;
 800304a:	2303      	movs	r3, #3
 800304c:	e12b      	b.n	80032a6 <HAL_RCC_OscConfig+0x616>
      while(__HAL_RCC_GET_FLAG(RCC_FLAG_LSERDY) == RESET)
 800304e:	4b98      	ldr	r3, [pc, #608]	@ (80032b0 <HAL_RCC_OscConfig+0x620>)
 8003050:	6a1b      	ldr	r3, [r3, #32]
 8003052:	2202      	movs	r2, #2
 8003054:	4013      	ands	r3, r2
 8003056:	d0f0      	beq.n	800303a <HAL_RCC_OscConfig+0x3aa>
 8003058:	e013      	b.n	8003082 <HAL_RCC_OscConfig+0x3f2>
      }
    }
    else
    {
      /* Get Start Tick */
      tickstart = HAL_GetTick();
 800305a:	f7fe fd01 	bl	8001a60 <HAL_GetTick>
 800305e:	0003      	movs	r3, r0
 8003060:	61bb      	str	r3, [r7, #24]
      
      /* Wait till LSE is disabled */  
      while(__HAL_RCC_GET_FLAG(RCC_FLAG_LSERDY) != RESET)
 8003062:	e009      	b.n	8003078 <HAL_RCC_OscConfig+0x3e8>
      {
        if((HAL_GetTick() - tickstart ) > RCC_LSE_TIMEOUT_VALUE)
 8003064:	f7fe fcfc 	bl	8001a60 <HAL_GetTick>
 8003068:	0002      	movs	r2, r0
 800306a:	69bb      	ldr	r3, [r7, #24]
 800306c:	1ad3      	subs	r3, r2, r3
 800306e:	4a91      	ldr	r2, [pc, #580]	@ (80032b4 <HAL_RCC_OscConfig+0x624>)
 8003070:	4293      	cmp	r3, r2
 8003072:	d901      	bls.n	8003078 <HAL_RCC_OscConfig+0x3e8>
        {
          return HAL_TIMEOUT;
 8003074:	2303      	movs	r3, #3
 8003076:	e116      	b.n	80032a6 <HAL_RCC_OscConfig+0x616>
      while(__HAL_RCC_GET_FLAG(RCC_FLAG_LSERDY) != RESET)
 8003078:	4b8d      	ldr	r3, [pc, #564]	@ (80032b0 <HAL_RCC_OscConfig+0x620>)
 800307a:	6a1b      	ldr	r3, [r3, #32]
 800307c:	2202      	movs	r2, #2
 800307e:	4013      	ands	r3, r2
 8003080:	d1f0      	bne.n	8003064 <HAL_RCC_OscConfig+0x3d4>
        }
      }
    }

    /* Require to disable power clock if necessary */
    if(pwrclkchanged == SET)
 8003082:	231f      	movs	r3, #31
 8003084:	18fb      	adds	r3, r7, r3
 8003086:	781b      	ldrb	r3, [r3, #0]
 8003088:	2b01      	cmp	r3, #1
 800308a:	d105      	bne.n	8003098 <HAL_RCC_OscConfig+0x408>
    {
      __HAL_RCC_PWR_CLK_DISABLE();
 800308c:	4b88      	ldr	r3, [pc, #544]	@ (80032b0 <HAL_RCC_OscConfig+0x620>)
 800308e:	69da      	ldr	r2, [r3, #28]
 8003090:	4b87      	ldr	r3, [pc, #540]	@ (80032b0 <HAL_RCC_OscConfig+0x620>)
 8003092:	4989      	ldr	r1, [pc, #548]	@ (80032b8 <HAL_RCC_OscConfig+0x628>)
 8003094:	400a      	ands	r2, r1
 8003096:	61da      	str	r2, [r3, #28]
    }
  }

  /*----------------------------- HSI14 Configuration --------------------------*/
  if(((RCC_OscInitStruct->OscillatorType) & RCC_OSCILLATORTYPE_HSI14) == RCC_OSCILLATORTYPE_HSI14)
 8003098:	687b      	ldr	r3, [r7, #4]
 800309a:	681b      	ldr	r3, [r3, #0]
 800309c:	2210      	movs	r2, #16
 800309e:	4013      	ands	r3, r2
 80030a0:	d063      	beq.n	800316a <HAL_RCC_OscConfig+0x4da>
    /* Check the parameters */
    assert_param(IS_RCC_HSI14(RCC_OscInitStruct->HSI14State));
    assert_param(IS_RCC_CALIBRATION_VALUE(RCC_OscInitStruct->HSI14CalibrationValue));

    /* Check the HSI14 State */
    if(RCC_OscInitStruct->HSI14State == RCC_HSI14_ON)
 80030a2:	687b      	ldr	r3, [r7, #4]
 80030a4:	695b      	ldr	r3, [r3, #20]
 80030a6:	2b01      	cmp	r3, #1
 80030a8:	d12a      	bne.n	8003100 <HAL_RCC_OscConfig+0x470>
    {
      /* Disable ADC control of the Internal High Speed oscillator HSI14 */
      __HAL_RCC_HSI14ADC_DISABLE();
 80030aa:	4b81      	ldr	r3, [pc, #516]	@ (80032b0 <HAL_RCC_OscConfig+0x620>)
 80030ac:	6b5a      	ldr	r2, [r3, #52]	@ 0x34
 80030ae:	4b80      	ldr	r3, [pc, #512]	@ (80032b0 <HAL_RCC_OscConfig+0x620>)
 80030b0:	2104      	movs	r1, #4
 80030b2:	430a      	orrs	r2, r1
 80030b4:	635a      	str	r2, [r3, #52]	@ 0x34

      /* Enable the Internal High Speed oscillator (HSI). */
      __HAL_RCC_HSI14_ENABLE();
 80030b6:	4b7e      	ldr	r3, [pc, #504]	@ (80032b0 <HAL_RCC_OscConfig+0x620>)
 80030b8:	6b5a      	ldr	r2, [r3, #52]	@ 0x34
 80030ba:	4b7d      	ldr	r3, [pc, #500]	@ (80032b0 <HAL_RCC_OscConfig+0x620>)
 80030bc:	2101      	movs	r1, #1
 80030be:	430a      	orrs	r2, r1
 80030c0:	635a      	str	r2, [r3, #52]	@ 0x34

      /* Get Start Tick */
      tickstart = HAL_GetTick();
 80030c2:	f7fe fccd 	bl	8001a60 <HAL_GetTick>
 80030c6:	0003      	movs	r3, r0
 80030c8:	61bb      	str	r3, [r7, #24]
      
      /* Wait till HSI is ready */  
      while(__HAL_RCC_GET_FLAG(RCC_FLAG_HSI14RDY) == RESET)
 80030ca:	e008      	b.n	80030de <HAL_RCC_OscConfig+0x44e>
      {
        if((HAL_GetTick() - tickstart) > HSI14_TIMEOUT_VALUE)
 80030cc:	f7fe fcc8 	bl	8001a60 <HAL_GetTick>
 80030d0:	0002      	movs	r2, r0
 80030d2:	69bb      	ldr	r3, [r7, #24]
 80030d4:	1ad3      	subs	r3, r2, r3
 80030d6:	2b02      	cmp	r3, #2
 80030d8:	d901      	bls.n	80030de <HAL_RCC_OscConfig+0x44e>
        {
          return HAL_TIMEOUT;
 80030da:	2303      	movs	r3, #3
 80030dc:	e0e3      	b.n	80032a6 <HAL_RCC_OscConfig+0x616>
      while(__HAL_RCC_GET_FLAG(RCC_FLAG_HSI14RDY) == RESET)
 80030de:	4b74      	ldr	r3, [pc, #464]	@ (80032b0 <HAL_RCC_OscConfig+0x620>)
 80030e0:	6b5b      	ldr	r3, [r3, #52]	@ 0x34
 80030e2:	2202      	movs	r2, #2
 80030e4:	4013      	ands	r3, r2
 80030e6:	d0f1      	beq.n	80030cc <HAL_RCC_OscConfig+0x43c>
        }      
      } 

      /* Adjusts the Internal High Speed oscillator 14Mhz (HSI14) calibration value. */
      __HAL_RCC_HSI14_CALIBRATIONVALUE_ADJUST(RCC_OscInitStruct->HSI14CalibrationValue);
 80030e8:	4b71      	ldr	r3, [pc, #452]	@ (80032b0 <HAL_RCC_OscConfig+0x620>)
 80030ea:	6b5b      	ldr	r3, [r3, #52]	@ 0x34
 80030ec:	22f8      	movs	r2, #248	@ 0xf8
 80030ee:	4393      	bics	r3, r2
 80030f0:	0019      	movs	r1, r3
 80030f2:	687b      	ldr	r3, [r7, #4]
 80030f4:	699b      	ldr	r3, [r3, #24]
 80030f6:	00da      	lsls	r2, r3, #3
 80030f8:	4b6d      	ldr	r3, [pc, #436]	@ (80032b0 <HAL_RCC_OscConfig+0x620>)
 80030fa:	430a      	orrs	r2, r1
 80030fc:	635a      	str	r2, [r3, #52]	@ 0x34
 80030fe:	e034      	b.n	800316a <HAL_RCC_OscConfig+0x4da>
    }
    else if(RCC_OscInitStruct->HSI14State == RCC_HSI14_ADC_CONTROL)
 8003100:	687b      	ldr	r3, [r7, #4]
 8003102:	695b      	ldr	r3, [r3, #20]
 8003104:	3305      	adds	r3, #5
 8003106:	d111      	bne.n	800312c <HAL_RCC_OscConfig+0x49c>
    {
      /* Enable ADC control of the Internal High Speed oscillator HSI14 */
      __HAL_RCC_HSI14ADC_ENABLE();
 8003108:	4b69      	ldr	r3, [pc, #420]	@ (80032b0 <HAL_RCC_OscConfig+0x620>)
 800310a:	6b5a      	ldr	r2, [r3, #52]	@ 0x34
 800310c:	4b68      	ldr	r3, [pc, #416]	@ (80032b0 <HAL_RCC_OscConfig+0x620>)
 800310e:	2104      	movs	r1, #4
 8003110:	438a      	bics	r2, r1
 8003112:	635a      	str	r2, [r3, #52]	@ 0x34

      /* Adjusts the Internal High Speed oscillator 14Mhz (HSI14) calibration value. */
      __HAL_RCC_HSI14_CALIBRATIONVALUE_ADJUST(RCC_OscInitStruct->HSI14CalibrationValue);
 8003114:	4b66      	ldr	r3, [pc, #408]	@ (80032b0 <HAL_RCC_OscConfig+0x620>)
 8003116:	6b5b      	ldr	r3, [r3, #52]	@ 0x34
 8003118:	22f8      	movs	r2, #248	@ 0xf8
 800311a:	4393      	bics	r3, r2
 800311c:	0019      	movs	r1, r3
 800311e:	687b      	ldr	r3, [r7, #4]
 8003120:	699b      	ldr	r3, [r3, #24]
 8003122:	00da      	lsls	r2, r3, #3
 8003124:	4b62      	ldr	r3, [pc, #392]	@ (80032b0 <HAL_RCC_OscConfig+0x620>)
 8003126:	430a      	orrs	r2, r1
 8003128:	635a      	str	r2, [r3, #52]	@ 0x34
 800312a:	e01e      	b.n	800316a <HAL_RCC_OscConfig+0x4da>
    }
    else
    {
      /* Disable ADC control of the Internal High Speed oscillator HSI14 */
      __HAL_RCC_HSI14ADC_DISABLE();
 800312c:	4b60      	ldr	r3, [pc, #384]	@ (80032b0 <HAL_RCC_OscConfig+0x620>)
 800312e:	6b5a      	ldr	r2, [r3, #52]	@ 0x34
 8003130:	4b5f      	ldr	r3, [pc, #380]	@ (80032b0 <HAL_RCC_OscConfig+0x620>)
 8003132:	2104      	movs	r1, #4
 8003134:	430a      	orrs	r2, r1
 8003136:	635a      	str	r2, [r3, #52]	@ 0x34

      /* Disable the Internal High Speed oscillator (HSI). */
      __HAL_RCC_HSI14_DISABLE();
 8003138:	4b5d      	ldr	r3, [pc, #372]	@ (80032b0 <HAL_RCC_OscConfig+0x620>)
 800313a:	6b5a      	ldr	r2, [r3, #52]	@ 0x34
 800313c:	4b5c      	ldr	r3, [pc, #368]	@ (80032b0 <HAL_RCC_OscConfig+0x620>)
 800313e:	2101      	movs	r1, #1
 8003140:	438a      	bics	r2, r1
 8003142:	635a      	str	r2, [r3, #52]	@ 0x34

      /* Get Start Tick */
      tickstart = HAL_GetTick();
 8003144:	f7fe fc8c 	bl	8001a60 <HAL_GetTick>
 8003148:	0003      	movs	r3, r0
 800314a:	61bb      	str	r3, [r7, #24]
      
      /* Wait till HSI is ready */  
      while(__HAL_RCC_GET_FLAG(RCC_FLAG_HSI14RDY) != RESET)
 800314c:	e008      	b.n	8003160 <HAL_RCC_OscConfig+0x4d0>
      {
        if((HAL_GetTick() - tickstart) > HSI14_TIMEOUT_VALUE)
 800314e:	f7fe fc87 	bl	8001a60 <HAL_GetTick>
 8003152:	0002      	movs	r2, r0
 8003154:	69bb      	ldr	r3, [r7, #24]
 8003156:	1ad3      	subs	r3, r2, r3
 8003158:	2b02      	cmp	r3, #2
 800315a:	d901      	bls.n	8003160 <HAL_RCC_OscConfig+0x4d0>
        {
          return HAL_TIMEOUT;
 800315c:	2303      	movs	r3, #3
 800315e:	e0a2      	b.n	80032a6 <HAL_RCC_OscConfig+0x616>
      while(__HAL_RCC_GET_FLAG(RCC_FLAG_HSI14RDY) != RESET)
 8003160:	4b53      	ldr	r3, [pc, #332]	@ (80032b0 <HAL_RCC_OscConfig+0x620>)
 8003162:	6b5b      	ldr	r3, [r3, #52]	@ 0x34
 8003164:	2202      	movs	r2, #2
 8003166:	4013      	ands	r3, r2
 8003168:	d1f1      	bne.n	800314e <HAL_RCC_OscConfig+0x4be>
#endif /* RCC_HSI48_SUPPORT */
       
  /*-------------------------------- PLL Configuration -----------------------*/
  /* Check the parameters */
  assert_param(IS_RCC_PLL(RCC_OscInitStruct->PLL.PLLState));
  if ((RCC_OscInitStruct->PLL.PLLState) != RCC_PLL_NONE)
 800316a:	687b      	ldr	r3, [r7, #4]
 800316c:	6a1b      	ldr	r3, [r3, #32]
 800316e:	2b00      	cmp	r3, #0
 8003170:	d100      	bne.n	8003174 <HAL_RCC_OscConfig+0x4e4>
 8003172:	e097      	b.n	80032a4 <HAL_RCC_OscConfig+0x614>
  {
    /* Check if the PLL is used as system clock or not */
    if(__HAL_RCC_GET_SYSCLK_SOURCE() != RCC_SYSCLKSOURCE_STATUS_PLLCLK)
 8003174:	4b4e      	ldr	r3, [pc, #312]	@ (80032b0 <HAL_RCC_OscConfig+0x620>)
 8003176:	685b      	ldr	r3, [r3, #4]
 8003178:	220c      	movs	r2, #12
 800317a:	4013      	ands	r3, r2
 800317c:	2b08      	cmp	r3, #8
 800317e:	d100      	bne.n	8003182 <HAL_RCC_OscConfig+0x4f2>
 8003180:	e06b      	b.n	800325a <HAL_RCC_OscConfig+0x5ca>
    { 
      if((RCC_OscInitStruct->PLL.PLLState) == RCC_PLL_ON)
 8003182:	687b      	ldr	r3, [r7, #4]
 8003184:	6a1b      	ldr	r3, [r3, #32]
 8003186:	2b02      	cmp	r3, #2
 8003188:	d14c      	bne.n	8003224 <HAL_RCC_OscConfig+0x594>
        assert_param(IS_RCC_PLLSOURCE(RCC_OscInitStruct->PLL.PLLSource));
        assert_param(IS_RCC_PLL_MUL(RCC_OscInitStruct->PLL.PLLMUL));
        assert_param(IS_RCC_PREDIV(RCC_OscInitStruct->PLL.PREDIV));
  
        /* Disable the main PLL. */
        __HAL_RCC_PLL_DISABLE();
 800318a:	4b49      	ldr	r3, [pc, #292]	@ (80032b0 <HAL_RCC_OscConfig+0x620>)
 800318c:	681a      	ldr	r2, [r3, #0]
 800318e:	4b48      	ldr	r3, [pc, #288]	@ (80032b0 <HAL_RCC_OscConfig+0x620>)
 8003190:	494a      	ldr	r1, [pc, #296]	@ (80032bc <HAL_RCC_OscConfig+0x62c>)
 8003192:	400a      	ands	r2, r1
 8003194:	601a      	str	r2, [r3, #0]
        
        /* Get Start Tick */
        tickstart = HAL_GetTick();
 8003196:	f7fe fc63 	bl	8001a60 <HAL_GetTick>
 800319a:	0003      	movs	r3, r0
 800319c:	61bb      	str	r3, [r7, #24]
        
        /* Wait till PLL is disabled */
        while(__HAL_RCC_GET_FLAG(RCC_FLAG_PLLRDY)  != RESET)
 800319e:	e008      	b.n	80031b2 <HAL_RCC_OscConfig+0x522>
        {
          if((HAL_GetTick() - tickstart ) > PLL_TIMEOUT_VALUE)
 80031a0:	f7fe fc5e 	bl	8001a60 <HAL_GetTick>
 80031a4:	0002      	movs	r2, r0
 80031a6:	69bb      	ldr	r3, [r7, #24]
 80031a8:	1ad3      	subs	r3, r2, r3
 80031aa:	2b02      	cmp	r3, #2
 80031ac:	d901      	bls.n	80031b2 <HAL_RCC_OscConfig+0x522>
          {
            return HAL_TIMEOUT;
 80031ae:	2303      	movs	r3, #3
 80031b0:	e079      	b.n	80032a6 <HAL_RCC_OscConfig+0x616>
        while(__HAL_RCC_GET_FLAG(RCC_FLAG_PLLRDY)  != RESET)
 80031b2:	4b3f      	ldr	r3, [pc, #252]	@ (80032b0 <HAL_RCC_OscConfig+0x620>)
 80031b4:	681a      	ldr	r2, [r3, #0]
 80031b6:	2380      	movs	r3, #128	@ 0x80
 80031b8:	049b      	lsls	r3, r3, #18
 80031ba:	4013      	ands	r3, r2
 80031bc:	d1f0      	bne.n	80031a0 <HAL_RCC_OscConfig+0x510>
          }
        }

        /* Configure the main PLL clock source, predivider and multiplication factor. */
        __HAL_RCC_PLL_CONFIG(RCC_OscInitStruct->PLL.PLLSource,
 80031be:	4b3c      	ldr	r3, [pc, #240]	@ (80032b0 <HAL_RCC_OscConfig+0x620>)
 80031c0:	6adb      	ldr	r3, [r3, #44]	@ 0x2c
 80031c2:	220f      	movs	r2, #15
 80031c4:	4393      	bics	r3, r2
 80031c6:	0019      	movs	r1, r3
 80031c8:	687b      	ldr	r3, [r7, #4]
 80031ca:	6ada      	ldr	r2, [r3, #44]	@ 0x2c
 80031cc:	4b38      	ldr	r3, [pc, #224]	@ (80032b0 <HAL_RCC_OscConfig+0x620>)
 80031ce:	430a      	orrs	r2, r1
 80031d0:	62da      	str	r2, [r3, #44]	@ 0x2c
 80031d2:	4b37      	ldr	r3, [pc, #220]	@ (80032b0 <HAL_RCC_OscConfig+0x620>)
 80031d4:	685b      	ldr	r3, [r3, #4]
 80031d6:	4a3a      	ldr	r2, [pc, #232]	@ (80032c0 <HAL_RCC_OscConfig+0x630>)
 80031d8:	4013      	ands	r3, r2
 80031da:	0019      	movs	r1, r3
 80031dc:	687b      	ldr	r3, [r7, #4]
 80031de:	6a9a      	ldr	r2, [r3, #40]	@ 0x28
 80031e0:	687b      	ldr	r3, [r7, #4]
 80031e2:	6a5b      	ldr	r3, [r3, #36]	@ 0x24
 80031e4:	431a      	orrs	r2, r3
 80031e6:	4b32      	ldr	r3, [pc, #200]	@ (80032b0 <HAL_RCC_OscConfig+0x620>)
 80031e8:	430a      	orrs	r2, r1
 80031ea:	605a      	str	r2, [r3, #4]
                             RCC_OscInitStruct->PLL.PREDIV,
                             RCC_OscInitStruct->PLL.PLLMUL);
        /* Enable the main PLL. */
        __HAL_RCC_PLL_ENABLE();
 80031ec:	4b30      	ldr	r3, [pc, #192]	@ (80032b0 <HAL_RCC_OscConfig+0x620>)
 80031ee:	681a      	ldr	r2, [r3, #0]
 80031f0:	4b2f      	ldr	r3, [pc, #188]	@ (80032b0 <HAL_RCC_OscConfig+0x620>)
 80031f2:	2180      	movs	r1, #128	@ 0x80
 80031f4:	0449      	lsls	r1, r1, #17
 80031f6:	430a      	orrs	r2, r1
 80031f8:	601a      	str	r2, [r3, #0]
        
        /* Get Start Tick */
        tickstart = HAL_GetTick();
 80031fa:	f7fe fc31 	bl	8001a60 <HAL_GetTick>
 80031fe:	0003      	movs	r3, r0
 8003200:	61bb      	str	r3, [r7, #24]
        
        /* Wait till PLL is ready */
        while(__HAL_RCC_GET_FLAG(RCC_FLAG_PLLRDY)  == RESET)
 8003202:	e008      	b.n	8003216 <HAL_RCC_OscConfig+0x586>
        {
          if((HAL_GetTick() - tickstart ) > PLL_TIMEOUT_VALUE)
 8003204:	f7fe fc2c 	bl	8001a60 <HAL_GetTick>
 8003208:	0002      	movs	r2, r0
 800320a:	69bb      	ldr	r3, [r7, #24]
 800320c:	1ad3      	subs	r3, r2, r3
 800320e:	2b02      	cmp	r3, #2
 8003210:	d901      	bls.n	8003216 <HAL_RCC_OscConfig+0x586>
          {
            return HAL_TIMEOUT;
 8003212:	2303      	movs	r3, #3
 8003214:	e047      	b.n	80032a6 <HAL_RCC_OscConfig+0x616>
        while(__HAL_RCC_GET_FLAG(RCC_FLAG_PLLRDY)  == RESET)
 8003216:	4b26      	ldr	r3, [pc, #152]	@ (80032b0 <HAL_RCC_OscConfig+0x620>)
 8003218:	681a      	ldr	r2, [r3, #0]
 800321a:	2380      	movs	r3, #128	@ 0x80
 800321c:	049b      	lsls	r3, r3, #18
 800321e:	4013      	ands	r3, r2
 8003220:	d0f0      	beq.n	8003204 <HAL_RCC_OscConfig+0x574>
 8003222:	e03f      	b.n	80032a4 <HAL_RCC_OscConfig+0x614>
        }
      }
      else
      {
        /* Disable the main PLL. */
        __HAL_RCC_PLL_DISABLE();
 8003224:	4b22      	ldr	r3, [pc, #136]	@ (80032b0 <HAL_RCC_OscConfig+0x620>)
 8003226:	681a      	ldr	r2, [r3, #0]
 8003228:	4b21      	ldr	r3, [pc, #132]	@ (80032b0 <HAL_RCC_OscConfig+0x620>)
 800322a:	4924      	ldr	r1, [pc, #144]	@ (80032bc <HAL_RCC_OscConfig+0x62c>)
 800322c:	400a      	ands	r2, r1
 800322e:	601a      	str	r2, [r3, #0]
 
        /* Get Start Tick */
        tickstart = HAL_GetTick();
 8003230:	f7fe fc16 	bl	8001a60 <HAL_GetTick>
 8003234:	0003      	movs	r3, r0
 8003236:	61bb      	str	r3, [r7, #24]
        
        /* Wait till PLL is disabled */  
        while(__HAL_RCC_GET_FLAG(RCC_FLAG_PLLRDY)  != RESET)
 8003238:	e008      	b.n	800324c <HAL_RCC_OscConfig+0x5bc>
        {
          if((HAL_GetTick() - tickstart ) > PLL_TIMEOUT_VALUE)
 800323a:	f7fe fc11 	bl	8001a60 <HAL_GetTick>
 800323e:	0002      	movs	r2, r0
 8003240:	69bb      	ldr	r3, [r7, #24]
 8003242:	1ad3      	subs	r3, r2, r3
 8003244:	2b02      	cmp	r3, #2
 8003246:	d901      	bls.n	800324c <HAL_RCC_OscConfig+0x5bc>
          {
            return HAL_TIMEOUT;
 8003248:	2303      	movs	r3, #3
 800324a:	e02c      	b.n	80032a6 <HAL_RCC_OscConfig+0x616>
        while(__HAL_RCC_GET_FLAG(RCC_FLAG_PLLRDY)  != RESET)
 800324c:	4b18      	ldr	r3, [pc, #96]	@ (80032b0 <HAL_RCC_OscConfig+0x620>)
 800324e:	681a      	ldr	r2, [r3, #0]
 8003250:	2380      	movs	r3, #128	@ 0x80
 8003252:	049b      	lsls	r3, r3, #18
 8003254:	4013      	ands	r3, r2
 8003256:	d1f0      	bne.n	800323a <HAL_RCC_OscConfig+0x5aa>
 8003258:	e024      	b.n	80032a4 <HAL_RCC_OscConfig+0x614>
      }
    }
    else
    {
      /* Check if there is a request to disable the PLL used as System clock source */
      if((RCC_OscInitStruct->PLL.PLLState) == RCC_PLL_OFF)
 800325a:	687b      	ldr	r3, [r7, #4]
 800325c:	6a1b      	ldr	r3, [r3, #32]
 800325e:	2b01      	cmp	r3, #1
 8003260:	d101      	bne.n	8003266 <HAL_RCC_OscConfig+0x5d6>
      {
        return HAL_ERROR;
 8003262:	2301      	movs	r3, #1
 8003264:	e01f      	b.n	80032a6 <HAL_RCC_OscConfig+0x616>
      }
      else
      {
        /* Do not return HAL_ERROR if request repeats the current configuration */
        pll_config  = RCC->CFGR;
 8003266:	4b12      	ldr	r3, [pc, #72]	@ (80032b0 <HAL_RCC_OscConfig+0x620>)
 8003268:	685b      	ldr	r3, [r3, #4]
 800326a:	617b      	str	r3, [r7, #20]
        pll_config2 = RCC->CFGR2;
 800326c:	4b10      	ldr	r3, [pc, #64]	@ (80032b0 <HAL_RCC_OscConfig+0x620>)
 800326e:	6adb      	ldr	r3, [r3, #44]	@ 0x2c
 8003270:	613b      	str	r3, [r7, #16]
        if((READ_BIT(pll_config,  RCC_CFGR_PLLSRC)  != RCC_OscInitStruct->PLL.PLLSource) ||
 8003272:	697a      	ldr	r2, [r7, #20]
 8003274:	2380      	movs	r3, #128	@ 0x80
 8003276:	025b      	lsls	r3, r3, #9
 8003278:	401a      	ands	r2, r3
 800327a:	687b      	ldr	r3, [r7, #4]
 800327c:	6a5b      	ldr	r3, [r3, #36]	@ 0x24
 800327e:	429a      	cmp	r2, r3
 8003280:	d10e      	bne.n	80032a0 <HAL_RCC_OscConfig+0x610>
           (READ_BIT(pll_config2, RCC_CFGR2_PREDIV) != RCC_OscInitStruct->PLL.PREDIV)    ||
 8003282:	693b      	ldr	r3, [r7, #16]
 8003284:	220f      	movs	r2, #15
 8003286:	401a      	ands	r2, r3
 8003288:	687b      	ldr	r3, [r7, #4]
 800328a:	6adb      	ldr	r3, [r3, #44]	@ 0x2c
        if((READ_BIT(pll_config,  RCC_CFGR_PLLSRC)  != RCC_OscInitStruct->PLL.PLLSource) ||
 800328c:	429a      	cmp	r2, r3
 800328e:	d107      	bne.n	80032a0 <HAL_RCC_OscConfig+0x610>
           (READ_BIT(pll_config,  RCC_CFGR_PLLMUL)  != RCC_OscInitStruct->PLL.PLLMUL))
 8003290:	697a      	ldr	r2, [r7, #20]
 8003292:	23f0      	movs	r3, #240	@ 0xf0
 8003294:	039b      	lsls	r3, r3, #14
 8003296:	401a      	ands	r2, r3
 8003298:	687b      	ldr	r3, [r7, #4]
 800329a:	6a9b      	ldr	r3, [r3, #40]	@ 0x28
           (READ_BIT(pll_config2, RCC_CFGR2_PREDIV) != RCC_OscInitStruct->PLL.PREDIV)    ||
 800329c:	429a      	cmp	r2, r3
 800329e:	d001      	beq.n	80032a4 <HAL_RCC_OscConfig+0x614>
        {
          return HAL_ERROR;
 80032a0:	2301      	movs	r3, #1
 80032a2:	e000      	b.n	80032a6 <HAL_RCC_OscConfig+0x616>
        }
      }
    }
  }

  return HAL_OK;
 80032a4:	2300      	movs	r3, #0
}
 80032a6:	0018      	movs	r0, r3
 80032a8:	46bd      	mov	sp, r7
 80032aa:	b008      	add	sp, #32
 80032ac:	bd80      	pop	{r7, pc}
 80032ae:	46c0      	nop			@ (mov r8, r8)
 80032b0:	40021000 	.word	0x40021000
 80032b4:	00001388 	.word	0x00001388
 80032b8:	efffffff 	.word	0xefffffff
 80032bc:	feffffff 	.word	0xfeffffff
 80032c0:	ffc2ffff 	.word	0xffc2ffff

080032c4 <HAL_RCC_ClockConfig>:
  *         You can use @ref HAL_RCC_GetClockConfig() function to know which clock is
  *         currently used as system clock source.
  * @retval HAL status
  */
HAL_StatusTypeDef HAL_RCC_ClockConfig(RCC_ClkInitTypeDef  *RCC_ClkInitStruct, uint32_t FLatency)
{
 80032c4:	b580      	push	{r7, lr}
 80032c6:	b084      	sub	sp, #16
 80032c8:	af00      	add	r7, sp, #0
 80032ca:	6078      	str	r0, [r7, #4]
 80032cc:	6039      	str	r1, [r7, #0]
  uint32_t tickstart;

  /* Check Null pointer */
  if(RCC_ClkInitStruct == NULL)
 80032ce:	687b      	ldr	r3, [r7, #4]
 80032d0:	2b00      	cmp	r3, #0
 80032d2:	d101      	bne.n	80032d8 <HAL_RCC_ClockConfig+0x14>
  {
    return HAL_ERROR;
 80032d4:	2301      	movs	r3, #1
 80032d6:	e0b3      	b.n	8003440 <HAL_RCC_ClockConfig+0x17c>
  /* To correctly read data from FLASH memory, the number of wait states (LATENCY) 
  must be correctly programmed according to the frequency of the CPU clock 
    (HCLK) of the device. */

  /* Increasing the number of wait states because of higher CPU frequency */
  if(FLatency > __HAL_FLASH_GET_LATENCY())
 80032d8:	4b5b      	ldr	r3, [pc, #364]	@ (8003448 <HAL_RCC_ClockConfig+0x184>)
 80032da:	681b      	ldr	r3, [r3, #0]
 80032dc:	2201      	movs	r2, #1
 80032de:	4013      	ands	r3, r2
 80032e0:	683a      	ldr	r2, [r7, #0]
 80032e2:	429a      	cmp	r2, r3
 80032e4:	d911      	bls.n	800330a <HAL_RCC_ClockConfig+0x46>
  {    
    /* Program the new number of wait states to the LATENCY bits in the FLASH_ACR register */
    __HAL_FLASH_SET_LATENCY(FLatency);
 80032e6:	4b58      	ldr	r3, [pc, #352]	@ (8003448 <HAL_RCC_ClockConfig+0x184>)
 80032e8:	681b      	ldr	r3, [r3, #0]
 80032ea:	2201      	movs	r2, #1
 80032ec:	4393      	bics	r3, r2
 80032ee:	0019      	movs	r1, r3
 80032f0:	4b55      	ldr	r3, [pc, #340]	@ (8003448 <HAL_RCC_ClockConfig+0x184>)
 80032f2:	683a      	ldr	r2, [r7, #0]
 80032f4:	430a      	orrs	r2, r1
 80032f6:	601a      	str	r2, [r3, #0]
    
    /* Check that the new number of wait states is taken into account to access the Flash
    memory by reading the FLASH_ACR register */
    if(__HAL_FLASH_GET_LATENCY() != FLatency)
 80032f8:	4b53      	ldr	r3, [pc, #332]	@ (8003448 <HAL_RCC_ClockConfig+0x184>)
 80032fa:	681b      	ldr	r3, [r3, #0]
 80032fc:	2201      	movs	r2, #1
 80032fe:	4013      	ands	r3, r2
 8003300:	683a      	ldr	r2, [r7, #0]
 8003302:	429a      	cmp	r2, r3
 8003304:	d001      	beq.n	800330a <HAL_RCC_ClockConfig+0x46>
    {
      return HAL_ERROR;
 8003306:	2301      	movs	r3, #1
 8003308:	e09a      	b.n	8003440 <HAL_RCC_ClockConfig+0x17c>
    }
  }

  /*-------------------------- HCLK Configuration --------------------------*/
  if(((RCC_ClkInitStruct->ClockType) & RCC_CLOCKTYPE_HCLK) == RCC_CLOCKTYPE_HCLK)
 800330a:	687b      	ldr	r3, [r7, #4]
 800330c:	681b      	ldr	r3, [r3, #0]
 800330e:	2202      	movs	r2, #2
 8003310:	4013      	ands	r3, r2
 8003312:	d015      	beq.n	8003340 <HAL_RCC_ClockConfig+0x7c>
  {
    /* Set the highest APB divider in order to ensure that we do not go through
       a non-spec phase whatever we decrease or increase HCLK. */
    if(((RCC_ClkInitStruct->ClockType) & RCC_CLOCKTYPE_PCLK1) == RCC_CLOCKTYPE_PCLK1)
 8003314:	687b      	ldr	r3, [r7, #4]
 8003316:	681b      	ldr	r3, [r3, #0]
 8003318:	2204      	movs	r2, #4
 800331a:	4013      	ands	r3, r2
 800331c:	d006      	beq.n	800332c <HAL_RCC_ClockConfig+0x68>
    {
      MODIFY_REG(RCC->CFGR, RCC_CFGR_PPRE, RCC_HCLK_DIV16);
 800331e:	4b4b      	ldr	r3, [pc, #300]	@ (800344c <HAL_RCC_ClockConfig+0x188>)
 8003320:	685a      	ldr	r2, [r3, #4]
 8003322:	4b4a      	ldr	r3, [pc, #296]	@ (800344c <HAL_RCC_ClockConfig+0x188>)
 8003324:	21e0      	movs	r1, #224	@ 0xe0
 8003326:	00c9      	lsls	r1, r1, #3
 8003328:	430a      	orrs	r2, r1
 800332a:	605a      	str	r2, [r3, #4]
    }

    /* Set the new HCLK clock divider */
    assert_param(IS_RCC_HCLK(RCC_ClkInitStruct->AHBCLKDivider));
    MODIFY_REG(RCC->CFGR, RCC_CFGR_HPRE, RCC_ClkInitStruct->AHBCLKDivider);
 800332c:	4b47      	ldr	r3, [pc, #284]	@ (800344c <HAL_RCC_ClockConfig+0x188>)
 800332e:	685b      	ldr	r3, [r3, #4]
 8003330:	22f0      	movs	r2, #240	@ 0xf0
 8003332:	4393      	bics	r3, r2
 8003334:	0019      	movs	r1, r3
 8003336:	687b      	ldr	r3, [r7, #4]
 8003338:	689a      	ldr	r2, [r3, #8]
 800333a:	4b44      	ldr	r3, [pc, #272]	@ (800344c <HAL_RCC_ClockConfig+0x188>)
 800333c:	430a      	orrs	r2, r1
 800333e:	605a      	str	r2, [r3, #4]
  }

  /*------------------------- SYSCLK Configuration ---------------------------*/ 
  if(((RCC_ClkInitStruct->ClockType) & RCC_CLOCKTYPE_SYSCLK) == RCC_CLOCKTYPE_SYSCLK)
 8003340:	687b      	ldr	r3, [r7, #4]
 8003342:	681b      	ldr	r3, [r3, #0]
 8003344:	2201      	movs	r2, #1
 8003346:	4013      	ands	r3, r2
 8003348:	d040      	beq.n	80033cc <HAL_RCC_ClockConfig+0x108>
  {
    assert_param(IS_RCC_SYSCLKSOURCE(RCC_ClkInitStruct->SYSCLKSource));
    
    /* HSE is selected as System Clock Source */
    if(RCC_ClkInitStruct->SYSCLKSource == RCC_SYSCLKSOURCE_HSE)
 800334a:	687b      	ldr	r3, [r7, #4]
 800334c:	685b      	ldr	r3, [r3, #4]
 800334e:	2b01      	cmp	r3, #1
 8003350:	d107      	bne.n	8003362 <HAL_RCC_ClockConfig+0x9e>
    {
      /* Check the HSE ready flag */  
      if(__HAL_RCC_GET_FLAG(RCC_FLAG_HSERDY) == RESET)
 8003352:	4b3e      	ldr	r3, [pc, #248]	@ (800344c <HAL_RCC_ClockConfig+0x188>)
 8003354:	681a      	ldr	r2, [r3, #0]
 8003356:	2380      	movs	r3, #128	@ 0x80
 8003358:	029b      	lsls	r3, r3, #10
 800335a:	4013      	ands	r3, r2
 800335c:	d114      	bne.n	8003388 <HAL_RCC_ClockConfig+0xc4>
      {
        return HAL_ERROR;
 800335e:	2301      	movs	r3, #1
 8003360:	e06e      	b.n	8003440 <HAL_RCC_ClockConfig+0x17c>
      }
    }
    /* PLL is selected as System Clock Source */
    else if(RCC_ClkInitStruct->SYSCLKSource == RCC_SYSCLKSOURCE_PLLCLK)
 8003362:	687b      	ldr	r3, [r7, #4]
 8003364:	685b      	ldr	r3, [r3, #4]
 8003366:	2b02      	cmp	r3, #2
 8003368:	d107      	bne.n	800337a <HAL_RCC_ClockConfig+0xb6>
    {
      /* Check the PLL ready flag */  
      if(__HAL_RCC_GET_FLAG(RCC_FLAG_PLLRDY) == RESET)
 800336a:	4b38      	ldr	r3, [pc, #224]	@ (800344c <HAL_RCC_ClockConfig+0x188>)
 800336c:	681a      	ldr	r2, [r3, #0]
 800336e:	2380      	movs	r3, #128	@ 0x80
 8003370:	049b      	lsls	r3, r3, #18
 8003372:	4013      	ands	r3, r2
 8003374:	d108      	bne.n	8003388 <HAL_RCC_ClockConfig+0xc4>
      {
        return HAL_ERROR;
 8003376:	2301      	movs	r3, #1
 8003378:	e062      	b.n	8003440 <HAL_RCC_ClockConfig+0x17c>
#endif /* RCC_CFGR_SWS_HSI48 */
    /* HSI is selected as System Clock Source */
    else
    {
      /* Check the HSI ready flag */  
      if(__HAL_RCC_GET_FLAG(RCC_FLAG_HSIRDY) == RESET)
 800337a:	4b34      	ldr	r3, [pc, #208]	@ (800344c <HAL_RCC_ClockConfig+0x188>)
 800337c:	681b      	ldr	r3, [r3, #0]
 800337e:	2202      	movs	r2, #2
 8003380:	4013      	ands	r3, r2
 8003382:	d101      	bne.n	8003388 <HAL_RCC_ClockConfig+0xc4>
      {
        return HAL_ERROR;
 8003384:	2301      	movs	r3, #1
 8003386:	e05b      	b.n	8003440 <HAL_RCC_ClockConfig+0x17c>
      }
    }
    __HAL_RCC_SYSCLK_CONFIG(RCC_ClkInitStruct->SYSCLKSource);
 8003388:	4b30      	ldr	r3, [pc, #192]	@ (800344c <HAL_RCC_ClockConfig+0x188>)
 800338a:	685b      	ldr	r3, [r3, #4]
 800338c:	2203      	movs	r2, #3
 800338e:	4393      	bics	r3, r2
 8003390:	0019      	movs	r1, r3
 8003392:	687b      	ldr	r3, [r7, #4]
 8003394:	685a      	ldr	r2, [r3, #4]
 8003396:	4b2d      	ldr	r3, [pc, #180]	@ (800344c <HAL_RCC_ClockConfig+0x188>)
 8003398:	430a      	orrs	r2, r1
 800339a:	605a      	str	r2, [r3, #4]

    /* Get Start Tick */
    tickstart = HAL_GetTick();
 800339c:	f7fe fb60 	bl	8001a60 <HAL_GetTick>
 80033a0:	0003      	movs	r3, r0
 80033a2:	60fb      	str	r3, [r7, #12]
    
    while (__HAL_RCC_GET_SYSCLK_SOURCE() != (RCC_ClkInitStruct->SYSCLKSource << RCC_CFGR_SWS_Pos))
 80033a4:	e009      	b.n	80033ba <HAL_RCC_ClockConfig+0xf6>
    {
      if((HAL_GetTick() - tickstart ) > CLOCKSWITCH_TIMEOUT_VALUE)
 80033a6:	f7fe fb5b 	bl	8001a60 <HAL_GetTick>
 80033aa:	0002      	movs	r2, r0
 80033ac:	68fb      	ldr	r3, [r7, #12]
 80033ae:	1ad3      	subs	r3, r2, r3
 80033b0:	4a27      	ldr	r2, [pc, #156]	@ (8003450 <HAL_RCC_ClockConfig+0x18c>)
 80033b2:	4293      	cmp	r3, r2
 80033b4:	d901      	bls.n	80033ba <HAL_RCC_ClockConfig+0xf6>
      {
        return HAL_TIMEOUT;
 80033b6:	2303      	movs	r3, #3
 80033b8:	e042      	b.n	8003440 <HAL_RCC_ClockConfig+0x17c>
    while (__HAL_RCC_GET_SYSCLK_SOURCE() != (RCC_ClkInitStruct->SYSCLKSource << RCC_CFGR_SWS_Pos))
 80033ba:	4b24      	ldr	r3, [pc, #144]	@ (800344c <HAL_RCC_ClockConfig+0x188>)
 80033bc:	685b      	ldr	r3, [r3, #4]
 80033be:	220c      	movs	r2, #12
 80033c0:	401a      	ands	r2, r3
 80033c2:	687b      	ldr	r3, [r7, #4]
 80033c4:	685b      	ldr	r3, [r3, #4]
 80033c6:	009b      	lsls	r3, r3, #2
 80033c8:	429a      	cmp	r2, r3
 80033ca:	d1ec      	bne.n	80033a6 <HAL_RCC_ClockConfig+0xe2>
      }
    }
  }

  /* Decreasing the number of wait states because of lower CPU frequency */
  if(FLatency < __HAL_FLASH_GET_LATENCY())
 80033cc:	4b1e      	ldr	r3, [pc, #120]	@ (8003448 <HAL_RCC_ClockConfig+0x184>)
 80033ce:	681b      	ldr	r3, [r3, #0]
 80033d0:	2201      	movs	r2, #1
 80033d2:	4013      	ands	r3, r2
 80033d4:	683a      	ldr	r2, [r7, #0]
 80033d6:	429a      	cmp	r2, r3
 80033d8:	d211      	bcs.n	80033fe <HAL_RCC_ClockConfig+0x13a>
  {    
    /* Program the new number of wait states to the LATENCY bits in the FLASH_ACR register */
    __HAL_FLASH_SET_LATENCY(FLatency);
 80033da:	4b1b      	ldr	r3, [pc, #108]	@ (8003448 <HAL_RCC_ClockConfig+0x184>)
 80033dc:	681b      	ldr	r3, [r3, #0]
 80033de:	2201      	movs	r2, #1
 80033e0:	4393      	bics	r3, r2
 80033e2:	0019      	movs	r1, r3
 80033e4:	4b18      	ldr	r3, [pc, #96]	@ (8003448 <HAL_RCC_ClockConfig+0x184>)
 80033e6:	683a      	ldr	r2, [r7, #0]
 80033e8:	430a      	orrs	r2, r1
 80033ea:	601a      	str	r2, [r3, #0]
    
    /* Check that the new number of wait states is taken into account to access the Flash
    memory by reading the FLASH_ACR register */
    if(__HAL_FLASH_GET_LATENCY() != FLatency)
 80033ec:	4b16      	ldr	r3, [pc, #88]	@ (8003448 <HAL_RCC_ClockConfig+0x184>)
 80033ee:	681b      	ldr	r3, [r3, #0]
 80033f0:	2201      	movs	r2, #1
 80033f2:	4013      	ands	r3, r2
 80033f4:	683a      	ldr	r2, [r7, #0]
 80033f6:	429a      	cmp	r2, r3
 80033f8:	d001      	beq.n	80033fe <HAL_RCC_ClockConfig+0x13a>
    {
      return HAL_ERROR;
 80033fa:	2301      	movs	r3, #1
 80033fc:	e020      	b.n	8003440 <HAL_RCC_ClockConfig+0x17c>
    }
  }    

  /*-------------------------- PCLK1 Configuration ---------------------------*/ 
  if(((RCC_ClkInitStruct->ClockType) & RCC_CLOCKTYPE_PCLK1) == RCC_CLOCKTYPE_PCLK1)
 80033fe:	687b      	ldr	r3, [r7, #4]
 8003400:	681b      	ldr	r3, [r3, #0]
 8003402:	2204      	movs	r2, #4
 8003404:	4013      	ands	r3, r2
 8003406:	d009      	beq.n	800341c <HAL_RCC_ClockConfig+0x158>
  {
    assert_param(IS_RCC_PCLK(RCC_ClkInitStruct->APB1CLKDivider));
    MODIFY_REG(RCC->CFGR, RCC_CFGR_PPRE, RCC_ClkInitStruct->APB1CLKDivider);
 8003408:	4b10      	ldr	r3, [pc, #64]	@ (800344c <HAL_RCC_ClockConfig+0x188>)
 800340a:	685b      	ldr	r3, [r3, #4]
 800340c:	4a11      	ldr	r2, [pc, #68]	@ (8003454 <HAL_RCC_ClockConfig+0x190>)
 800340e:	4013      	ands	r3, r2
 8003410:	0019      	movs	r1, r3
 8003412:	687b      	ldr	r3, [r7, #4]
 8003414:	68da      	ldr	r2, [r3, #12]
 8003416:	4b0d      	ldr	r3, [pc, #52]	@ (800344c <HAL_RCC_ClockConfig+0x188>)
 8003418:	430a      	orrs	r2, r1
 800341a:	605a      	str	r2, [r3, #4]
  }
  
  /* Update the SystemCoreClock global variable */
  SystemCoreClock = HAL_RCC_GetSysClockFreq() >> AHBPrescTable[(RCC->CFGR & RCC_CFGR_HPRE)>> RCC_CFGR_HPRE_BITNUMBER];
 800341c:	f000 f820 	bl	8003460 <HAL_RCC_GetSysClockFreq>
 8003420:	0001      	movs	r1, r0
 8003422:	4b0a      	ldr	r3, [pc, #40]	@ (800344c <HAL_RCC_ClockConfig+0x188>)
 8003424:	685b      	ldr	r3, [r3, #4]
 8003426:	091b      	lsrs	r3, r3, #4
 8003428:	220f      	movs	r2, #15
 800342a:	4013      	ands	r3, r2
 800342c:	4a0a      	ldr	r2, [pc, #40]	@ (8003458 <HAL_RCC_ClockConfig+0x194>)
 800342e:	5cd3      	ldrb	r3, [r2, r3]
 8003430:	000a      	movs	r2, r1
 8003432:	40da      	lsrs	r2, r3
 8003434:	4b09      	ldr	r3, [pc, #36]	@ (800345c <HAL_RCC_ClockConfig+0x198>)
 8003436:	601a      	str	r2, [r3, #0]

  /* Configure the source of time base considering new system clocks settings*/
  HAL_InitTick (TICK_INT_PRIORITY);
 8003438:	2000      	movs	r0, #0
 800343a:	f7fe facb 	bl	80019d4 <HAL_InitTick>
  
  return HAL_OK;
 800343e:	2300      	movs	r3, #0
}
 8003440:	0018      	movs	r0, r3
 8003442:	46bd      	mov	sp, r7
 8003444:	b004      	add	sp, #16
 8003446:	bd80      	pop	{r7, pc}
 8003448:	40022000 	.word	0x40022000
 800344c:	40021000 	.word	0x40021000
 8003450:	00001388 	.word	0x00001388
 8003454:	fffff8ff 	.word	0xfffff8ff
 8003458:	080044e8 	.word	0x080044e8
 800345c:	20000000 	.word	0x20000000

08003460 <HAL_RCC_GetSysClockFreq>:
  *         right SYSCLK value. Otherwise, any configuration based on this function will be incorrect.
  *         
  * @retval SYSCLK frequency
  */
uint32_t HAL_RCC_GetSysClockFreq(void)
{
 8003460:	b580      	push	{r7, lr}
 8003462:	b086      	sub	sp, #24
 8003464:	af00      	add	r7, sp, #0
  static const uint8_t aPLLMULFactorTable[16U] = { 2U,  3U,  4U,  5U,  6U,  7U,  8U,  9U,
                                                   10U, 11U, 12U, 13U, 14U, 15U, 16U, 16U};
  static const uint8_t aPredivFactorTable[16U] = { 1U, 2U,  3U,  4U,  5U,  6U,  7U,  8U,
                                                   9U,10U, 11U, 12U, 13U, 14U, 15U, 16U};

  uint32_t tmpreg = 0U, prediv = 0U, pllclk = 0U, pllmul = 0U;
 8003466:	2300      	movs	r3, #0
 8003468:	60fb      	str	r3, [r7, #12]
 800346a:	2300      	movs	r3, #0
 800346c:	60bb      	str	r3, [r7, #8]
 800346e:	2300      	movs	r3, #0
 8003470:	617b      	str	r3, [r7, #20]
 8003472:	2300      	movs	r3, #0
 8003474:	607b      	str	r3, [r7, #4]
  uint32_t sysclockfreq = 0U;
 8003476:	2300      	movs	r3, #0
 8003478:	613b      	str	r3, [r7, #16]
  
  tmpreg = RCC->CFGR;
 800347a:	4b20      	ldr	r3, [pc, #128]	@ (80034fc <HAL_RCC_GetSysClockFreq+0x9c>)
 800347c:	685b      	ldr	r3, [r3, #4]
 800347e:	60fb      	str	r3, [r7, #12]
  
  /* Get SYSCLK source -------------------------------------------------------*/
  switch (tmpreg & RCC_CFGR_SWS)
 8003480:	68fb      	ldr	r3, [r7, #12]
 8003482:	220c      	movs	r2, #12
 8003484:	4013      	ands	r3, r2
 8003486:	2b04      	cmp	r3, #4
 8003488:	d002      	beq.n	8003490 <HAL_RCC_GetSysClockFreq+0x30>
 800348a:	2b08      	cmp	r3, #8
 800348c:	d003      	beq.n	8003496 <HAL_RCC_GetSysClockFreq+0x36>
 800348e:	e02c      	b.n	80034ea <HAL_RCC_GetSysClockFreq+0x8a>
  {
    case RCC_SYSCLKSOURCE_STATUS_HSE:  /* HSE used as system clock */
    {
      sysclockfreq = HSE_VALUE;
 8003490:	4b1b      	ldr	r3, [pc, #108]	@ (8003500 <HAL_RCC_GetSysClockFreq+0xa0>)
 8003492:	613b      	str	r3, [r7, #16]
      break;
 8003494:	e02c      	b.n	80034f0 <HAL_RCC_GetSysClockFreq+0x90>
    }
    case RCC_SYSCLKSOURCE_STATUS_PLLCLK:  /* PLL used as system clock */
    {
      pllmul = aPLLMULFactorTable[(uint32_t)(tmpreg & RCC_CFGR_PLLMUL) >> RCC_CFGR_PLLMUL_BITNUMBER];
 8003496:	68fb      	ldr	r3, [r7, #12]
 8003498:	0c9b      	lsrs	r3, r3, #18
 800349a:	220f      	movs	r2, #15
 800349c:	4013      	ands	r3, r2
 800349e:	4a19      	ldr	r2, [pc, #100]	@ (8003504 <HAL_RCC_GetSysClockFreq+0xa4>)
 80034a0:	5cd3      	ldrb	r3, [r2, r3]
 80034a2:	607b      	str	r3, [r7, #4]
      prediv = aPredivFactorTable[(uint32_t)(RCC->CFGR2 & RCC_CFGR2_PREDIV) >> RCC_CFGR2_PREDIV_BITNUMBER];
 80034a4:	4b15      	ldr	r3, [pc, #84]	@ (80034fc <HAL_RCC_GetSysClockFreq+0x9c>)
 80034a6:	6adb      	ldr	r3, [r3, #44]	@ 0x2c
 80034a8:	220f      	movs	r2, #15
 80034aa:	4013      	ands	r3, r2
 80034ac:	4a16      	ldr	r2, [pc, #88]	@ (8003508 <HAL_RCC_GetSysClockFreq+0xa8>)
 80034ae:	5cd3      	ldrb	r3, [r2, r3]
 80034b0:	60bb      	str	r3, [r7, #8]
      if ((tmpreg & RCC_CFGR_PLLSRC) == RCC_PLLSOURCE_HSE)
 80034b2:	68fa      	ldr	r2, [r7, #12]
 80034b4:	2380      	movs	r3, #128	@ 0x80
 80034b6:	025b      	lsls	r3, r3, #9
 80034b8:	4013      	ands	r3, r2
 80034ba:	d009      	beq.n	80034d0 <HAL_RCC_GetSysClockFreq+0x70>
      {
        /* HSE used as PLL clock source : PLLCLK = HSE/PREDIV * PLLMUL */
        pllclk = (uint32_t)((uint64_t) HSE_VALUE / (uint64_t) (prediv)) * ((uint64_t) pllmul);
 80034bc:	68b9      	ldr	r1, [r7, #8]
 80034be:	4810      	ldr	r0, [pc, #64]	@ (8003500 <HAL_RCC_GetSysClockFreq+0xa0>)
 80034c0:	f7fc fe22 	bl	8000108 <__udivsi3>
 80034c4:	0003      	movs	r3, r0
 80034c6:	001a      	movs	r2, r3
 80034c8:	687b      	ldr	r3, [r7, #4]
 80034ca:	4353      	muls	r3, r2
 80034cc:	617b      	str	r3, [r7, #20]
 80034ce:	e009      	b.n	80034e4 <HAL_RCC_GetSysClockFreq+0x84>
#if  (defined(STM32F042x6) || defined(STM32F048xx) || defined(STM32F070x6) || defined(STM32F071xB) || defined(STM32F072xB) || defined(STM32F078xx) || defined(STM32F070xB) || defined(STM32F091xC) || defined(STM32F098xx) || defined(STM32F030xC))
        /* HSI used as PLL clock source : PLLCLK = HSI/PREDIV * PLLMUL */
        pllclk = (uint32_t)((uint64_t) HSI_VALUE / (uint64_t) (prediv)) * ((uint64_t) pllmul);
#else
        /* HSI used as PLL clock source : PLLCLK = HSI/2 * PLLMUL */
        pllclk = (uint32_t)((uint64_t) (HSI_VALUE >> 1U) * ((uint64_t) pllmul));
 80034d0:	6879      	ldr	r1, [r7, #4]
 80034d2:	000a      	movs	r2, r1
 80034d4:	0152      	lsls	r2, r2, #5
 80034d6:	1a52      	subs	r2, r2, r1
 80034d8:	0193      	lsls	r3, r2, #6
 80034da:	1a9b      	subs	r3, r3, r2
 80034dc:	00db      	lsls	r3, r3, #3
 80034de:	185b      	adds	r3, r3, r1
 80034e0:	021b      	lsls	r3, r3, #8
 80034e2:	617b      	str	r3, [r7, #20]
#endif
      }
      sysclockfreq = pllclk;
 80034e4:	697b      	ldr	r3, [r7, #20]
 80034e6:	613b      	str	r3, [r7, #16]
      break;
 80034e8:	e002      	b.n	80034f0 <HAL_RCC_GetSysClockFreq+0x90>
    }
#endif /* RCC_CFGR_SWS_HSI48 */
    case RCC_SYSCLKSOURCE_STATUS_HSI:  /* HSI used as system clock source */
    default: /* HSI used as system clock */
    {
      sysclockfreq = HSI_VALUE;
 80034ea:	4b05      	ldr	r3, [pc, #20]	@ (8003500 <HAL_RCC_GetSysClockFreq+0xa0>)
 80034ec:	613b      	str	r3, [r7, #16]
      break;
 80034ee:	46c0      	nop			@ (mov r8, r8)
    }
  }
  return sysclockfreq;
 80034f0:	693b      	ldr	r3, [r7, #16]
}
 80034f2:	0018      	movs	r0, r3
 80034f4:	46bd      	mov	sp, r7
 80034f6:	b006      	add	sp, #24
 80034f8:	bd80      	pop	{r7, pc}
 80034fa:	46c0      	nop			@ (mov r8, r8)
 80034fc:	40021000 	.word	0x40021000
 8003500:	007a1200 	.word	0x007a1200
 8003504:	080044f8 	.word	0x080044f8
 8003508:	08004508 	.word	0x08004508

0800350c <HAL_RCCEx_PeriphCLKConfig>:
  *         the backup registers) and RCC_BDCR register are set to their reset values.
  *
  * @retval HAL status
  */
HAL_StatusTypeDef HAL_RCCEx_PeriphCLKConfig(RCC_PeriphCLKInitTypeDef  *PeriphClkInit)
{
 800350c:	b580      	push	{r7, lr}
 800350e:	b086      	sub	sp, #24
 8003510:	af00      	add	r7, sp, #0
 8003512:	6078      	str	r0, [r7, #4]
  uint32_t tickstart = 0U;
 8003514:	2300      	movs	r3, #0
 8003516:	613b      	str	r3, [r7, #16]
  uint32_t temp_reg = 0U;
 8003518:	2300      	movs	r3, #0
 800351a:	60fb      	str	r3, [r7, #12]

  /* Check the parameters */
  assert_param(IS_RCC_PERIPHCLOCK(PeriphClkInit->PeriphClockSelection));
  
  /*---------------------------- RTC configuration -------------------------------*/
  if(((PeriphClkInit->PeriphClockSelection) & RCC_PERIPHCLK_RTC) == (RCC_PERIPHCLK_RTC))
 800351c:	687b      	ldr	r3, [r7, #4]
 800351e:	681a      	ldr	r2, [r3, #0]
 8003520:	2380      	movs	r3, #128	@ 0x80
 8003522:	025b      	lsls	r3, r3, #9
 8003524:	4013      	ands	r3, r2
 8003526:	d100      	bne.n	800352a <HAL_RCCEx_PeriphCLKConfig+0x1e>
 8003528:	e08e      	b.n	8003648 <HAL_RCCEx_PeriphCLKConfig+0x13c>
  {
    /* check for RTC Parameters used to output RTCCLK */
    assert_param(IS_RCC_RTCCLKSOURCE(PeriphClkInit->RTCClockSelection));
    
    FlagStatus       pwrclkchanged = RESET;
 800352a:	2017      	movs	r0, #23
 800352c:	183b      	adds	r3, r7, r0
 800352e:	2200      	movs	r2, #0
 8003530:	701a      	strb	r2, [r3, #0]

    /* As soon as function is called to change RTC clock source, activation of the 
       power domain is done. */
    /* Requires to enable write access to Backup Domain of necessary */
    if(__HAL_RCC_PWR_IS_CLK_DISABLED())
 8003532:	4b5f      	ldr	r3, [pc, #380]	@ (80036b0 <HAL_RCCEx_PeriphCLKConfig+0x1a4>)
 8003534:	69da      	ldr	r2, [r3, #28]
 8003536:	2380      	movs	r3, #128	@ 0x80
 8003538:	055b      	lsls	r3, r3, #21
 800353a:	4013      	ands	r3, r2
 800353c:	d110      	bne.n	8003560 <HAL_RCCEx_PeriphCLKConfig+0x54>
    {
    __HAL_RCC_PWR_CLK_ENABLE();
 800353e:	4b5c      	ldr	r3, [pc, #368]	@ (80036b0 <HAL_RCCEx_PeriphCLKConfig+0x1a4>)
 8003540:	69da      	ldr	r2, [r3, #28]
 8003542:	4b5b      	ldr	r3, [pc, #364]	@ (80036b0 <HAL_RCCEx_PeriphCLKConfig+0x1a4>)
 8003544:	2180      	movs	r1, #128	@ 0x80
 8003546:	0549      	lsls	r1, r1, #21
 8003548:	430a      	orrs	r2, r1
 800354a:	61da      	str	r2, [r3, #28]
 800354c:	4b58      	ldr	r3, [pc, #352]	@ (80036b0 <HAL_RCCEx_PeriphCLKConfig+0x1a4>)
 800354e:	69da      	ldr	r2, [r3, #28]
 8003550:	2380      	movs	r3, #128	@ 0x80
 8003552:	055b      	lsls	r3, r3, #21
 8003554:	4013      	ands	r3, r2
 8003556:	60bb      	str	r3, [r7, #8]
 8003558:	68bb      	ldr	r3, [r7, #8]
      pwrclkchanged = SET;
 800355a:	183b      	adds	r3, r7, r0
 800355c:	2201      	movs	r2, #1
 800355e:	701a      	strb	r2, [r3, #0]
    }
    
    if(HAL_IS_BIT_CLR(PWR->CR, PWR_CR_DBP))
 8003560:	4b54      	ldr	r3, [pc, #336]	@ (80036b4 <HAL_RCCEx_PeriphCLKConfig+0x1a8>)
 8003562:	681a      	ldr	r2, [r3, #0]
 8003564:	2380      	movs	r3, #128	@ 0x80
 8003566:	005b      	lsls	r3, r3, #1
 8003568:	4013      	ands	r3, r2
 800356a:	d11a      	bne.n	80035a2 <HAL_RCCEx_PeriphCLKConfig+0x96>
    {
      /* Enable write access to Backup domain */
      SET_BIT(PWR->CR, PWR_CR_DBP);
 800356c:	4b51      	ldr	r3, [pc, #324]	@ (80036b4 <HAL_RCCEx_PeriphCLKConfig+0x1a8>)
 800356e:	681a      	ldr	r2, [r3, #0]
 8003570:	4b50      	ldr	r3, [pc, #320]	@ (80036b4 <HAL_RCCEx_PeriphCLKConfig+0x1a8>)
 8003572:	2180      	movs	r1, #128	@ 0x80
 8003574:	0049      	lsls	r1, r1, #1
 8003576:	430a      	orrs	r2, r1
 8003578:	601a      	str	r2, [r3, #0]
      
      /* Wait for Backup domain Write protection disable */
      tickstart = HAL_GetTick();
 800357a:	f7fe fa71 	bl	8001a60 <HAL_GetTick>
 800357e:	0003      	movs	r3, r0
 8003580:	613b      	str	r3, [r7, #16]
      
      while(HAL_IS_BIT_CLR(PWR->CR, PWR_CR_DBP))
 8003582:	e008      	b.n	8003596 <HAL_RCCEx_PeriphCLKConfig+0x8a>
      {
        if((HAL_GetTick() - tickstart) > RCC_DBP_TIMEOUT_VALUE)
 8003584:	f7fe fa6c 	bl	8001a60 <HAL_GetTick>
 8003588:	0002      	movs	r2, r0
 800358a:	693b      	ldr	r3, [r7, #16]
 800358c:	1ad3      	subs	r3, r2, r3
 800358e:	2b64      	cmp	r3, #100	@ 0x64
 8003590:	d901      	bls.n	8003596 <HAL_RCCEx_PeriphCLKConfig+0x8a>
        {
          return HAL_TIMEOUT;
 8003592:	2303      	movs	r3, #3
 8003594:	e087      	b.n	80036a6 <HAL_RCCEx_PeriphCLKConfig+0x19a>
      while(HAL_IS_BIT_CLR(PWR->CR, PWR_CR_DBP))
 8003596:	4b47      	ldr	r3, [pc, #284]	@ (80036b4 <HAL_RCCEx_PeriphCLKConfig+0x1a8>)
 8003598:	681a      	ldr	r2, [r3, #0]
 800359a:	2380      	movs	r3, #128	@ 0x80
 800359c:	005b      	lsls	r3, r3, #1
 800359e:	4013      	ands	r3, r2
 80035a0:	d0f0      	beq.n	8003584 <HAL_RCCEx_PeriphCLKConfig+0x78>
        }
      }
    }
    
    /* Reset the Backup domain only if the RTC Clock source selection is modified from reset value */ 
    temp_reg = (RCC->BDCR & RCC_BDCR_RTCSEL);
 80035a2:	4b43      	ldr	r3, [pc, #268]	@ (80036b0 <HAL_RCCEx_PeriphCLKConfig+0x1a4>)
 80035a4:	6a1a      	ldr	r2, [r3, #32]
 80035a6:	23c0      	movs	r3, #192	@ 0xc0
 80035a8:	009b      	lsls	r3, r3, #2
 80035aa:	4013      	ands	r3, r2
 80035ac:	60fb      	str	r3, [r7, #12]
    if((temp_reg != 0x00000000U) && (temp_reg != (PeriphClkInit->RTCClockSelection & RCC_BDCR_RTCSEL)))
 80035ae:	68fb      	ldr	r3, [r7, #12]
 80035b0:	2b00      	cmp	r3, #0
 80035b2:	d034      	beq.n	800361e <HAL_RCCEx_PeriphCLKConfig+0x112>
 80035b4:	687b      	ldr	r3, [r7, #4]
 80035b6:	685a      	ldr	r2, [r3, #4]
 80035b8:	23c0      	movs	r3, #192	@ 0xc0
 80035ba:	009b      	lsls	r3, r3, #2
 80035bc:	4013      	ands	r3, r2
 80035be:	68fa      	ldr	r2, [r7, #12]
 80035c0:	429a      	cmp	r2, r3
 80035c2:	d02c      	beq.n	800361e <HAL_RCCEx_PeriphCLKConfig+0x112>
    {
      /* Store the content of BDCR register before the reset of Backup Domain */
      temp_reg = (RCC->BDCR & ~(RCC_BDCR_RTCSEL));
 80035c4:	4b3a      	ldr	r3, [pc, #232]	@ (80036b0 <HAL_RCCEx_PeriphCLKConfig+0x1a4>)
 80035c6:	6a1b      	ldr	r3, [r3, #32]
 80035c8:	4a3b      	ldr	r2, [pc, #236]	@ (80036b8 <HAL_RCCEx_PeriphCLKConfig+0x1ac>)
 80035ca:	4013      	ands	r3, r2
 80035cc:	60fb      	str	r3, [r7, #12]
      /* RTC Clock selection can be changed only if the Backup Domain is reset */
      __HAL_RCC_BACKUPRESET_FORCE();
 80035ce:	4b38      	ldr	r3, [pc, #224]	@ (80036b0 <HAL_RCCEx_PeriphCLKConfig+0x1a4>)
 80035d0:	6a1a      	ldr	r2, [r3, #32]
 80035d2:	4b37      	ldr	r3, [pc, #220]	@ (80036b0 <HAL_RCCEx_PeriphCLKConfig+0x1a4>)
 80035d4:	2180      	movs	r1, #128	@ 0x80
 80035d6:	0249      	lsls	r1, r1, #9
 80035d8:	430a      	orrs	r2, r1
 80035da:	621a      	str	r2, [r3, #32]
      __HAL_RCC_BACKUPRESET_RELEASE();
 80035dc:	4b34      	ldr	r3, [pc, #208]	@ (80036b0 <HAL_RCCEx_PeriphCLKConfig+0x1a4>)
 80035de:	6a1a      	ldr	r2, [r3, #32]
 80035e0:	4b33      	ldr	r3, [pc, #204]	@ (80036b0 <HAL_RCCEx_PeriphCLKConfig+0x1a4>)
 80035e2:	4936      	ldr	r1, [pc, #216]	@ (80036bc <HAL_RCCEx_PeriphCLKConfig+0x1b0>)
 80035e4:	400a      	ands	r2, r1
 80035e6:	621a      	str	r2, [r3, #32]
      /* Restore the Content of BDCR register */
      RCC->BDCR = temp_reg;
 80035e8:	4b31      	ldr	r3, [pc, #196]	@ (80036b0 <HAL_RCCEx_PeriphCLKConfig+0x1a4>)
 80035ea:	68fa      	ldr	r2, [r7, #12]
 80035ec:	621a      	str	r2, [r3, #32]
      
      /* Wait for LSERDY if LSE was enabled */
      if (HAL_IS_BIT_SET(temp_reg, RCC_BDCR_LSEON))
 80035ee:	68fb      	ldr	r3, [r7, #12]
 80035f0:	2201      	movs	r2, #1
 80035f2:	4013      	ands	r3, r2
 80035f4:	d013      	beq.n	800361e <HAL_RCCEx_PeriphCLKConfig+0x112>
      {
        /* Get Start Tick */
        tickstart = HAL_GetTick();
 80035f6:	f7fe fa33 	bl	8001a60 <HAL_GetTick>
 80035fa:	0003      	movs	r3, r0
 80035fc:	613b      	str	r3, [r7, #16]
        
        /* Wait till LSE is ready */  
        while(__HAL_RCC_GET_FLAG(RCC_FLAG_LSERDY) == RESET)
 80035fe:	e009      	b.n	8003614 <HAL_RCCEx_PeriphCLKConfig+0x108>
        {
          if((HAL_GetTick() - tickstart) > RCC_LSE_TIMEOUT_VALUE)
 8003600:	f7fe fa2e 	bl	8001a60 <HAL_GetTick>
 8003604:	0002      	movs	r2, r0
 8003606:	693b      	ldr	r3, [r7, #16]
 8003608:	1ad3      	subs	r3, r2, r3
 800360a:	4a2d      	ldr	r2, [pc, #180]	@ (80036c0 <HAL_RCCEx_PeriphCLKConfig+0x1b4>)
 800360c:	4293      	cmp	r3, r2
 800360e:	d901      	bls.n	8003614 <HAL_RCCEx_PeriphCLKConfig+0x108>
          {
            return HAL_TIMEOUT;
 8003610:	2303      	movs	r3, #3
 8003612:	e048      	b.n	80036a6 <HAL_RCCEx_PeriphCLKConfig+0x19a>
        while(__HAL_RCC_GET_FLAG(RCC_FLAG_LSERDY) == RESET)
 8003614:	4b26      	ldr	r3, [pc, #152]	@ (80036b0 <HAL_RCCEx_PeriphCLKConfig+0x1a4>)
 8003616:	6a1b      	ldr	r3, [r3, #32]
 8003618:	2202      	movs	r2, #2
 800361a:	4013      	ands	r3, r2
 800361c:	d0f0      	beq.n	8003600 <HAL_RCCEx_PeriphCLKConfig+0xf4>
          }
        }
      }
    }
    __HAL_RCC_RTC_CONFIG(PeriphClkInit->RTCClockSelection);
 800361e:	4b24      	ldr	r3, [pc, #144]	@ (80036b0 <HAL_RCCEx_PeriphCLKConfig+0x1a4>)
 8003620:	6a1b      	ldr	r3, [r3, #32]
 8003622:	4a25      	ldr	r2, [pc, #148]	@ (80036b8 <HAL_RCCEx_PeriphCLKConfig+0x1ac>)
 8003624:	4013      	ands	r3, r2
 8003626:	0019      	movs	r1, r3
 8003628:	687b      	ldr	r3, [r7, #4]
 800362a:	685a      	ldr	r2, [r3, #4]
 800362c:	4b20      	ldr	r3, [pc, #128]	@ (80036b0 <HAL_RCCEx_PeriphCLKConfig+0x1a4>)
 800362e:	430a      	orrs	r2, r1
 8003630:	621a      	str	r2, [r3, #32]

    /* Require to disable power clock if necessary */
    if(pwrclkchanged == SET)
 8003632:	2317      	movs	r3, #23
 8003634:	18fb      	adds	r3, r7, r3
 8003636:	781b      	ldrb	r3, [r3, #0]
 8003638:	2b01      	cmp	r3, #1
 800363a:	d105      	bne.n	8003648 <HAL_RCCEx_PeriphCLKConfig+0x13c>
    {
      __HAL_RCC_PWR_CLK_DISABLE();
 800363c:	4b1c      	ldr	r3, [pc, #112]	@ (80036b0 <HAL_RCCEx_PeriphCLKConfig+0x1a4>)
 800363e:	69da      	ldr	r2, [r3, #28]
 8003640:	4b1b      	ldr	r3, [pc, #108]	@ (80036b0 <HAL_RCCEx_PeriphCLKConfig+0x1a4>)
 8003642:	4920      	ldr	r1, [pc, #128]	@ (80036c4 <HAL_RCCEx_PeriphCLKConfig+0x1b8>)
 8003644:	400a      	ands	r2, r1
 8003646:	61da      	str	r2, [r3, #28]
    }
  }

  /*------------------------------- USART1 Configuration ------------------------*/ 
  if(((PeriphClkInit->PeriphClockSelection) & RCC_PERIPHCLK_USART1) == RCC_PERIPHCLK_USART1)
 8003648:	687b      	ldr	r3, [r7, #4]
 800364a:	681b      	ldr	r3, [r3, #0]
 800364c:	2201      	movs	r2, #1
 800364e:	4013      	ands	r3, r2
 8003650:	d009      	beq.n	8003666 <HAL_RCCEx_PeriphCLKConfig+0x15a>
  {
    /* Check the parameters */
    assert_param(IS_RCC_USART1CLKSOURCE(PeriphClkInit->Usart1ClockSelection));
    
    /* Configure the USART1 clock source */
    __HAL_RCC_USART1_CONFIG(PeriphClkInit->Usart1ClockSelection);
 8003652:	4b17      	ldr	r3, [pc, #92]	@ (80036b0 <HAL_RCCEx_PeriphCLKConfig+0x1a4>)
 8003654:	6b1b      	ldr	r3, [r3, #48]	@ 0x30
 8003656:	2203      	movs	r2, #3
 8003658:	4393      	bics	r3, r2
 800365a:	0019      	movs	r1, r3
 800365c:	687b      	ldr	r3, [r7, #4]
 800365e:	689a      	ldr	r2, [r3, #8]
 8003660:	4b13      	ldr	r3, [pc, #76]	@ (80036b0 <HAL_RCCEx_PeriphCLKConfig+0x1a4>)
 8003662:	430a      	orrs	r2, r1
 8003664:	631a      	str	r2, [r3, #48]	@ 0x30
    __HAL_RCC_USART3_CONFIG(PeriphClkInit->Usart3ClockSelection);
  }
#endif /* STM32F091xC || STM32F098xx */  

  /*------------------------------ I2C1 Configuration ------------------------*/ 
  if(((PeriphClkInit->PeriphClockSelection) & RCC_PERIPHCLK_I2C1) == RCC_PERIPHCLK_I2C1)
 8003666:	687b      	ldr	r3, [r7, #4]
 8003668:	681b      	ldr	r3, [r3, #0]
 800366a:	2220      	movs	r2, #32
 800366c:	4013      	ands	r3, r2
 800366e:	d009      	beq.n	8003684 <HAL_RCCEx_PeriphCLKConfig+0x178>
  {
    /* Check the parameters */
    assert_param(IS_RCC_I2C1CLKSOURCE(PeriphClkInit->I2c1ClockSelection));
    
    /* Configure the I2C1 clock source */
    __HAL_RCC_I2C1_CONFIG(PeriphClkInit->I2c1ClockSelection);
 8003670:	4b0f      	ldr	r3, [pc, #60]	@ (80036b0 <HAL_RCCEx_PeriphCLKConfig+0x1a4>)
 8003672:	6b1b      	ldr	r3, [r3, #48]	@ 0x30
 8003674:	2210      	movs	r2, #16
 8003676:	4393      	bics	r3, r2
 8003678:	0019      	movs	r1, r3
 800367a:	687b      	ldr	r3, [r7, #4]
 800367c:	68da      	ldr	r2, [r3, #12]
 800367e:	4b0c      	ldr	r3, [pc, #48]	@ (80036b0 <HAL_RCCEx_PeriphCLKConfig+0x1a4>)
 8003680:	430a      	orrs	r2, r1
 8003682:	631a      	str	r2, [r3, #48]	@ 0x30
#if defined(STM32F042x6) || defined(STM32F048xx)\
 || defined(STM32F051x8) || defined(STM32F058xx)\
 || defined(STM32F071xB) || defined(STM32F072xB) || defined(STM32F078xx)\
 || defined(STM32F091xC) || defined(STM32F098xx)
  /*------------------------------ CEC clock Configuration -------------------*/ 
  if(((PeriphClkInit->PeriphClockSelection) & RCC_PERIPHCLK_CEC) == RCC_PERIPHCLK_CEC)
 8003684:	687b      	ldr	r3, [r7, #4]
 8003686:	681a      	ldr	r2, [r3, #0]
 8003688:	2380      	movs	r3, #128	@ 0x80
 800368a:	00db      	lsls	r3, r3, #3
 800368c:	4013      	ands	r3, r2
 800368e:	d009      	beq.n	80036a4 <HAL_RCCEx_PeriphCLKConfig+0x198>
  {
    /* Check the parameters */
    assert_param(IS_RCC_CECCLKSOURCE(PeriphClkInit->CecClockSelection));
    
    /* Configure the CEC clock source */
    __HAL_RCC_CEC_CONFIG(PeriphClkInit->CecClockSelection);
 8003690:	4b07      	ldr	r3, [pc, #28]	@ (80036b0 <HAL_RCCEx_PeriphCLKConfig+0x1a4>)
 8003692:	6b1b      	ldr	r3, [r3, #48]	@ 0x30
 8003694:	2240      	movs	r2, #64	@ 0x40
 8003696:	4393      	bics	r3, r2
 8003698:	0019      	movs	r1, r3
 800369a:	687b      	ldr	r3, [r7, #4]
 800369c:	691a      	ldr	r2, [r3, #16]
 800369e:	4b04      	ldr	r3, [pc, #16]	@ (80036b0 <HAL_RCCEx_PeriphCLKConfig+0x1a4>)
 80036a0:	430a      	orrs	r2, r1
 80036a2:	631a      	str	r2, [r3, #48]	@ 0x30
#endif /* STM32F042x6 || STM32F048xx ||                */
       /* STM32F051x8 || STM32F058xx ||                */
       /* STM32F071xB || STM32F072xB || STM32F078xx || */
       /* STM32F091xC || STM32F098xx */
  
  return HAL_OK;
 80036a4:	2300      	movs	r3, #0
}
 80036a6:	0018      	movs	r0, r3
 80036a8:	46bd      	mov	sp, r7
 80036aa:	b006      	add	sp, #24
 80036ac:	bd80      	pop	{r7, pc}
 80036ae:	46c0      	nop			@ (mov r8, r8)
 80036b0:	40021000 	.word	0x40021000
 80036b4:	40007000 	.word	0x40007000
 80036b8:	fffffcff 	.word	0xfffffcff
 80036bc:	fffeffff 	.word	0xfffeffff
 80036c0:	00001388 	.word	0x00001388
 80036c4:	efffffff 	.word	0xefffffff

080036c8 <HAL_TIM_Base_Init>:
  *         Ex: call @ref HAL_TIM_Base_DeInit() before HAL_TIM_Base_Init()
  * @param  htim TIM Base handle
  * @retval HAL status
  */
HAL_StatusTypeDef HAL_TIM_Base_Init(TIM_HandleTypeDef *htim)
{
 80036c8:	b580      	push	{r7, lr}
 80036ca:	b082      	sub	sp, #8
 80036cc:	af00      	add	r7, sp, #0
 80036ce:	6078      	str	r0, [r7, #4]
  /* Check the TIM handle allocation */
  if (htim == NULL)
 80036d0:	687b      	ldr	r3, [r7, #4]
 80036d2:	2b00      	cmp	r3, #0
 80036d4:	d101      	bne.n	80036da <HAL_TIM_Base_Init+0x12>
  {
    return HAL_ERROR;
 80036d6:	2301      	movs	r3, #1
 80036d8:	e042      	b.n	8003760 <HAL_TIM_Base_Init+0x98>
  assert_param(IS_TIM_COUNTER_MODE(htim->Init.CounterMode));
  assert_param(IS_TIM_CLOCKDIVISION_DIV(htim->Init.ClockDivision));
  assert_param(IS_TIM_PERIOD(htim, htim->Init.Period));
  assert_param(IS_TIM_AUTORELOAD_PRELOAD(htim->Init.AutoReloadPreload));

  if (htim->State == HAL_TIM_STATE_RESET)
 80036da:	687b      	ldr	r3, [r7, #4]
 80036dc:	223d      	movs	r2, #61	@ 0x3d
 80036de:	5c9b      	ldrb	r3, [r3, r2]
 80036e0:	b2db      	uxtb	r3, r3
 80036e2:	2b00      	cmp	r3, #0
 80036e4:	d107      	bne.n	80036f6 <HAL_TIM_Base_Init+0x2e>
  {
    /* Allocate lock resource and initialize it */
    htim->Lock = HAL_UNLOCKED;
 80036e6:	687b      	ldr	r3, [r7, #4]
 80036e8:	223c      	movs	r2, #60	@ 0x3c
 80036ea:	2100      	movs	r1, #0
 80036ec:	5499      	strb	r1, [r3, r2]
    }
    /* Init the low level hardware : GPIO, CLOCK, NVIC */
    htim->Base_MspInitCallback(htim);
#else
    /* Init the low level hardware : GPIO, CLOCK, NVIC */
    HAL_TIM_Base_MspInit(htim);
 80036ee:	687b      	ldr	r3, [r7, #4]
 80036f0:	0018      	movs	r0, r3
 80036f2:	f7fe f887 	bl	8001804 <HAL_TIM_Base_MspInit>
#endif /* USE_HAL_TIM_REGISTER_CALLBACKS */
  }

  /* Set the TIM state */
  htim->State = HAL_TIM_STATE_BUSY;
 80036f6:	687b      	ldr	r3, [r7, #4]
 80036f8:	223d      	movs	r2, #61	@ 0x3d
 80036fa:	2102      	movs	r1, #2
 80036fc:	5499      	strb	r1, [r3, r2]

  /* Set the Time Base configuration */
  TIM_Base_SetConfig(htim->Instance, &htim->Init);
 80036fe:	687b      	ldr	r3, [r7, #4]
 8003700:	681a      	ldr	r2, [r3, #0]
 8003702:	687b      	ldr	r3, [r7, #4]
 8003704:	3304      	adds	r3, #4
 8003706:	0019      	movs	r1, r3
 8003708:	0010      	movs	r0, r2
 800370a:	f000 fb5b 	bl	8003dc4 <TIM_Base_SetConfig>

  /* Initialize the DMA burst operation state */
  htim->DMABurstState = HAL_DMA_BURST_STATE_READY;
 800370e:	687b      	ldr	r3, [r7, #4]
 8003710:	2246      	movs	r2, #70	@ 0x46
 8003712:	2101      	movs	r1, #1
 8003714:	5499      	strb	r1, [r3, r2]

  /* Initialize the TIM channels state */
  TIM_CHANNEL_STATE_SET_ALL(htim, HAL_TIM_CHANNEL_STATE_READY);
 8003716:	687b      	ldr	r3, [r7, #4]
 8003718:	223e      	movs	r2, #62	@ 0x3e
 800371a:	2101      	movs	r1, #1
 800371c:	5499      	strb	r1, [r3, r2]
 800371e:	687b      	ldr	r3, [r7, #4]
 8003720:	223f      	movs	r2, #63	@ 0x3f
 8003722:	2101      	movs	r1, #1
 8003724:	5499      	strb	r1, [r3, r2]
 8003726:	687b      	ldr	r3, [r7, #4]
 8003728:	2240      	movs	r2, #64	@ 0x40
 800372a:	2101      	movs	r1, #1
 800372c:	5499      	strb	r1, [r3, r2]
 800372e:	687b      	ldr	r3, [r7, #4]
 8003730:	2241      	movs	r2, #65	@ 0x41
 8003732:	2101      	movs	r1, #1
 8003734:	5499      	strb	r1, [r3, r2]
  TIM_CHANNEL_N_STATE_SET_ALL(htim, HAL_TIM_CHANNEL_STATE_READY);
 8003736:	687b      	ldr	r3, [r7, #4]
 8003738:	2242      	movs	r2, #66	@ 0x42
 800373a:	2101      	movs	r1, #1
 800373c:	5499      	strb	r1, [r3, r2]
 800373e:	687b      	ldr	r3, [r7, #4]
 8003740:	2243      	movs	r2, #67	@ 0x43
 8003742:	2101      	movs	r1, #1
 8003744:	5499      	strb	r1, [r3, r2]
 8003746:	687b      	ldr	r3, [r7, #4]
 8003748:	2244      	movs	r2, #68	@ 0x44
 800374a:	2101      	movs	r1, #1
 800374c:	5499      	strb	r1, [r3, r2]
 800374e:	687b      	ldr	r3, [r7, #4]
 8003750:	2245      	movs	r2, #69	@ 0x45
 8003752:	2101      	movs	r1, #1
 8003754:	5499      	strb	r1, [r3, r2]

  /* Initialize the TIM state*/
  htim->State = HAL_TIM_STATE_READY;
 8003756:	687b      	ldr	r3, [r7, #4]
 8003758:	223d      	movs	r2, #61	@ 0x3d
 800375a:	2101      	movs	r1, #1
 800375c:	5499      	strb	r1, [r3, r2]

  return HAL_OK;
 800375e:	2300      	movs	r3, #0
}
 8003760:	0018      	movs	r0, r3
 8003762:	46bd      	mov	sp, r7
 8003764:	b002      	add	sp, #8
 8003766:	bd80      	pop	{r7, pc}

08003768 <HAL_TIM_Base_Start_IT>:
  * @brief  Starts the TIM Base generation in interrupt mode.
  * @param  htim TIM Base handle
  * @retval HAL status
  */
HAL_StatusTypeDef HAL_TIM_Base_Start_IT(TIM_HandleTypeDef *htim)
{
 8003768:	b580      	push	{r7, lr}
 800376a:	b084      	sub	sp, #16
 800376c:	af00      	add	r7, sp, #0
 800376e:	6078      	str	r0, [r7, #4]

  /* Check the parameters */
  assert_param(IS_TIM_INSTANCE(htim->Instance));

  /* Check the TIM state */
  if (htim->State != HAL_TIM_STATE_READY)
 8003770:	687b      	ldr	r3, [r7, #4]
 8003772:	223d      	movs	r2, #61	@ 0x3d
 8003774:	5c9b      	ldrb	r3, [r3, r2]
 8003776:	b2db      	uxtb	r3, r3
 8003778:	2b01      	cmp	r3, #1
 800377a:	d001      	beq.n	8003780 <HAL_TIM_Base_Start_IT+0x18>
  {
    return HAL_ERROR;
 800377c:	2301      	movs	r3, #1
 800377e:	e03b      	b.n	80037f8 <HAL_TIM_Base_Start_IT+0x90>
  }

  /* Set the TIM state */
  htim->State = HAL_TIM_STATE_BUSY;
 8003780:	687b      	ldr	r3, [r7, #4]
 8003782:	223d      	movs	r2, #61	@ 0x3d
 8003784:	2102      	movs	r1, #2
 8003786:	5499      	strb	r1, [r3, r2]

  /* Enable the TIM Update interrupt */
  __HAL_TIM_ENABLE_IT(htim, TIM_IT_UPDATE);
 8003788:	687b      	ldr	r3, [r7, #4]
 800378a:	681b      	ldr	r3, [r3, #0]
 800378c:	68da      	ldr	r2, [r3, #12]
 800378e:	687b      	ldr	r3, [r7, #4]
 8003790:	681b      	ldr	r3, [r3, #0]
 8003792:	2101      	movs	r1, #1
 8003794:	430a      	orrs	r2, r1
 8003796:	60da      	str	r2, [r3, #12]

  /* Enable the Peripheral, except in trigger mode where enable is automatically done with trigger */
  if (IS_TIM_SLAVE_INSTANCE(htim->Instance))
 8003798:	687b      	ldr	r3, [r7, #4]
 800379a:	681b      	ldr	r3, [r3, #0]
 800379c:	4a18      	ldr	r2, [pc, #96]	@ (8003800 <HAL_TIM_Base_Start_IT+0x98>)
 800379e:	4293      	cmp	r3, r2
 80037a0:	d00f      	beq.n	80037c2 <HAL_TIM_Base_Start_IT+0x5a>
 80037a2:	687b      	ldr	r3, [r7, #4]
 80037a4:	681a      	ldr	r2, [r3, #0]
 80037a6:	2380      	movs	r3, #128	@ 0x80
 80037a8:	05db      	lsls	r3, r3, #23
 80037aa:	429a      	cmp	r2, r3
 80037ac:	d009      	beq.n	80037c2 <HAL_TIM_Base_Start_IT+0x5a>
 80037ae:	687b      	ldr	r3, [r7, #4]
 80037b0:	681b      	ldr	r3, [r3, #0]
 80037b2:	4a14      	ldr	r2, [pc, #80]	@ (8003804 <HAL_TIM_Base_Start_IT+0x9c>)
 80037b4:	4293      	cmp	r3, r2
 80037b6:	d004      	beq.n	80037c2 <HAL_TIM_Base_Start_IT+0x5a>
 80037b8:	687b      	ldr	r3, [r7, #4]
 80037ba:	681b      	ldr	r3, [r3, #0]
 80037bc:	4a12      	ldr	r2, [pc, #72]	@ (8003808 <HAL_TIM_Base_Start_IT+0xa0>)
 80037be:	4293      	cmp	r3, r2
 80037c0:	d111      	bne.n	80037e6 <HAL_TIM_Base_Start_IT+0x7e>
  {
    tmpsmcr = htim->Instance->SMCR & TIM_SMCR_SMS;
 80037c2:	687b      	ldr	r3, [r7, #4]
 80037c4:	681b      	ldr	r3, [r3, #0]
 80037c6:	689b      	ldr	r3, [r3, #8]
 80037c8:	2207      	movs	r2, #7
 80037ca:	4013      	ands	r3, r2
 80037cc:	60fb      	str	r3, [r7, #12]
    if (!IS_TIM_SLAVEMODE_TRIGGER_ENABLED(tmpsmcr))
 80037ce:	68fb      	ldr	r3, [r7, #12]
 80037d0:	2b06      	cmp	r3, #6
 80037d2:	d010      	beq.n	80037f6 <HAL_TIM_Base_Start_IT+0x8e>
    {
      __HAL_TIM_ENABLE(htim);
 80037d4:	687b      	ldr	r3, [r7, #4]
 80037d6:	681b      	ldr	r3, [r3, #0]
 80037d8:	681a      	ldr	r2, [r3, #0]
 80037da:	687b      	ldr	r3, [r7, #4]
 80037dc:	681b      	ldr	r3, [r3, #0]
 80037de:	2101      	movs	r1, #1
 80037e0:	430a      	orrs	r2, r1
 80037e2:	601a      	str	r2, [r3, #0]
    if (!IS_TIM_SLAVEMODE_TRIGGER_ENABLED(tmpsmcr))
 80037e4:	e007      	b.n	80037f6 <HAL_TIM_Base_Start_IT+0x8e>
    }
  }
  else
  {
    __HAL_TIM_ENABLE(htim);
 80037e6:	687b      	ldr	r3, [r7, #4]
 80037e8:	681b      	ldr	r3, [r3, #0]
 80037ea:	681a      	ldr	r2, [r3, #0]
 80037ec:	687b      	ldr	r3, [r7, #4]
 80037ee:	681b      	ldr	r3, [r3, #0]
 80037f0:	2101      	movs	r1, #1
 80037f2:	430a      	orrs	r2, r1
 80037f4:	601a      	str	r2, [r3, #0]
  }

  /* Return function status */
  return HAL_OK;
 80037f6:	2300      	movs	r3, #0
}
 80037f8:	0018      	movs	r0, r3
 80037fa:	46bd      	mov	sp, r7
 80037fc:	b004      	add	sp, #16
 80037fe:	bd80      	pop	{r7, pc}
 8003800:	40012c00 	.word	0x40012c00
 8003804:	40000400 	.word	0x40000400
 8003808:	40014000 	.word	0x40014000

0800380c <HAL_TIM_PWM_Init>:
  *         Ex: call @ref HAL_TIM_PWM_DeInit() before HAL_TIM_PWM_Init()
  * @param  htim TIM PWM handle
  * @retval HAL status
  */
HAL_StatusTypeDef HAL_TIM_PWM_Init(TIM_HandleTypeDef *htim)
{
 800380c:	b580      	push	{r7, lr}
 800380e:	b082      	sub	sp, #8
 8003810:	af00      	add	r7, sp, #0
 8003812:	6078      	str	r0, [r7, #4]
  /* Check the TIM handle allocation */
  if (htim == NULL)
 8003814:	687b      	ldr	r3, [r7, #4]
 8003816:	2b00      	cmp	r3, #0
 8003818:	d101      	bne.n	800381e <HAL_TIM_PWM_Init+0x12>
  {
    return HAL_ERROR;
 800381a:	2301      	movs	r3, #1
 800381c:	e042      	b.n	80038a4 <HAL_TIM_PWM_Init+0x98>
  assert_param(IS_TIM_COUNTER_MODE(htim->Init.CounterMode));
  assert_param(IS_TIM_CLOCKDIVISION_DIV(htim->Init.ClockDivision));
  assert_param(IS_TIM_PERIOD(htim, htim->Init.Period));
  assert_param(IS_TIM_AUTORELOAD_PRELOAD(htim->Init.AutoReloadPreload));

  if (htim->State == HAL_TIM_STATE_RESET)
 800381e:	687b      	ldr	r3, [r7, #4]
 8003820:	223d      	movs	r2, #61	@ 0x3d
 8003822:	5c9b      	ldrb	r3, [r3, r2]
 8003824:	b2db      	uxtb	r3, r3
 8003826:	2b00      	cmp	r3, #0
 8003828:	d107      	bne.n	800383a <HAL_TIM_PWM_Init+0x2e>
  {
    /* Allocate lock resource and initialize it */
    htim->Lock = HAL_UNLOCKED;
 800382a:	687b      	ldr	r3, [r7, #4]
 800382c:	223c      	movs	r2, #60	@ 0x3c
 800382e:	2100      	movs	r1, #0
 8003830:	5499      	strb	r1, [r3, r2]
    }
    /* Init the low level hardware : GPIO, CLOCK, NVIC */
    htim->PWM_MspInitCallback(htim);
#else
    /* Init the low level hardware : GPIO, CLOCK, NVIC and DMA */
    HAL_TIM_PWM_MspInit(htim);
 8003832:	687b      	ldr	r3, [r7, #4]
 8003834:	0018      	movs	r0, r3
 8003836:	f7fd ffc7 	bl	80017c8 <HAL_TIM_PWM_MspInit>
#endif /* USE_HAL_TIM_REGISTER_CALLBACKS */
  }

  /* Set the TIM state */
  htim->State = HAL_TIM_STATE_BUSY;
 800383a:	687b      	ldr	r3, [r7, #4]
 800383c:	223d      	movs	r2, #61	@ 0x3d
 800383e:	2102      	movs	r1, #2
 8003840:	5499      	strb	r1, [r3, r2]

  /* Init the base time for the PWM */
  TIM_Base_SetConfig(htim->Instance, &htim->Init);
 8003842:	687b      	ldr	r3, [r7, #4]
 8003844:	681a      	ldr	r2, [r3, #0]
 8003846:	687b      	ldr	r3, [r7, #4]
 8003848:	3304      	adds	r3, #4
 800384a:	0019      	movs	r1, r3
 800384c:	0010      	movs	r0, r2
 800384e:	f000 fab9 	bl	8003dc4 <TIM_Base_SetConfig>

  /* Initialize the DMA burst operation state */
  htim->DMABurstState = HAL_DMA_BURST_STATE_READY;
 8003852:	687b      	ldr	r3, [r7, #4]
 8003854:	2246      	movs	r2, #70	@ 0x46
 8003856:	2101      	movs	r1, #1
 8003858:	5499      	strb	r1, [r3, r2]

  /* Initialize the TIM channels state */
  TIM_CHANNEL_STATE_SET_ALL(htim, HAL_TIM_CHANNEL_STATE_READY);
 800385a:	687b      	ldr	r3, [r7, #4]
 800385c:	223e      	movs	r2, #62	@ 0x3e
 800385e:	2101      	movs	r1, #1
 8003860:	5499      	strb	r1, [r3, r2]
 8003862:	687b      	ldr	r3, [r7, #4]
 8003864:	223f      	movs	r2, #63	@ 0x3f
 8003866:	2101      	movs	r1, #1
 8003868:	5499      	strb	r1, [r3, r2]
 800386a:	687b      	ldr	r3, [r7, #4]
 800386c:	2240      	movs	r2, #64	@ 0x40
 800386e:	2101      	movs	r1, #1
 8003870:	5499      	strb	r1, [r3, r2]
 8003872:	687b      	ldr	r3, [r7, #4]
 8003874:	2241      	movs	r2, #65	@ 0x41
 8003876:	2101      	movs	r1, #1
 8003878:	5499      	strb	r1, [r3, r2]
  TIM_CHANNEL_N_STATE_SET_ALL(htim, HAL_TIM_CHANNEL_STATE_READY);
 800387a:	687b      	ldr	r3, [r7, #4]
 800387c:	2242      	movs	r2, #66	@ 0x42
 800387e:	2101      	movs	r1, #1
 8003880:	5499      	strb	r1, [r3, r2]
 8003882:	687b      	ldr	r3, [r7, #4]
 8003884:	2243      	movs	r2, #67	@ 0x43
 8003886:	2101      	movs	r1, #1
 8003888:	5499      	strb	r1, [r3, r2]
 800388a:	687b      	ldr	r3, [r7, #4]
 800388c:	2244      	movs	r2, #68	@ 0x44
 800388e:	2101      	movs	r1, #1
 8003890:	5499      	strb	r1, [r3, r2]
 8003892:	687b      	ldr	r3, [r7, #4]
 8003894:	2245      	movs	r2, #69	@ 0x45
 8003896:	2101      	movs	r1, #1
 8003898:	5499      	strb	r1, [r3, r2]

  /* Initialize the TIM state*/
  htim->State = HAL_TIM_STATE_READY;
 800389a:	687b      	ldr	r3, [r7, #4]
 800389c:	223d      	movs	r2, #61	@ 0x3d
 800389e:	2101      	movs	r1, #1
 80038a0:	5499      	strb	r1, [r3, r2]

  return HAL_OK;
 80038a2:	2300      	movs	r3, #0
}
 80038a4:	0018      	movs	r0, r3
 80038a6:	46bd      	mov	sp, r7
 80038a8:	b002      	add	sp, #8
 80038aa:	bd80      	pop	{r7, pc}

080038ac <HAL_TIM_PWM_Start>:
  *            @arg TIM_CHANNEL_3: TIM Channel 3 selected
  *            @arg TIM_CHANNEL_4: TIM Channel 4 selected
  * @retval HAL status
  */
HAL_StatusTypeDef HAL_TIM_PWM_Start(TIM_HandleTypeDef *htim, uint32_t Channel)
{
 80038ac:	b580      	push	{r7, lr}
 80038ae:	b084      	sub	sp, #16
 80038b0:	af00      	add	r7, sp, #0
 80038b2:	6078      	str	r0, [r7, #4]
 80038b4:	6039      	str	r1, [r7, #0]

  /* Check the parameters */
  assert_param(IS_TIM_CCX_INSTANCE(htim->Instance, Channel));

  /* Check the TIM channel state */
  if (TIM_CHANNEL_STATE_GET(htim, Channel) != HAL_TIM_CHANNEL_STATE_READY)
 80038b6:	683b      	ldr	r3, [r7, #0]
 80038b8:	2b00      	cmp	r3, #0
 80038ba:	d108      	bne.n	80038ce <HAL_TIM_PWM_Start+0x22>
 80038bc:	687b      	ldr	r3, [r7, #4]
 80038be:	223e      	movs	r2, #62	@ 0x3e
 80038c0:	5c9b      	ldrb	r3, [r3, r2]
 80038c2:	b2db      	uxtb	r3, r3
 80038c4:	3b01      	subs	r3, #1
 80038c6:	1e5a      	subs	r2, r3, #1
 80038c8:	4193      	sbcs	r3, r2
 80038ca:	b2db      	uxtb	r3, r3
 80038cc:	e01f      	b.n	800390e <HAL_TIM_PWM_Start+0x62>
 80038ce:	683b      	ldr	r3, [r7, #0]
 80038d0:	2b04      	cmp	r3, #4
 80038d2:	d108      	bne.n	80038e6 <HAL_TIM_PWM_Start+0x3a>
 80038d4:	687b      	ldr	r3, [r7, #4]
 80038d6:	223f      	movs	r2, #63	@ 0x3f
 80038d8:	5c9b      	ldrb	r3, [r3, r2]
 80038da:	b2db      	uxtb	r3, r3
 80038dc:	3b01      	subs	r3, #1
 80038de:	1e5a      	subs	r2, r3, #1
 80038e0:	4193      	sbcs	r3, r2
 80038e2:	b2db      	uxtb	r3, r3
 80038e4:	e013      	b.n	800390e <HAL_TIM_PWM_Start+0x62>
 80038e6:	683b      	ldr	r3, [r7, #0]
 80038e8:	2b08      	cmp	r3, #8
 80038ea:	d108      	bne.n	80038fe <HAL_TIM_PWM_Start+0x52>
 80038ec:	687b      	ldr	r3, [r7, #4]
 80038ee:	2240      	movs	r2, #64	@ 0x40
 80038f0:	5c9b      	ldrb	r3, [r3, r2]
 80038f2:	b2db      	uxtb	r3, r3
 80038f4:	3b01      	subs	r3, #1
 80038f6:	1e5a      	subs	r2, r3, #1
 80038f8:	4193      	sbcs	r3, r2
 80038fa:	b2db      	uxtb	r3, r3
 80038fc:	e007      	b.n	800390e <HAL_TIM_PWM_Start+0x62>
 80038fe:	687b      	ldr	r3, [r7, #4]
 8003900:	2241      	movs	r2, #65	@ 0x41
 8003902:	5c9b      	ldrb	r3, [r3, r2]
 8003904:	b2db      	uxtb	r3, r3
 8003906:	3b01      	subs	r3, #1
 8003908:	1e5a      	subs	r2, r3, #1
 800390a:	4193      	sbcs	r3, r2
 800390c:	b2db      	uxtb	r3, r3
 800390e:	2b00      	cmp	r3, #0
 8003910:	d001      	beq.n	8003916 <HAL_TIM_PWM_Start+0x6a>
  {
    return HAL_ERROR;
 8003912:	2301      	movs	r3, #1
 8003914:	e074      	b.n	8003a00 <HAL_TIM_PWM_Start+0x154>
  }

  /* Set the TIM channel state */
  TIM_CHANNEL_STATE_SET(htim, Channel, HAL_TIM_CHANNEL_STATE_BUSY);
 8003916:	683b      	ldr	r3, [r7, #0]
 8003918:	2b00      	cmp	r3, #0
 800391a:	d104      	bne.n	8003926 <HAL_TIM_PWM_Start+0x7a>
 800391c:	687b      	ldr	r3, [r7, #4]
 800391e:	223e      	movs	r2, #62	@ 0x3e
 8003920:	2102      	movs	r1, #2
 8003922:	5499      	strb	r1, [r3, r2]
 8003924:	e013      	b.n	800394e <HAL_TIM_PWM_Start+0xa2>
 8003926:	683b      	ldr	r3, [r7, #0]
 8003928:	2b04      	cmp	r3, #4
 800392a:	d104      	bne.n	8003936 <HAL_TIM_PWM_Start+0x8a>
 800392c:	687b      	ldr	r3, [r7, #4]
 800392e:	223f      	movs	r2, #63	@ 0x3f
 8003930:	2102      	movs	r1, #2
 8003932:	5499      	strb	r1, [r3, r2]
 8003934:	e00b      	b.n	800394e <HAL_TIM_PWM_Start+0xa2>
 8003936:	683b      	ldr	r3, [r7, #0]
 8003938:	2b08      	cmp	r3, #8
 800393a:	d104      	bne.n	8003946 <HAL_TIM_PWM_Start+0x9a>
 800393c:	687b      	ldr	r3, [r7, #4]
 800393e:	2240      	movs	r2, #64	@ 0x40
 8003940:	2102      	movs	r1, #2
 8003942:	5499      	strb	r1, [r3, r2]
 8003944:	e003      	b.n	800394e <HAL_TIM_PWM_Start+0xa2>
 8003946:	687b      	ldr	r3, [r7, #4]
 8003948:	2241      	movs	r2, #65	@ 0x41
 800394a:	2102      	movs	r1, #2
 800394c:	5499      	strb	r1, [r3, r2]

  /* Enable the Capture compare channel */
  TIM_CCxChannelCmd(htim->Instance, Channel, TIM_CCx_ENABLE);
 800394e:	687b      	ldr	r3, [r7, #4]
 8003950:	681b      	ldr	r3, [r3, #0]
 8003952:	6839      	ldr	r1, [r7, #0]
 8003954:	2201      	movs	r2, #1
 8003956:	0018      	movs	r0, r3
 8003958:	f000 fcbe 	bl	80042d8 <TIM_CCxChannelCmd>

  if (IS_TIM_BREAK_INSTANCE(htim->Instance) != RESET)
 800395c:	687b      	ldr	r3, [r7, #4]
 800395e:	681b      	ldr	r3, [r3, #0]
 8003960:	4a29      	ldr	r2, [pc, #164]	@ (8003a08 <HAL_TIM_PWM_Start+0x15c>)
 8003962:	4293      	cmp	r3, r2
 8003964:	d00e      	beq.n	8003984 <HAL_TIM_PWM_Start+0xd8>
 8003966:	687b      	ldr	r3, [r7, #4]
 8003968:	681b      	ldr	r3, [r3, #0]
 800396a:	4a28      	ldr	r2, [pc, #160]	@ (8003a0c <HAL_TIM_PWM_Start+0x160>)
 800396c:	4293      	cmp	r3, r2
 800396e:	d009      	beq.n	8003984 <HAL_TIM_PWM_Start+0xd8>
 8003970:	687b      	ldr	r3, [r7, #4]
 8003972:	681b      	ldr	r3, [r3, #0]
 8003974:	4a26      	ldr	r2, [pc, #152]	@ (8003a10 <HAL_TIM_PWM_Start+0x164>)
 8003976:	4293      	cmp	r3, r2
 8003978:	d004      	beq.n	8003984 <HAL_TIM_PWM_Start+0xd8>
 800397a:	687b      	ldr	r3, [r7, #4]
 800397c:	681b      	ldr	r3, [r3, #0]
 800397e:	4a25      	ldr	r2, [pc, #148]	@ (8003a14 <HAL_TIM_PWM_Start+0x168>)
 8003980:	4293      	cmp	r3, r2
 8003982:	d101      	bne.n	8003988 <HAL_TIM_PWM_Start+0xdc>
 8003984:	2301      	movs	r3, #1
 8003986:	e000      	b.n	800398a <HAL_TIM_PWM_Start+0xde>
 8003988:	2300      	movs	r3, #0
 800398a:	2b00      	cmp	r3, #0
 800398c:	d008      	beq.n	80039a0 <HAL_TIM_PWM_Start+0xf4>
  {
    /* Enable the main output */
    __HAL_TIM_MOE_ENABLE(htim);
 800398e:	687b      	ldr	r3, [r7, #4]
 8003990:	681b      	ldr	r3, [r3, #0]
 8003992:	6c5a      	ldr	r2, [r3, #68]	@ 0x44
 8003994:	687b      	ldr	r3, [r7, #4]
 8003996:	681b      	ldr	r3, [r3, #0]
 8003998:	2180      	movs	r1, #128	@ 0x80
 800399a:	0209      	lsls	r1, r1, #8
 800399c:	430a      	orrs	r2, r1
 800399e:	645a      	str	r2, [r3, #68]	@ 0x44
  }

  /* Enable the Peripheral, except in trigger mode where enable is automatically done with trigger */
  if (IS_TIM_SLAVE_INSTANCE(htim->Instance))
 80039a0:	687b      	ldr	r3, [r7, #4]
 80039a2:	681b      	ldr	r3, [r3, #0]
 80039a4:	4a18      	ldr	r2, [pc, #96]	@ (8003a08 <HAL_TIM_PWM_Start+0x15c>)
 80039a6:	4293      	cmp	r3, r2
 80039a8:	d00f      	beq.n	80039ca <HAL_TIM_PWM_Start+0x11e>
 80039aa:	687b      	ldr	r3, [r7, #4]
 80039ac:	681a      	ldr	r2, [r3, #0]
 80039ae:	2380      	movs	r3, #128	@ 0x80
 80039b0:	05db      	lsls	r3, r3, #23
 80039b2:	429a      	cmp	r2, r3
 80039b4:	d009      	beq.n	80039ca <HAL_TIM_PWM_Start+0x11e>
 80039b6:	687b      	ldr	r3, [r7, #4]
 80039b8:	681b      	ldr	r3, [r3, #0]
 80039ba:	4a17      	ldr	r2, [pc, #92]	@ (8003a18 <HAL_TIM_PWM_Start+0x16c>)
 80039bc:	4293      	cmp	r3, r2
 80039be:	d004      	beq.n	80039ca <HAL_TIM_PWM_Start+0x11e>
 80039c0:	687b      	ldr	r3, [r7, #4]
 80039c2:	681b      	ldr	r3, [r3, #0]
 80039c4:	4a11      	ldr	r2, [pc, #68]	@ (8003a0c <HAL_TIM_PWM_Start+0x160>)
 80039c6:	4293      	cmp	r3, r2
 80039c8:	d111      	bne.n	80039ee <HAL_TIM_PWM_Start+0x142>
  {
    tmpsmcr = htim->Instance->SMCR & TIM_SMCR_SMS;
 80039ca:	687b      	ldr	r3, [r7, #4]
 80039cc:	681b      	ldr	r3, [r3, #0]
 80039ce:	689b      	ldr	r3, [r3, #8]
 80039d0:	2207      	movs	r2, #7
 80039d2:	4013      	ands	r3, r2
 80039d4:	60fb      	str	r3, [r7, #12]
    if (!IS_TIM_SLAVEMODE_TRIGGER_ENABLED(tmpsmcr))
 80039d6:	68fb      	ldr	r3, [r7, #12]
 80039d8:	2b06      	cmp	r3, #6
 80039da:	d010      	beq.n	80039fe <HAL_TIM_PWM_Start+0x152>
    {
      __HAL_TIM_ENABLE(htim);
 80039dc:	687b      	ldr	r3, [r7, #4]
 80039de:	681b      	ldr	r3, [r3, #0]
 80039e0:	681a      	ldr	r2, [r3, #0]
 80039e2:	687b      	ldr	r3, [r7, #4]
 80039e4:	681b      	ldr	r3, [r3, #0]
 80039e6:	2101      	movs	r1, #1
 80039e8:	430a      	orrs	r2, r1
 80039ea:	601a      	str	r2, [r3, #0]
    if (!IS_TIM_SLAVEMODE_TRIGGER_ENABLED(tmpsmcr))
 80039ec:	e007      	b.n	80039fe <HAL_TIM_PWM_Start+0x152>
    }
  }
  else
  {
    __HAL_TIM_ENABLE(htim);
 80039ee:	687b      	ldr	r3, [r7, #4]
 80039f0:	681b      	ldr	r3, [r3, #0]
 80039f2:	681a      	ldr	r2, [r3, #0]
 80039f4:	687b      	ldr	r3, [r7, #4]
 80039f6:	681b      	ldr	r3, [r3, #0]
 80039f8:	2101      	movs	r1, #1
 80039fa:	430a      	orrs	r2, r1
 80039fc:	601a      	str	r2, [r3, #0]
  }

  /* Return function status */
  return HAL_OK;
 80039fe:	2300      	movs	r3, #0
}
 8003a00:	0018      	movs	r0, r3
 8003a02:	46bd      	mov	sp, r7
 8003a04:	b004      	add	sp, #16
 8003a06:	bd80      	pop	{r7, pc}
 8003a08:	40012c00 	.word	0x40012c00
 8003a0c:	40014000 	.word	0x40014000
 8003a10:	40014400 	.word	0x40014400
 8003a14:	40014800 	.word	0x40014800
 8003a18:	40000400 	.word	0x40000400

08003a1c <HAL_TIM_IRQHandler>:
  * @brief  This function handles TIM interrupts requests.
  * @param  htim TIM  handle
  * @retval None
  */
void HAL_TIM_IRQHandler(TIM_HandleTypeDef *htim)
{
 8003a1c:	b580      	push	{r7, lr}
 8003a1e:	b084      	sub	sp, #16
 8003a20:	af00      	add	r7, sp, #0
 8003a22:	6078      	str	r0, [r7, #4]
  uint32_t itsource = htim->Instance->DIER;
 8003a24:	687b      	ldr	r3, [r7, #4]
 8003a26:	681b      	ldr	r3, [r3, #0]
 8003a28:	68db      	ldr	r3, [r3, #12]
 8003a2a:	60fb      	str	r3, [r7, #12]
  uint32_t itflag   = htim->Instance->SR;
 8003a2c:	687b      	ldr	r3, [r7, #4]
 8003a2e:	681b      	ldr	r3, [r3, #0]
 8003a30:	691b      	ldr	r3, [r3, #16]
 8003a32:	60bb      	str	r3, [r7, #8]

  /* Capture compare 1 event */
  if ((itflag & (TIM_FLAG_CC1)) == (TIM_FLAG_CC1))
 8003a34:	68bb      	ldr	r3, [r7, #8]
 8003a36:	2202      	movs	r2, #2
 8003a38:	4013      	ands	r3, r2
 8003a3a:	d021      	beq.n	8003a80 <HAL_TIM_IRQHandler+0x64>
  {
    if ((itsource & (TIM_IT_CC1)) == (TIM_IT_CC1))
 8003a3c:	68fb      	ldr	r3, [r7, #12]
 8003a3e:	2202      	movs	r2, #2
 8003a40:	4013      	ands	r3, r2
 8003a42:	d01d      	beq.n	8003a80 <HAL_TIM_IRQHandler+0x64>
    {
      {
        __HAL_TIM_CLEAR_FLAG(htim, TIM_FLAG_CC1);
 8003a44:	687b      	ldr	r3, [r7, #4]
 8003a46:	681b      	ldr	r3, [r3, #0]
 8003a48:	2203      	movs	r2, #3
 8003a4a:	4252      	negs	r2, r2
 8003a4c:	611a      	str	r2, [r3, #16]
        htim->Channel = HAL_TIM_ACTIVE_CHANNEL_1;
 8003a4e:	687b      	ldr	r3, [r7, #4]
 8003a50:	2201      	movs	r2, #1
 8003a52:	771a      	strb	r2, [r3, #28]

        /* Input capture event */
        if ((htim->Instance->CCMR1 & TIM_CCMR1_CC1S) != 0x00U)
 8003a54:	687b      	ldr	r3, [r7, #4]
 8003a56:	681b      	ldr	r3, [r3, #0]
 8003a58:	699b      	ldr	r3, [r3, #24]
 8003a5a:	2203      	movs	r2, #3
 8003a5c:	4013      	ands	r3, r2
 8003a5e:	d004      	beq.n	8003a6a <HAL_TIM_IRQHandler+0x4e>
        {
#if (USE_HAL_TIM_REGISTER_CALLBACKS == 1)
          htim->IC_CaptureCallback(htim);
#else
          HAL_TIM_IC_CaptureCallback(htim);
 8003a60:	687b      	ldr	r3, [r7, #4]
 8003a62:	0018      	movs	r0, r3
 8003a64:	f000 f996 	bl	8003d94 <HAL_TIM_IC_CaptureCallback>
 8003a68:	e007      	b.n	8003a7a <HAL_TIM_IRQHandler+0x5e>
        {
#if (USE_HAL_TIM_REGISTER_CALLBACKS == 1)
          htim->OC_DelayElapsedCallback(htim);
          htim->PWM_PulseFinishedCallback(htim);
#else
          HAL_TIM_OC_DelayElapsedCallback(htim);
 8003a6a:	687b      	ldr	r3, [r7, #4]
 8003a6c:	0018      	movs	r0, r3
 8003a6e:	f000 f989 	bl	8003d84 <HAL_TIM_OC_DelayElapsedCallback>
          HAL_TIM_PWM_PulseFinishedCallback(htim);
 8003a72:	687b      	ldr	r3, [r7, #4]
 8003a74:	0018      	movs	r0, r3
 8003a76:	f000 f995 	bl	8003da4 <HAL_TIM_PWM_PulseFinishedCallback>
#endif /* USE_HAL_TIM_REGISTER_CALLBACKS */
        }
        htim->Channel = HAL_TIM_ACTIVE_CHANNEL_CLEARED;
 8003a7a:	687b      	ldr	r3, [r7, #4]
 8003a7c:	2200      	movs	r2, #0
 8003a7e:	771a      	strb	r2, [r3, #28]
      }
    }
  }
  /* Capture compare 2 event */
  if ((itflag & (TIM_FLAG_CC2)) == (TIM_FLAG_CC2))
 8003a80:	68bb      	ldr	r3, [r7, #8]
 8003a82:	2204      	movs	r2, #4
 8003a84:	4013      	ands	r3, r2
 8003a86:	d022      	beq.n	8003ace <HAL_TIM_IRQHandler+0xb2>
  {
    if ((itsource & (TIM_IT_CC2)) == (TIM_IT_CC2))
 8003a88:	68fb      	ldr	r3, [r7, #12]
 8003a8a:	2204      	movs	r2, #4
 8003a8c:	4013      	ands	r3, r2
 8003a8e:	d01e      	beq.n	8003ace <HAL_TIM_IRQHandler+0xb2>
    {
      __HAL_TIM_CLEAR_FLAG(htim, TIM_FLAG_CC2);
 8003a90:	687b      	ldr	r3, [r7, #4]
 8003a92:	681b      	ldr	r3, [r3, #0]
 8003a94:	2205      	movs	r2, #5
 8003a96:	4252      	negs	r2, r2
 8003a98:	611a      	str	r2, [r3, #16]
      htim->Channel = HAL_TIM_ACTIVE_CHANNEL_2;
 8003a9a:	687b      	ldr	r3, [r7, #4]
 8003a9c:	2202      	movs	r2, #2
 8003a9e:	771a      	strb	r2, [r3, #28]
      /* Input capture event */
      if ((htim->Instance->CCMR1 & TIM_CCMR1_CC2S) != 0x00U)
 8003aa0:	687b      	ldr	r3, [r7, #4]
 8003aa2:	681b      	ldr	r3, [r3, #0]
 8003aa4:	699a      	ldr	r2, [r3, #24]
 8003aa6:	23c0      	movs	r3, #192	@ 0xc0
 8003aa8:	009b      	lsls	r3, r3, #2
 8003aaa:	4013      	ands	r3, r2
 8003aac:	d004      	beq.n	8003ab8 <HAL_TIM_IRQHandler+0x9c>
      {
#if (USE_HAL_TIM_REGISTER_CALLBACKS == 1)
        htim->IC_CaptureCallback(htim);
#else
        HAL_TIM_IC_CaptureCallback(htim);
 8003aae:	687b      	ldr	r3, [r7, #4]
 8003ab0:	0018      	movs	r0, r3
 8003ab2:	f000 f96f 	bl	8003d94 <HAL_TIM_IC_CaptureCallback>
 8003ab6:	e007      	b.n	8003ac8 <HAL_TIM_IRQHandler+0xac>
      {
#if (USE_HAL_TIM_REGISTER_CALLBACKS == 1)
        htim->OC_DelayElapsedCallback(htim);
        htim->PWM_PulseFinishedCallback(htim);
#else
        HAL_TIM_OC_DelayElapsedCallback(htim);
 8003ab8:	687b      	ldr	r3, [r7, #4]
 8003aba:	0018      	movs	r0, r3
 8003abc:	f000 f962 	bl	8003d84 <HAL_TIM_OC_DelayElapsedCallback>
        HAL_TIM_PWM_PulseFinishedCallback(htim);
 8003ac0:	687b      	ldr	r3, [r7, #4]
 8003ac2:	0018      	movs	r0, r3
 8003ac4:	f000 f96e 	bl	8003da4 <HAL_TIM_PWM_PulseFinishedCallback>
#endif /* USE_HAL_TIM_REGISTER_CALLBACKS */
      }
      htim->Channel = HAL_TIM_ACTIVE_CHANNEL_CLEARED;
 8003ac8:	687b      	ldr	r3, [r7, #4]
 8003aca:	2200      	movs	r2, #0
 8003acc:	771a      	strb	r2, [r3, #28]
    }
  }
  /* Capture compare 3 event */
  if ((itflag & (TIM_FLAG_CC3)) == (TIM_FLAG_CC3))
 8003ace:	68bb      	ldr	r3, [r7, #8]
 8003ad0:	2208      	movs	r2, #8
 8003ad2:	4013      	ands	r3, r2
 8003ad4:	d021      	beq.n	8003b1a <HAL_TIM_IRQHandler+0xfe>
  {
    if ((itsource & (TIM_IT_CC3)) == (TIM_IT_CC3))
 8003ad6:	68fb      	ldr	r3, [r7, #12]
 8003ad8:	2208      	movs	r2, #8
 8003ada:	4013      	ands	r3, r2
 8003adc:	d01d      	beq.n	8003b1a <HAL_TIM_IRQHandler+0xfe>
    {
      __HAL_TIM_CLEAR_FLAG(htim, TIM_FLAG_CC3);
 8003ade:	687b      	ldr	r3, [r7, #4]
 8003ae0:	681b      	ldr	r3, [r3, #0]
 8003ae2:	2209      	movs	r2, #9
 8003ae4:	4252      	negs	r2, r2
 8003ae6:	611a      	str	r2, [r3, #16]
      htim->Channel = HAL_TIM_ACTIVE_CHANNEL_3;
 8003ae8:	687b      	ldr	r3, [r7, #4]
 8003aea:	2204      	movs	r2, #4
 8003aec:	771a      	strb	r2, [r3, #28]
      /* Input capture event */
      if ((htim->Instance->CCMR2 & TIM_CCMR2_CC3S) != 0x00U)
 8003aee:	687b      	ldr	r3, [r7, #4]
 8003af0:	681b      	ldr	r3, [r3, #0]
 8003af2:	69db      	ldr	r3, [r3, #28]
 8003af4:	2203      	movs	r2, #3
 8003af6:	4013      	ands	r3, r2
 8003af8:	d004      	beq.n	8003b04 <HAL_TIM_IRQHandler+0xe8>
      {
#if (USE_HAL_TIM_REGISTER_CALLBACKS == 1)
        htim->IC_CaptureCallback(htim);
#else
        HAL_TIM_IC_CaptureCallback(htim);
 8003afa:	687b      	ldr	r3, [r7, #4]
 8003afc:	0018      	movs	r0, r3
 8003afe:	f000 f949 	bl	8003d94 <HAL_TIM_IC_CaptureCallback>
 8003b02:	e007      	b.n	8003b14 <HAL_TIM_IRQHandler+0xf8>
      {
#if (USE_HAL_TIM_REGISTER_CALLBACKS == 1)
        htim->OC_DelayElapsedCallback(htim);
        htim->PWM_PulseFinishedCallback(htim);
#else
        HAL_TIM_OC_DelayElapsedCallback(htim);
 8003b04:	687b      	ldr	r3, [r7, #4]
 8003b06:	0018      	movs	r0, r3
 8003b08:	f000 f93c 	bl	8003d84 <HAL_TIM_OC_DelayElapsedCallback>
        HAL_TIM_PWM_PulseFinishedCallback(htim);
 8003b0c:	687b      	ldr	r3, [r7, #4]
 8003b0e:	0018      	movs	r0, r3
 8003b10:	f000 f948 	bl	8003da4 <HAL_TIM_PWM_PulseFinishedCallback>
#endif /* USE_HAL_TIM_REGISTER_CALLBACKS */
      }
      htim->Channel = HAL_TIM_ACTIVE_CHANNEL_CLEARED;
 8003b14:	687b      	ldr	r3, [r7, #4]
 8003b16:	2200      	movs	r2, #0
 8003b18:	771a      	strb	r2, [r3, #28]
    }
  }
  /* Capture compare 4 event */
  if ((itflag & (TIM_FLAG_CC4)) == (TIM_FLAG_CC4))
 8003b1a:	68bb      	ldr	r3, [r7, #8]
 8003b1c:	2210      	movs	r2, #16
 8003b1e:	4013      	ands	r3, r2
 8003b20:	d022      	beq.n	8003b68 <HAL_TIM_IRQHandler+0x14c>
  {
    if ((itsource & (TIM_IT_CC4)) == (TIM_IT_CC4))
 8003b22:	68fb      	ldr	r3, [r7, #12]
 8003b24:	2210      	movs	r2, #16
 8003b26:	4013      	ands	r3, r2
 8003b28:	d01e      	beq.n	8003b68 <HAL_TIM_IRQHandler+0x14c>
    {
      __HAL_TIM_CLEAR_FLAG(htim, TIM_FLAG_CC4);
 8003b2a:	687b      	ldr	r3, [r7, #4]
 8003b2c:	681b      	ldr	r3, [r3, #0]
 8003b2e:	2211      	movs	r2, #17
 8003b30:	4252      	negs	r2, r2
 8003b32:	611a      	str	r2, [r3, #16]
      htim->Channel = HAL_TIM_ACTIVE_CHANNEL_4;
 8003b34:	687b      	ldr	r3, [r7, #4]
 8003b36:	2208      	movs	r2, #8
 8003b38:	771a      	strb	r2, [r3, #28]
      /* Input capture event */
      if ((htim->Instance->CCMR2 & TIM_CCMR2_CC4S) != 0x00U)
 8003b3a:	687b      	ldr	r3, [r7, #4]
 8003b3c:	681b      	ldr	r3, [r3, #0]
 8003b3e:	69da      	ldr	r2, [r3, #28]
 8003b40:	23c0      	movs	r3, #192	@ 0xc0
 8003b42:	009b      	lsls	r3, r3, #2
 8003b44:	4013      	ands	r3, r2
 8003b46:	d004      	beq.n	8003b52 <HAL_TIM_IRQHandler+0x136>
      {
#if (USE_HAL_TIM_REGISTER_CALLBACKS == 1)
        htim->IC_CaptureCallback(htim);
#else
        HAL_TIM_IC_CaptureCallback(htim);
 8003b48:	687b      	ldr	r3, [r7, #4]
 8003b4a:	0018      	movs	r0, r3
 8003b4c:	f000 f922 	bl	8003d94 <HAL_TIM_IC_CaptureCallback>
 8003b50:	e007      	b.n	8003b62 <HAL_TIM_IRQHandler+0x146>
      {
#if (USE_HAL_TIM_REGISTER_CALLBACKS == 1)
        htim->OC_DelayElapsedCallback(htim);
        htim->PWM_PulseFinishedCallback(htim);
#else
        HAL_TIM_OC_DelayElapsedCallback(htim);
 8003b52:	687b      	ldr	r3, [r7, #4]
 8003b54:	0018      	movs	r0, r3
 8003b56:	f000 f915 	bl	8003d84 <HAL_TIM_OC_DelayElapsedCallback>
        HAL_TIM_PWM_PulseFinishedCallback(htim);
 8003b5a:	687b      	ldr	r3, [r7, #4]
 8003b5c:	0018      	movs	r0, r3
 8003b5e:	f000 f921 	bl	8003da4 <HAL_TIM_PWM_PulseFinishedCallback>
#endif /* USE_HAL_TIM_REGISTER_CALLBACKS */
      }
      htim->Channel = HAL_TIM_ACTIVE_CHANNEL_CLEARED;
 8003b62:	687b      	ldr	r3, [r7, #4]
 8003b64:	2200      	movs	r2, #0
 8003b66:	771a      	strb	r2, [r3, #28]
    }
  }
  /* TIM Update event */
  if ((itflag & (TIM_FLAG_UPDATE)) == (TIM_FLAG_UPDATE))
 8003b68:	68bb      	ldr	r3, [r7, #8]
 8003b6a:	2201      	movs	r2, #1
 8003b6c:	4013      	ands	r3, r2
 8003b6e:	d00c      	beq.n	8003b8a <HAL_TIM_IRQHandler+0x16e>
  {
    if ((itsource & (TIM_IT_UPDATE)) == (TIM_IT_UPDATE))
 8003b70:	68fb      	ldr	r3, [r7, #12]
 8003b72:	2201      	movs	r2, #1
 8003b74:	4013      	ands	r3, r2
 8003b76:	d008      	beq.n	8003b8a <HAL_TIM_IRQHandler+0x16e>
    {
      __HAL_TIM_CLEAR_FLAG(htim, TIM_FLAG_UPDATE);
 8003b78:	687b      	ldr	r3, [r7, #4]
 8003b7a:	681b      	ldr	r3, [r3, #0]
 8003b7c:	2202      	movs	r2, #2
 8003b7e:	4252      	negs	r2, r2
 8003b80:	611a      	str	r2, [r3, #16]
#if (USE_HAL_TIM_REGISTER_CALLBACKS == 1)
      htim->PeriodElapsedCallback(htim);
#else
      HAL_TIM_PeriodElapsedCallback(htim);
 8003b82:	687b      	ldr	r3, [r7, #4]
 8003b84:	0018      	movs	r0, r3
 8003b86:	f7fd fd39 	bl	80015fc <HAL_TIM_PeriodElapsedCallback>
#endif /* USE_HAL_TIM_REGISTER_CALLBACKS */
    }
  }
  /* TIM Break input event */
  if ((itflag & (TIM_FLAG_BREAK)) == (TIM_FLAG_BREAK))
 8003b8a:	68bb      	ldr	r3, [r7, #8]
 8003b8c:	2280      	movs	r2, #128	@ 0x80
 8003b8e:	4013      	ands	r3, r2
 8003b90:	d00c      	beq.n	8003bac <HAL_TIM_IRQHandler+0x190>
  {
    if ((itsource & (TIM_IT_BREAK)) == (TIM_IT_BREAK))
 8003b92:	68fb      	ldr	r3, [r7, #12]
 8003b94:	2280      	movs	r2, #128	@ 0x80
 8003b96:	4013      	ands	r3, r2
 8003b98:	d008      	beq.n	8003bac <HAL_TIM_IRQHandler+0x190>
    {
      __HAL_TIM_CLEAR_FLAG(htim, TIM_FLAG_BREAK);
 8003b9a:	687b      	ldr	r3, [r7, #4]
 8003b9c:	681b      	ldr	r3, [r3, #0]
 8003b9e:	2281      	movs	r2, #129	@ 0x81
 8003ba0:	4252      	negs	r2, r2
 8003ba2:	611a      	str	r2, [r3, #16]
#if (USE_HAL_TIM_REGISTER_CALLBACKS == 1)
      htim->BreakCallback(htim);
#else
      HAL_TIMEx_BreakCallback(htim);
 8003ba4:	687b      	ldr	r3, [r7, #4]
 8003ba6:	0018      	movs	r0, r3
 8003ba8:	f000 fc20 	bl	80043ec <HAL_TIMEx_BreakCallback>
#endif /* USE_HAL_TIM_REGISTER_CALLBACKS */
    }
  }
  /* TIM Trigger detection event */
  if ((itflag & (TIM_FLAG_TRIGGER)) == (TIM_FLAG_TRIGGER))
 8003bac:	68bb      	ldr	r3, [r7, #8]
 8003bae:	2240      	movs	r2, #64	@ 0x40
 8003bb0:	4013      	ands	r3, r2
 8003bb2:	d00c      	beq.n	8003bce <HAL_TIM_IRQHandler+0x1b2>
  {
    if ((itsource & (TIM_IT_TRIGGER)) == (TIM_IT_TRIGGER))
 8003bb4:	68fb      	ldr	r3, [r7, #12]
 8003bb6:	2240      	movs	r2, #64	@ 0x40
 8003bb8:	4013      	ands	r3, r2
 8003bba:	d008      	beq.n	8003bce <HAL_TIM_IRQHandler+0x1b2>
    {
      __HAL_TIM_CLEAR_FLAG(htim, TIM_FLAG_TRIGGER);
 8003bbc:	687b      	ldr	r3, [r7, #4]
 8003bbe:	681b      	ldr	r3, [r3, #0]
 8003bc0:	2241      	movs	r2, #65	@ 0x41
 8003bc2:	4252      	negs	r2, r2
 8003bc4:	611a      	str	r2, [r3, #16]
#if (USE_HAL_TIM_REGISTER_CALLBACKS == 1)
      htim->TriggerCallback(htim);
#else
      HAL_TIM_TriggerCallback(htim);
 8003bc6:	687b      	ldr	r3, [r7, #4]
 8003bc8:	0018      	movs	r0, r3
 8003bca:	f000 f8f3 	bl	8003db4 <HAL_TIM_TriggerCallback>
#endif /* USE_HAL_TIM_REGISTER_CALLBACKS */
    }
  }
  /* TIM commutation event */
  if ((itflag & (TIM_FLAG_COM)) == (TIM_FLAG_COM))
 8003bce:	68bb      	ldr	r3, [r7, #8]
 8003bd0:	2220      	movs	r2, #32
 8003bd2:	4013      	ands	r3, r2
 8003bd4:	d00c      	beq.n	8003bf0 <HAL_TIM_IRQHandler+0x1d4>
  {
    if ((itsource & (TIM_IT_COM)) == (TIM_IT_COM))
 8003bd6:	68fb      	ldr	r3, [r7, #12]
 8003bd8:	2220      	movs	r2, #32
 8003bda:	4013      	ands	r3, r2
 8003bdc:	d008      	beq.n	8003bf0 <HAL_TIM_IRQHandler+0x1d4>
    {
      __HAL_TIM_CLEAR_FLAG(htim, TIM_FLAG_COM);
 8003bde:	687b      	ldr	r3, [r7, #4]
 8003be0:	681b      	ldr	r3, [r3, #0]
 8003be2:	2221      	movs	r2, #33	@ 0x21
 8003be4:	4252      	negs	r2, r2
 8003be6:	611a      	str	r2, [r3, #16]
#if (USE_HAL_TIM_REGISTER_CALLBACKS == 1)
      htim->CommutationCallback(htim);
#else
      HAL_TIMEx_CommutCallback(htim);
 8003be8:	687b      	ldr	r3, [r7, #4]
 8003bea:	0018      	movs	r0, r3
 8003bec:	f000 fbf6 	bl	80043dc <HAL_TIMEx_CommutCallback>
#endif /* USE_HAL_TIM_REGISTER_CALLBACKS */
    }
  }
}
 8003bf0:	46c0      	nop			@ (mov r8, r8)
 8003bf2:	46bd      	mov	sp, r7
 8003bf4:	b004      	add	sp, #16
 8003bf6:	bd80      	pop	{r7, pc}

08003bf8 <HAL_TIM_PWM_ConfigChannel>:
  * @retval HAL status
  */
HAL_StatusTypeDef HAL_TIM_PWM_ConfigChannel(TIM_HandleTypeDef *htim,
                                            const TIM_OC_InitTypeDef *sConfig,
                                            uint32_t Channel)
{
 8003bf8:	b580      	push	{r7, lr}
 8003bfa:	b086      	sub	sp, #24
 8003bfc:	af00      	add	r7, sp, #0
 8003bfe:	60f8      	str	r0, [r7, #12]
 8003c00:	60b9      	str	r1, [r7, #8]
 8003c02:	607a      	str	r2, [r7, #4]
  HAL_StatusTypeDef status = HAL_OK;
 8003c04:	2317      	movs	r3, #23
 8003c06:	18fb      	adds	r3, r7, r3
 8003c08:	2200      	movs	r2, #0
 8003c0a:	701a      	strb	r2, [r3, #0]
  assert_param(IS_TIM_PWM_MODE(sConfig->OCMode));
  assert_param(IS_TIM_OC_POLARITY(sConfig->OCPolarity));
  assert_param(IS_TIM_FAST_STATE(sConfig->OCFastMode));

  /* Process Locked */
  __HAL_LOCK(htim);
 8003c0c:	68fb      	ldr	r3, [r7, #12]
 8003c0e:	223c      	movs	r2, #60	@ 0x3c
 8003c10:	5c9b      	ldrb	r3, [r3, r2]
 8003c12:	2b01      	cmp	r3, #1
 8003c14:	d101      	bne.n	8003c1a <HAL_TIM_PWM_ConfigChannel+0x22>
 8003c16:	2302      	movs	r3, #2
 8003c18:	e0ad      	b.n	8003d76 <HAL_TIM_PWM_ConfigChannel+0x17e>
 8003c1a:	68fb      	ldr	r3, [r7, #12]
 8003c1c:	223c      	movs	r2, #60	@ 0x3c
 8003c1e:	2101      	movs	r1, #1
 8003c20:	5499      	strb	r1, [r3, r2]

  switch (Channel)
 8003c22:	687b      	ldr	r3, [r7, #4]
 8003c24:	2b0c      	cmp	r3, #12
 8003c26:	d100      	bne.n	8003c2a <HAL_TIM_PWM_ConfigChannel+0x32>
 8003c28:	e076      	b.n	8003d18 <HAL_TIM_PWM_ConfigChannel+0x120>
 8003c2a:	687b      	ldr	r3, [r7, #4]
 8003c2c:	2b0c      	cmp	r3, #12
 8003c2e:	d900      	bls.n	8003c32 <HAL_TIM_PWM_ConfigChannel+0x3a>
 8003c30:	e095      	b.n	8003d5e <HAL_TIM_PWM_ConfigChannel+0x166>
 8003c32:	687b      	ldr	r3, [r7, #4]
 8003c34:	2b08      	cmp	r3, #8
 8003c36:	d04e      	beq.n	8003cd6 <HAL_TIM_PWM_ConfigChannel+0xde>
 8003c38:	687b      	ldr	r3, [r7, #4]
 8003c3a:	2b08      	cmp	r3, #8
 8003c3c:	d900      	bls.n	8003c40 <HAL_TIM_PWM_ConfigChannel+0x48>
 8003c3e:	e08e      	b.n	8003d5e <HAL_TIM_PWM_ConfigChannel+0x166>
 8003c40:	687b      	ldr	r3, [r7, #4]
 8003c42:	2b00      	cmp	r3, #0
 8003c44:	d003      	beq.n	8003c4e <HAL_TIM_PWM_ConfigChannel+0x56>
 8003c46:	687b      	ldr	r3, [r7, #4]
 8003c48:	2b04      	cmp	r3, #4
 8003c4a:	d021      	beq.n	8003c90 <HAL_TIM_PWM_ConfigChannel+0x98>
 8003c4c:	e087      	b.n	8003d5e <HAL_TIM_PWM_ConfigChannel+0x166>
    {
      /* Check the parameters */
      assert_param(IS_TIM_CC1_INSTANCE(htim->Instance));

      /* Configure the Channel 1 in PWM mode */
      TIM_OC1_SetConfig(htim->Instance, sConfig);
 8003c4e:	68fb      	ldr	r3, [r7, #12]
 8003c50:	681b      	ldr	r3, [r3, #0]
 8003c52:	68ba      	ldr	r2, [r7, #8]
 8003c54:	0011      	movs	r1, r2
 8003c56:	0018      	movs	r0, r3
 8003c58:	f000 f942 	bl	8003ee0 <TIM_OC1_SetConfig>

      /* Set the Preload enable bit for channel1 */
      htim->Instance->CCMR1 |= TIM_CCMR1_OC1PE;
 8003c5c:	68fb      	ldr	r3, [r7, #12]
 8003c5e:	681b      	ldr	r3, [r3, #0]
 8003c60:	699a      	ldr	r2, [r3, #24]
 8003c62:	68fb      	ldr	r3, [r7, #12]
 8003c64:	681b      	ldr	r3, [r3, #0]
 8003c66:	2108      	movs	r1, #8
 8003c68:	430a      	orrs	r2, r1
 8003c6a:	619a      	str	r2, [r3, #24]

      /* Configure the Output Fast mode */
      htim->Instance->CCMR1 &= ~TIM_CCMR1_OC1FE;
 8003c6c:	68fb      	ldr	r3, [r7, #12]
 8003c6e:	681b      	ldr	r3, [r3, #0]
 8003c70:	699a      	ldr	r2, [r3, #24]
 8003c72:	68fb      	ldr	r3, [r7, #12]
 8003c74:	681b      	ldr	r3, [r3, #0]
 8003c76:	2104      	movs	r1, #4
 8003c78:	438a      	bics	r2, r1
 8003c7a:	619a      	str	r2, [r3, #24]
      htim->Instance->CCMR1 |= sConfig->OCFastMode;
 8003c7c:	68fb      	ldr	r3, [r7, #12]
 8003c7e:	681b      	ldr	r3, [r3, #0]
 8003c80:	6999      	ldr	r1, [r3, #24]
 8003c82:	68bb      	ldr	r3, [r7, #8]
 8003c84:	691a      	ldr	r2, [r3, #16]
 8003c86:	68fb      	ldr	r3, [r7, #12]
 8003c88:	681b      	ldr	r3, [r3, #0]
 8003c8a:	430a      	orrs	r2, r1
 8003c8c:	619a      	str	r2, [r3, #24]
      break;
 8003c8e:	e06b      	b.n	8003d68 <HAL_TIM_PWM_ConfigChannel+0x170>
    {
      /* Check the parameters */
      assert_param(IS_TIM_CC2_INSTANCE(htim->Instance));

      /* Configure the Channel 2 in PWM mode */
      TIM_OC2_SetConfig(htim->Instance, sConfig);
 8003c90:	68fb      	ldr	r3, [r7, #12]
 8003c92:	681b      	ldr	r3, [r3, #0]
 8003c94:	68ba      	ldr	r2, [r7, #8]
 8003c96:	0011      	movs	r1, r2
 8003c98:	0018      	movs	r0, r3
 8003c9a:	f000 f9a9 	bl	8003ff0 <TIM_OC2_SetConfig>

      /* Set the Preload enable bit for channel2 */
      htim->Instance->CCMR1 |= TIM_CCMR1_OC2PE;
 8003c9e:	68fb      	ldr	r3, [r7, #12]
 8003ca0:	681b      	ldr	r3, [r3, #0]
 8003ca2:	699a      	ldr	r2, [r3, #24]
 8003ca4:	68fb      	ldr	r3, [r7, #12]
 8003ca6:	681b      	ldr	r3, [r3, #0]
 8003ca8:	2180      	movs	r1, #128	@ 0x80
 8003caa:	0109      	lsls	r1, r1, #4
 8003cac:	430a      	orrs	r2, r1
 8003cae:	619a      	str	r2, [r3, #24]

      /* Configure the Output Fast mode */
      htim->Instance->CCMR1 &= ~TIM_CCMR1_OC2FE;
 8003cb0:	68fb      	ldr	r3, [r7, #12]
 8003cb2:	681b      	ldr	r3, [r3, #0]
 8003cb4:	699a      	ldr	r2, [r3, #24]
 8003cb6:	68fb      	ldr	r3, [r7, #12]
 8003cb8:	681b      	ldr	r3, [r3, #0]
 8003cba:	4931      	ldr	r1, [pc, #196]	@ (8003d80 <HAL_TIM_PWM_ConfigChannel+0x188>)
 8003cbc:	400a      	ands	r2, r1
 8003cbe:	619a      	str	r2, [r3, #24]
      htim->Instance->CCMR1 |= sConfig->OCFastMode << 8U;
 8003cc0:	68fb      	ldr	r3, [r7, #12]
 8003cc2:	681b      	ldr	r3, [r3, #0]
 8003cc4:	6999      	ldr	r1, [r3, #24]
 8003cc6:	68bb      	ldr	r3, [r7, #8]
 8003cc8:	691b      	ldr	r3, [r3, #16]
 8003cca:	021a      	lsls	r2, r3, #8
 8003ccc:	68fb      	ldr	r3, [r7, #12]
 8003cce:	681b      	ldr	r3, [r3, #0]
 8003cd0:	430a      	orrs	r2, r1
 8003cd2:	619a      	str	r2, [r3, #24]
      break;
 8003cd4:	e048      	b.n	8003d68 <HAL_TIM_PWM_ConfigChannel+0x170>
    {
      /* Check the parameters */
      assert_param(IS_TIM_CC3_INSTANCE(htim->Instance));

      /* Configure the Channel 3 in PWM mode */
      TIM_OC3_SetConfig(htim->Instance, sConfig);
 8003cd6:	68fb      	ldr	r3, [r7, #12]
 8003cd8:	681b      	ldr	r3, [r3, #0]
 8003cda:	68ba      	ldr	r2, [r7, #8]
 8003cdc:	0011      	movs	r1, r2
 8003cde:	0018      	movs	r0, r3
 8003ce0:	f000 fa0a 	bl	80040f8 <TIM_OC3_SetConfig>

      /* Set the Preload enable bit for channel3 */
      htim->Instance->CCMR2 |= TIM_CCMR2_OC3PE;
 8003ce4:	68fb      	ldr	r3, [r7, #12]
 8003ce6:	681b      	ldr	r3, [r3, #0]
 8003ce8:	69da      	ldr	r2, [r3, #28]
 8003cea:	68fb      	ldr	r3, [r7, #12]
 8003cec:	681b      	ldr	r3, [r3, #0]
 8003cee:	2108      	movs	r1, #8
 8003cf0:	430a      	orrs	r2, r1
 8003cf2:	61da      	str	r2, [r3, #28]

      /* Configure the Output Fast mode */
      htim->Instance->CCMR2 &= ~TIM_CCMR2_OC3FE;
 8003cf4:	68fb      	ldr	r3, [r7, #12]
 8003cf6:	681b      	ldr	r3, [r3, #0]
 8003cf8:	69da      	ldr	r2, [r3, #28]
 8003cfa:	68fb      	ldr	r3, [r7, #12]
 8003cfc:	681b      	ldr	r3, [r3, #0]
 8003cfe:	2104      	movs	r1, #4
 8003d00:	438a      	bics	r2, r1
 8003d02:	61da      	str	r2, [r3, #28]
      htim->Instance->CCMR2 |= sConfig->OCFastMode;
 8003d04:	68fb      	ldr	r3, [r7, #12]
 8003d06:	681b      	ldr	r3, [r3, #0]
 8003d08:	69d9      	ldr	r1, [r3, #28]
 8003d0a:	68bb      	ldr	r3, [r7, #8]
 8003d0c:	691a      	ldr	r2, [r3, #16]
 8003d0e:	68fb      	ldr	r3, [r7, #12]
 8003d10:	681b      	ldr	r3, [r3, #0]
 8003d12:	430a      	orrs	r2, r1
 8003d14:	61da      	str	r2, [r3, #28]
      break;
 8003d16:	e027      	b.n	8003d68 <HAL_TIM_PWM_ConfigChannel+0x170>
    {
      /* Check the parameters */
      assert_param(IS_TIM_CC4_INSTANCE(htim->Instance));

      /* Configure the Channel 4 in PWM mode */
      TIM_OC4_SetConfig(htim->Instance, sConfig);
 8003d18:	68fb      	ldr	r3, [r7, #12]
 8003d1a:	681b      	ldr	r3, [r3, #0]
 8003d1c:	68ba      	ldr	r2, [r7, #8]
 8003d1e:	0011      	movs	r1, r2
 8003d20:	0018      	movs	r0, r3
 8003d22:	f000 fa6f 	bl	8004204 <TIM_OC4_SetConfig>

      /* Set the Preload enable bit for channel4 */
      htim->Instance->CCMR2 |= TIM_CCMR2_OC4PE;
 8003d26:	68fb      	ldr	r3, [r7, #12]
 8003d28:	681b      	ldr	r3, [r3, #0]
 8003d2a:	69da      	ldr	r2, [r3, #28]
 8003d2c:	68fb      	ldr	r3, [r7, #12]
 8003d2e:	681b      	ldr	r3, [r3, #0]
 8003d30:	2180      	movs	r1, #128	@ 0x80
 8003d32:	0109      	lsls	r1, r1, #4
 8003d34:	430a      	orrs	r2, r1
 8003d36:	61da      	str	r2, [r3, #28]

      /* Configure the Output Fast mode */
      htim->Instance->CCMR2 &= ~TIM_CCMR2_OC4FE;
 8003d38:	68fb      	ldr	r3, [r7, #12]
 8003d3a:	681b      	ldr	r3, [r3, #0]
 8003d3c:	69da      	ldr	r2, [r3, #28]
 8003d3e:	68fb      	ldr	r3, [r7, #12]
 8003d40:	681b      	ldr	r3, [r3, #0]
 8003d42:	490f      	ldr	r1, [pc, #60]	@ (8003d80 <HAL_TIM_PWM_ConfigChannel+0x188>)
 8003d44:	400a      	ands	r2, r1
 8003d46:	61da      	str	r2, [r3, #28]
      htim->Instance->CCMR2 |= sConfig->OCFastMode << 8U;
 8003d48:	68fb      	ldr	r3, [r7, #12]
 8003d4a:	681b      	ldr	r3, [r3, #0]
 8003d4c:	69d9      	ldr	r1, [r3, #28]
 8003d4e:	68bb      	ldr	r3, [r7, #8]
 8003d50:	691b      	ldr	r3, [r3, #16]
 8003d52:	021a      	lsls	r2, r3, #8
 8003d54:	68fb      	ldr	r3, [r7, #12]
 8003d56:	681b      	ldr	r3, [r3, #0]
 8003d58:	430a      	orrs	r2, r1
 8003d5a:	61da      	str	r2, [r3, #28]
      break;
 8003d5c:	e004      	b.n	8003d68 <HAL_TIM_PWM_ConfigChannel+0x170>
    }

    default:
      status = HAL_ERROR;
 8003d5e:	2317      	movs	r3, #23
 8003d60:	18fb      	adds	r3, r7, r3
 8003d62:	2201      	movs	r2, #1
 8003d64:	701a      	strb	r2, [r3, #0]
      break;
 8003d66:	46c0      	nop			@ (mov r8, r8)
  }

  __HAL_UNLOCK(htim);
 8003d68:	68fb      	ldr	r3, [r7, #12]
 8003d6a:	223c      	movs	r2, #60	@ 0x3c
 8003d6c:	2100      	movs	r1, #0
 8003d6e:	5499      	strb	r1, [r3, r2]

  return status;
 8003d70:	2317      	movs	r3, #23
 8003d72:	18fb      	adds	r3, r7, r3
 8003d74:	781b      	ldrb	r3, [r3, #0]
}
 8003d76:	0018      	movs	r0, r3
 8003d78:	46bd      	mov	sp, r7
 8003d7a:	b006      	add	sp, #24
 8003d7c:	bd80      	pop	{r7, pc}
 8003d7e:	46c0      	nop			@ (mov r8, r8)
 8003d80:	fffffbff 	.word	0xfffffbff

08003d84 <HAL_TIM_OC_DelayElapsedCallback>:
  * @brief  Output Compare callback in non-blocking mode
  * @param  htim TIM OC handle
  * @retval None
  */
__weak void HAL_TIM_OC_DelayElapsedCallback(TIM_HandleTypeDef *htim)
{
 8003d84:	b580      	push	{r7, lr}
 8003d86:	b082      	sub	sp, #8
 8003d88:	af00      	add	r7, sp, #0
 8003d8a:	6078      	str	r0, [r7, #4]
  UNUSED(htim);

  /* NOTE : This function should not be modified, when the callback is needed,
            the HAL_TIM_OC_DelayElapsedCallback could be implemented in the user file
   */
}
 8003d8c:	46c0      	nop			@ (mov r8, r8)
 8003d8e:	46bd      	mov	sp, r7
 8003d90:	b002      	add	sp, #8
 8003d92:	bd80      	pop	{r7, pc}

08003d94 <HAL_TIM_IC_CaptureCallback>:
  * @brief  Input Capture callback in non-blocking mode
  * @param  htim TIM IC handle
  * @retval None
  */
__weak void HAL_TIM_IC_CaptureCallback(TIM_HandleTypeDef *htim)
{
 8003d94:	b580      	push	{r7, lr}
 8003d96:	b082      	sub	sp, #8
 8003d98:	af00      	add	r7, sp, #0
 8003d9a:	6078      	str	r0, [r7, #4]
  UNUSED(htim);

  /* NOTE : This function should not be modified, when the callback is needed,
            the HAL_TIM_IC_CaptureCallback could be implemented in the user file
   */
}
 8003d9c:	46c0      	nop			@ (mov r8, r8)
 8003d9e:	46bd      	mov	sp, r7
 8003da0:	b002      	add	sp, #8
 8003da2:	bd80      	pop	{r7, pc}

08003da4 <HAL_TIM_PWM_PulseFinishedCallback>:
  * @brief  PWM Pulse finished callback in non-blocking mode
  * @param  htim TIM handle
  * @retval None
  */
__weak void HAL_TIM_PWM_PulseFinishedCallback(TIM_HandleTypeDef *htim)
{
 8003da4:	b580      	push	{r7, lr}
 8003da6:	b082      	sub	sp, #8
 8003da8:	af00      	add	r7, sp, #0
 8003daa:	6078      	str	r0, [r7, #4]
  UNUSED(htim);

  /* NOTE : This function should not be modified, when the callback is needed,
            the HAL_TIM_PWM_PulseFinishedCallback could be implemented in the user file
   */
}
 8003dac:	46c0      	nop			@ (mov r8, r8)
 8003dae:	46bd      	mov	sp, r7
 8003db0:	b002      	add	sp, #8
 8003db2:	bd80      	pop	{r7, pc}

08003db4 <HAL_TIM_TriggerCallback>:
  * @brief  Hall Trigger detection callback in non-blocking mode
  * @param  htim TIM handle
  * @retval None
  */
__weak void HAL_TIM_TriggerCallback(TIM_HandleTypeDef *htim)
{
 8003db4:	b580      	push	{r7, lr}
 8003db6:	b082      	sub	sp, #8
 8003db8:	af00      	add	r7, sp, #0
 8003dba:	6078      	str	r0, [r7, #4]
  UNUSED(htim);

  /* NOTE : This function should not be modified, when the callback is needed,
            the HAL_TIM_TriggerCallback could be implemented in the user file
   */
}
 8003dbc:	46c0      	nop			@ (mov r8, r8)
 8003dbe:	46bd      	mov	sp, r7
 8003dc0:	b002      	add	sp, #8
 8003dc2:	bd80      	pop	{r7, pc}

08003dc4 <TIM_Base_SetConfig>:
  * @param  TIMx TIM peripheral
  * @param  Structure TIM Base configuration structure
  * @retval None
  */
void TIM_Base_SetConfig(TIM_TypeDef *TIMx, const TIM_Base_InitTypeDef *Structure)
{
 8003dc4:	b580      	push	{r7, lr}
 8003dc6:	b084      	sub	sp, #16
 8003dc8:	af00      	add	r7, sp, #0
 8003dca:	6078      	str	r0, [r7, #4]
 8003dcc:	6039      	str	r1, [r7, #0]
  uint32_t tmpcr1;
  tmpcr1 = TIMx->CR1;
 8003dce:	687b      	ldr	r3, [r7, #4]
 8003dd0:	681b      	ldr	r3, [r3, #0]
 8003dd2:	60fb      	str	r3, [r7, #12]

  /* Set TIM Time Base Unit parameters ---------------------------------------*/
  if (IS_TIM_COUNTER_MODE_SELECT_INSTANCE(TIMx))
 8003dd4:	687b      	ldr	r3, [r7, #4]
 8003dd6:	4a3b      	ldr	r2, [pc, #236]	@ (8003ec4 <TIM_Base_SetConfig+0x100>)
 8003dd8:	4293      	cmp	r3, r2
 8003dda:	d008      	beq.n	8003dee <TIM_Base_SetConfig+0x2a>
 8003ddc:	687a      	ldr	r2, [r7, #4]
 8003dde:	2380      	movs	r3, #128	@ 0x80
 8003de0:	05db      	lsls	r3, r3, #23
 8003de2:	429a      	cmp	r2, r3
 8003de4:	d003      	beq.n	8003dee <TIM_Base_SetConfig+0x2a>
 8003de6:	687b      	ldr	r3, [r7, #4]
 8003de8:	4a37      	ldr	r2, [pc, #220]	@ (8003ec8 <TIM_Base_SetConfig+0x104>)
 8003dea:	4293      	cmp	r3, r2
 8003dec:	d108      	bne.n	8003e00 <TIM_Base_SetConfig+0x3c>
  {
    /* Select the Counter Mode */
    tmpcr1 &= ~(TIM_CR1_DIR | TIM_CR1_CMS);
 8003dee:	68fb      	ldr	r3, [r7, #12]
 8003df0:	2270      	movs	r2, #112	@ 0x70
 8003df2:	4393      	bics	r3, r2
 8003df4:	60fb      	str	r3, [r7, #12]
    tmpcr1 |= Structure->CounterMode;
 8003df6:	683b      	ldr	r3, [r7, #0]
 8003df8:	685b      	ldr	r3, [r3, #4]
 8003dfa:	68fa      	ldr	r2, [r7, #12]
 8003dfc:	4313      	orrs	r3, r2
 8003dfe:	60fb      	str	r3, [r7, #12]
  }

  if (IS_TIM_CLOCK_DIVISION_INSTANCE(TIMx))
 8003e00:	687b      	ldr	r3, [r7, #4]
 8003e02:	4a30      	ldr	r2, [pc, #192]	@ (8003ec4 <TIM_Base_SetConfig+0x100>)
 8003e04:	4293      	cmp	r3, r2
 8003e06:	d018      	beq.n	8003e3a <TIM_Base_SetConfig+0x76>
 8003e08:	687a      	ldr	r2, [r7, #4]
 8003e0a:	2380      	movs	r3, #128	@ 0x80
 8003e0c:	05db      	lsls	r3, r3, #23
 8003e0e:	429a      	cmp	r2, r3
 8003e10:	d013      	beq.n	8003e3a <TIM_Base_SetConfig+0x76>
 8003e12:	687b      	ldr	r3, [r7, #4]
 8003e14:	4a2c      	ldr	r2, [pc, #176]	@ (8003ec8 <TIM_Base_SetConfig+0x104>)
 8003e16:	4293      	cmp	r3, r2
 8003e18:	d00f      	beq.n	8003e3a <TIM_Base_SetConfig+0x76>
 8003e1a:	687b      	ldr	r3, [r7, #4]
 8003e1c:	4a2b      	ldr	r2, [pc, #172]	@ (8003ecc <TIM_Base_SetConfig+0x108>)
 8003e1e:	4293      	cmp	r3, r2
 8003e20:	d00b      	beq.n	8003e3a <TIM_Base_SetConfig+0x76>
 8003e22:	687b      	ldr	r3, [r7, #4]
 8003e24:	4a2a      	ldr	r2, [pc, #168]	@ (8003ed0 <TIM_Base_SetConfig+0x10c>)
 8003e26:	4293      	cmp	r3, r2
 8003e28:	d007      	beq.n	8003e3a <TIM_Base_SetConfig+0x76>
 8003e2a:	687b      	ldr	r3, [r7, #4]
 8003e2c:	4a29      	ldr	r2, [pc, #164]	@ (8003ed4 <TIM_Base_SetConfig+0x110>)
 8003e2e:	4293      	cmp	r3, r2
 8003e30:	d003      	beq.n	8003e3a <TIM_Base_SetConfig+0x76>
 8003e32:	687b      	ldr	r3, [r7, #4]
 8003e34:	4a28      	ldr	r2, [pc, #160]	@ (8003ed8 <TIM_Base_SetConfig+0x114>)
 8003e36:	4293      	cmp	r3, r2
 8003e38:	d108      	bne.n	8003e4c <TIM_Base_SetConfig+0x88>
  {
    /* Set the clock division */
    tmpcr1 &= ~TIM_CR1_CKD;
 8003e3a:	68fb      	ldr	r3, [r7, #12]
 8003e3c:	4a27      	ldr	r2, [pc, #156]	@ (8003edc <TIM_Base_SetConfig+0x118>)
 8003e3e:	4013      	ands	r3, r2
 8003e40:	60fb      	str	r3, [r7, #12]
    tmpcr1 |= (uint32_t)Structure->ClockDivision;
 8003e42:	683b      	ldr	r3, [r7, #0]
 8003e44:	68db      	ldr	r3, [r3, #12]
 8003e46:	68fa      	ldr	r2, [r7, #12]
 8003e48:	4313      	orrs	r3, r2
 8003e4a:	60fb      	str	r3, [r7, #12]
  }

  /* Set the auto-reload preload */
  MODIFY_REG(tmpcr1, TIM_CR1_ARPE, Structure->AutoReloadPreload);
 8003e4c:	68fb      	ldr	r3, [r7, #12]
 8003e4e:	2280      	movs	r2, #128	@ 0x80
 8003e50:	4393      	bics	r3, r2
 8003e52:	001a      	movs	r2, r3
 8003e54:	683b      	ldr	r3, [r7, #0]
 8003e56:	695b      	ldr	r3, [r3, #20]
 8003e58:	4313      	orrs	r3, r2
 8003e5a:	60fb      	str	r3, [r7, #12]

  TIMx->CR1 = tmpcr1;
 8003e5c:	687b      	ldr	r3, [r7, #4]
 8003e5e:	68fa      	ldr	r2, [r7, #12]
 8003e60:	601a      	str	r2, [r3, #0]

  /* Set the Autoreload value */
  TIMx->ARR = (uint32_t)Structure->Period ;
 8003e62:	683b      	ldr	r3, [r7, #0]
 8003e64:	689a      	ldr	r2, [r3, #8]
 8003e66:	687b      	ldr	r3, [r7, #4]
 8003e68:	62da      	str	r2, [r3, #44]	@ 0x2c

  /* Set the Prescaler value */
  TIMx->PSC = Structure->Prescaler;
 8003e6a:	683b      	ldr	r3, [r7, #0]
 8003e6c:	681a      	ldr	r2, [r3, #0]
 8003e6e:	687b      	ldr	r3, [r7, #4]
 8003e70:	629a      	str	r2, [r3, #40]	@ 0x28

  if (IS_TIM_REPETITION_COUNTER_INSTANCE(TIMx))
 8003e72:	687b      	ldr	r3, [r7, #4]
 8003e74:	4a13      	ldr	r2, [pc, #76]	@ (8003ec4 <TIM_Base_SetConfig+0x100>)
 8003e76:	4293      	cmp	r3, r2
 8003e78:	d00b      	beq.n	8003e92 <TIM_Base_SetConfig+0xce>
 8003e7a:	687b      	ldr	r3, [r7, #4]
 8003e7c:	4a14      	ldr	r2, [pc, #80]	@ (8003ed0 <TIM_Base_SetConfig+0x10c>)
 8003e7e:	4293      	cmp	r3, r2
 8003e80:	d007      	beq.n	8003e92 <TIM_Base_SetConfig+0xce>
 8003e82:	687b      	ldr	r3, [r7, #4]
 8003e84:	4a13      	ldr	r2, [pc, #76]	@ (8003ed4 <TIM_Base_SetConfig+0x110>)
 8003e86:	4293      	cmp	r3, r2
 8003e88:	d003      	beq.n	8003e92 <TIM_Base_SetConfig+0xce>
 8003e8a:	687b      	ldr	r3, [r7, #4]
 8003e8c:	4a12      	ldr	r2, [pc, #72]	@ (8003ed8 <TIM_Base_SetConfig+0x114>)
 8003e8e:	4293      	cmp	r3, r2
 8003e90:	d103      	bne.n	8003e9a <TIM_Base_SetConfig+0xd6>
  {
    /* Set the Repetition Counter value */
    TIMx->RCR = Structure->RepetitionCounter;
 8003e92:	683b      	ldr	r3, [r7, #0]
 8003e94:	691a      	ldr	r2, [r3, #16]
 8003e96:	687b      	ldr	r3, [r7, #4]
 8003e98:	631a      	str	r2, [r3, #48]	@ 0x30
  }

  /* Generate an update event to reload the Prescaler
     and the repetition counter (only for advanced timer) value immediately */
  TIMx->EGR = TIM_EGR_UG;
 8003e9a:	687b      	ldr	r3, [r7, #4]
 8003e9c:	2201      	movs	r2, #1
 8003e9e:	615a      	str	r2, [r3, #20]

  /* Check if the update flag is set after the Update Generation, if so clear the UIF flag */
  if (HAL_IS_BIT_SET(TIMx->SR, TIM_FLAG_UPDATE))
 8003ea0:	687b      	ldr	r3, [r7, #4]
 8003ea2:	691b      	ldr	r3, [r3, #16]
 8003ea4:	2201      	movs	r2, #1
 8003ea6:	4013      	ands	r3, r2
 8003ea8:	2b01      	cmp	r3, #1
 8003eaa:	d106      	bne.n	8003eba <TIM_Base_SetConfig+0xf6>
  {
    /* Clear the update flag */
    CLEAR_BIT(TIMx->SR, TIM_FLAG_UPDATE);
 8003eac:	687b      	ldr	r3, [r7, #4]
 8003eae:	691b      	ldr	r3, [r3, #16]
 8003eb0:	2201      	movs	r2, #1
 8003eb2:	4393      	bics	r3, r2
 8003eb4:	001a      	movs	r2, r3
 8003eb6:	687b      	ldr	r3, [r7, #4]
 8003eb8:	611a      	str	r2, [r3, #16]
  }
}
 8003eba:	46c0      	nop			@ (mov r8, r8)
 8003ebc:	46bd      	mov	sp, r7
 8003ebe:	b004      	add	sp, #16
 8003ec0:	bd80      	pop	{r7, pc}
 8003ec2:	46c0      	nop			@ (mov r8, r8)
 8003ec4:	40012c00 	.word	0x40012c00
 8003ec8:	40000400 	.word	0x40000400
 8003ecc:	40002000 	.word	0x40002000
 8003ed0:	40014000 	.word	0x40014000
 8003ed4:	40014400 	.word	0x40014400
 8003ed8:	40014800 	.word	0x40014800
 8003edc:	fffffcff 	.word	0xfffffcff

08003ee0 <TIM_OC1_SetConfig>:
  * @param  TIMx to select the TIM peripheral
  * @param  OC_Config The output configuration structure
  * @retval None
  */
static void TIM_OC1_SetConfig(TIM_TypeDef *TIMx, const TIM_OC_InitTypeDef *OC_Config)
{
 8003ee0:	b580      	push	{r7, lr}
 8003ee2:	b086      	sub	sp, #24
 8003ee4:	af00      	add	r7, sp, #0
 8003ee6:	6078      	str	r0, [r7, #4]
 8003ee8:	6039      	str	r1, [r7, #0]
  uint32_t tmpccmrx;
  uint32_t tmpccer;
  uint32_t tmpcr2;

  /* Get the TIMx CCER register value */
  tmpccer = TIMx->CCER;
 8003eea:	687b      	ldr	r3, [r7, #4]
 8003eec:	6a1b      	ldr	r3, [r3, #32]
 8003eee:	617b      	str	r3, [r7, #20]

  /* Disable the Channel 1: Reset the CC1E Bit */
  TIMx->CCER &= ~TIM_CCER_CC1E;
 8003ef0:	687b      	ldr	r3, [r7, #4]
 8003ef2:	6a1b      	ldr	r3, [r3, #32]
 8003ef4:	2201      	movs	r2, #1
 8003ef6:	4393      	bics	r3, r2
 8003ef8:	001a      	movs	r2, r3
 8003efa:	687b      	ldr	r3, [r7, #4]
 8003efc:	621a      	str	r2, [r3, #32]

  /* Get the TIMx CR2 register value */
  tmpcr2 =  TIMx->CR2;
 8003efe:	687b      	ldr	r3, [r7, #4]
 8003f00:	685b      	ldr	r3, [r3, #4]
 8003f02:	613b      	str	r3, [r7, #16]

  /* Get the TIMx CCMR1 register value */
  tmpccmrx = TIMx->CCMR1;
 8003f04:	687b      	ldr	r3, [r7, #4]
 8003f06:	699b      	ldr	r3, [r3, #24]
 8003f08:	60fb      	str	r3, [r7, #12]

  /* Reset the Output Compare Mode Bits */
  tmpccmrx &= ~TIM_CCMR1_OC1M;
 8003f0a:	68fb      	ldr	r3, [r7, #12]
 8003f0c:	2270      	movs	r2, #112	@ 0x70
 8003f0e:	4393      	bics	r3, r2
 8003f10:	60fb      	str	r3, [r7, #12]
  tmpccmrx &= ~TIM_CCMR1_CC1S;
 8003f12:	68fb      	ldr	r3, [r7, #12]
 8003f14:	2203      	movs	r2, #3
 8003f16:	4393      	bics	r3, r2
 8003f18:	60fb      	str	r3, [r7, #12]
  /* Select the Output Compare Mode */
  tmpccmrx |= OC_Config->OCMode;
 8003f1a:	683b      	ldr	r3, [r7, #0]
 8003f1c:	681b      	ldr	r3, [r3, #0]
 8003f1e:	68fa      	ldr	r2, [r7, #12]
 8003f20:	4313      	orrs	r3, r2
 8003f22:	60fb      	str	r3, [r7, #12]

  /* Reset the Output Polarity level */
  tmpccer &= ~TIM_CCER_CC1P;
 8003f24:	697b      	ldr	r3, [r7, #20]
 8003f26:	2202      	movs	r2, #2
 8003f28:	4393      	bics	r3, r2
 8003f2a:	617b      	str	r3, [r7, #20]
  /* Set the Output Compare Polarity */
  tmpccer |= OC_Config->OCPolarity;
 8003f2c:	683b      	ldr	r3, [r7, #0]
 8003f2e:	689b      	ldr	r3, [r3, #8]
 8003f30:	697a      	ldr	r2, [r7, #20]
 8003f32:	4313      	orrs	r3, r2
 8003f34:	617b      	str	r3, [r7, #20]

  if (IS_TIM_CCXN_INSTANCE(TIMx, TIM_CHANNEL_1))
 8003f36:	687b      	ldr	r3, [r7, #4]
 8003f38:	4a27      	ldr	r2, [pc, #156]	@ (8003fd8 <TIM_OC1_SetConfig+0xf8>)
 8003f3a:	4293      	cmp	r3, r2
 8003f3c:	d00b      	beq.n	8003f56 <TIM_OC1_SetConfig+0x76>
 8003f3e:	687b      	ldr	r3, [r7, #4]
 8003f40:	4a26      	ldr	r2, [pc, #152]	@ (8003fdc <TIM_OC1_SetConfig+0xfc>)
 8003f42:	4293      	cmp	r3, r2
 8003f44:	d007      	beq.n	8003f56 <TIM_OC1_SetConfig+0x76>
 8003f46:	687b      	ldr	r3, [r7, #4]
 8003f48:	4a25      	ldr	r2, [pc, #148]	@ (8003fe0 <TIM_OC1_SetConfig+0x100>)
 8003f4a:	4293      	cmp	r3, r2
 8003f4c:	d003      	beq.n	8003f56 <TIM_OC1_SetConfig+0x76>
 8003f4e:	687b      	ldr	r3, [r7, #4]
 8003f50:	4a24      	ldr	r2, [pc, #144]	@ (8003fe4 <TIM_OC1_SetConfig+0x104>)
 8003f52:	4293      	cmp	r3, r2
 8003f54:	d10c      	bne.n	8003f70 <TIM_OC1_SetConfig+0x90>
  {
    /* Check parameters */
    assert_param(IS_TIM_OCN_POLARITY(OC_Config->OCNPolarity));

    /* Reset the Output N Polarity level */
    tmpccer &= ~TIM_CCER_CC1NP;
 8003f56:	697b      	ldr	r3, [r7, #20]
 8003f58:	2208      	movs	r2, #8
 8003f5a:	4393      	bics	r3, r2
 8003f5c:	617b      	str	r3, [r7, #20]
    /* Set the Output N Polarity */
    tmpccer |= OC_Config->OCNPolarity;
 8003f5e:	683b      	ldr	r3, [r7, #0]
 8003f60:	68db      	ldr	r3, [r3, #12]
 8003f62:	697a      	ldr	r2, [r7, #20]
 8003f64:	4313      	orrs	r3, r2
 8003f66:	617b      	str	r3, [r7, #20]
    /* Reset the Output N State */
    tmpccer &= ~TIM_CCER_CC1NE;
 8003f68:	697b      	ldr	r3, [r7, #20]
 8003f6a:	2204      	movs	r2, #4
 8003f6c:	4393      	bics	r3, r2
 8003f6e:	617b      	str	r3, [r7, #20]
  }

  if (IS_TIM_BREAK_INSTANCE(TIMx))
 8003f70:	687b      	ldr	r3, [r7, #4]
 8003f72:	4a19      	ldr	r2, [pc, #100]	@ (8003fd8 <TIM_OC1_SetConfig+0xf8>)
 8003f74:	4293      	cmp	r3, r2
 8003f76:	d00b      	beq.n	8003f90 <TIM_OC1_SetConfig+0xb0>
 8003f78:	687b      	ldr	r3, [r7, #4]
 8003f7a:	4a18      	ldr	r2, [pc, #96]	@ (8003fdc <TIM_OC1_SetConfig+0xfc>)
 8003f7c:	4293      	cmp	r3, r2
 8003f7e:	d007      	beq.n	8003f90 <TIM_OC1_SetConfig+0xb0>
 8003f80:	687b      	ldr	r3, [r7, #4]
 8003f82:	4a17      	ldr	r2, [pc, #92]	@ (8003fe0 <TIM_OC1_SetConfig+0x100>)
 8003f84:	4293      	cmp	r3, r2
 8003f86:	d003      	beq.n	8003f90 <TIM_OC1_SetConfig+0xb0>
 8003f88:	687b      	ldr	r3, [r7, #4]
 8003f8a:	4a16      	ldr	r2, [pc, #88]	@ (8003fe4 <TIM_OC1_SetConfig+0x104>)
 8003f8c:	4293      	cmp	r3, r2
 8003f8e:	d111      	bne.n	8003fb4 <TIM_OC1_SetConfig+0xd4>
    /* Check parameters */
    assert_param(IS_TIM_OCNIDLE_STATE(OC_Config->OCNIdleState));
    assert_param(IS_TIM_OCIDLE_STATE(OC_Config->OCIdleState));

    /* Reset the Output Compare and Output Compare N IDLE State */
    tmpcr2 &= ~TIM_CR2_OIS1;
 8003f90:	693b      	ldr	r3, [r7, #16]
 8003f92:	4a15      	ldr	r2, [pc, #84]	@ (8003fe8 <TIM_OC1_SetConfig+0x108>)
 8003f94:	4013      	ands	r3, r2
 8003f96:	613b      	str	r3, [r7, #16]
    tmpcr2 &= ~TIM_CR2_OIS1N;
 8003f98:	693b      	ldr	r3, [r7, #16]
 8003f9a:	4a14      	ldr	r2, [pc, #80]	@ (8003fec <TIM_OC1_SetConfig+0x10c>)
 8003f9c:	4013      	ands	r3, r2
 8003f9e:	613b      	str	r3, [r7, #16]
    /* Set the Output Idle state */
    tmpcr2 |= OC_Config->OCIdleState;
 8003fa0:	683b      	ldr	r3, [r7, #0]
 8003fa2:	695b      	ldr	r3, [r3, #20]
 8003fa4:	693a      	ldr	r2, [r7, #16]
 8003fa6:	4313      	orrs	r3, r2
 8003fa8:	613b      	str	r3, [r7, #16]
    /* Set the Output N Idle state */
    tmpcr2 |= OC_Config->OCNIdleState;
 8003faa:	683b      	ldr	r3, [r7, #0]
 8003fac:	699b      	ldr	r3, [r3, #24]
 8003fae:	693a      	ldr	r2, [r7, #16]
 8003fb0:	4313      	orrs	r3, r2
 8003fb2:	613b      	str	r3, [r7, #16]
  }

  /* Write to TIMx CR2 */
  TIMx->CR2 = tmpcr2;
 8003fb4:	687b      	ldr	r3, [r7, #4]
 8003fb6:	693a      	ldr	r2, [r7, #16]
 8003fb8:	605a      	str	r2, [r3, #4]

  /* Write to TIMx CCMR1 */
  TIMx->CCMR1 = tmpccmrx;
 8003fba:	687b      	ldr	r3, [r7, #4]
 8003fbc:	68fa      	ldr	r2, [r7, #12]
 8003fbe:	619a      	str	r2, [r3, #24]

  /* Set the Capture Compare Register value */
  TIMx->CCR1 = OC_Config->Pulse;
 8003fc0:	683b      	ldr	r3, [r7, #0]
 8003fc2:	685a      	ldr	r2, [r3, #4]
 8003fc4:	687b      	ldr	r3, [r7, #4]
 8003fc6:	635a      	str	r2, [r3, #52]	@ 0x34

  /* Write to TIMx CCER */
  TIMx->CCER = tmpccer;
 8003fc8:	687b      	ldr	r3, [r7, #4]
 8003fca:	697a      	ldr	r2, [r7, #20]
 8003fcc:	621a      	str	r2, [r3, #32]
}
 8003fce:	46c0      	nop			@ (mov r8, r8)
 8003fd0:	46bd      	mov	sp, r7
 8003fd2:	b006      	add	sp, #24
 8003fd4:	bd80      	pop	{r7, pc}
 8003fd6:	46c0      	nop			@ (mov r8, r8)
 8003fd8:	40012c00 	.word	0x40012c00
 8003fdc:	40014000 	.word	0x40014000
 8003fe0:	40014400 	.word	0x40014400
 8003fe4:	40014800 	.word	0x40014800
 8003fe8:	fffffeff 	.word	0xfffffeff
 8003fec:	fffffdff 	.word	0xfffffdff

08003ff0 <TIM_OC2_SetConfig>:
  * @param  TIMx to select the TIM peripheral
  * @param  OC_Config The output configuration structure
  * @retval None
  */
void TIM_OC2_SetConfig(TIM_TypeDef *TIMx, const TIM_OC_InitTypeDef *OC_Config)
{
 8003ff0:	b580      	push	{r7, lr}
 8003ff2:	b086      	sub	sp, #24
 8003ff4:	af00      	add	r7, sp, #0
 8003ff6:	6078      	str	r0, [r7, #4]
 8003ff8:	6039      	str	r1, [r7, #0]
  uint32_t tmpccmrx;
  uint32_t tmpccer;
  uint32_t tmpcr2;

  /* Get the TIMx CCER register value */
  tmpccer = TIMx->CCER;
 8003ffa:	687b      	ldr	r3, [r7, #4]
 8003ffc:	6a1b      	ldr	r3, [r3, #32]
 8003ffe:	617b      	str	r3, [r7, #20]

  /* Disable the Channel 2: Reset the CC2E Bit */
  TIMx->CCER &= ~TIM_CCER_CC2E;
 8004000:	687b      	ldr	r3, [r7, #4]
 8004002:	6a1b      	ldr	r3, [r3, #32]
 8004004:	2210      	movs	r2, #16
 8004006:	4393      	bics	r3, r2
 8004008:	001a      	movs	r2, r3
 800400a:	687b      	ldr	r3, [r7, #4]
 800400c:	621a      	str	r2, [r3, #32]

  /* Get the TIMx CR2 register value */
  tmpcr2 =  TIMx->CR2;
 800400e:	687b      	ldr	r3, [r7, #4]
 8004010:	685b      	ldr	r3, [r3, #4]
 8004012:	613b      	str	r3, [r7, #16]

  /* Get the TIMx CCMR1 register value */
  tmpccmrx = TIMx->CCMR1;
 8004014:	687b      	ldr	r3, [r7, #4]
 8004016:	699b      	ldr	r3, [r3, #24]
 8004018:	60fb      	str	r3, [r7, #12]

  /* Reset the Output Compare mode and Capture/Compare selection Bits */
  tmpccmrx &= ~TIM_CCMR1_OC2M;
 800401a:	68fb      	ldr	r3, [r7, #12]
 800401c:	4a2e      	ldr	r2, [pc, #184]	@ (80040d8 <TIM_OC2_SetConfig+0xe8>)
 800401e:	4013      	ands	r3, r2
 8004020:	60fb      	str	r3, [r7, #12]
  tmpccmrx &= ~TIM_CCMR1_CC2S;
 8004022:	68fb      	ldr	r3, [r7, #12]
 8004024:	4a2d      	ldr	r2, [pc, #180]	@ (80040dc <TIM_OC2_SetConfig+0xec>)
 8004026:	4013      	ands	r3, r2
 8004028:	60fb      	str	r3, [r7, #12]

  /* Select the Output Compare Mode */
  tmpccmrx |= (OC_Config->OCMode << 8U);
 800402a:	683b      	ldr	r3, [r7, #0]
 800402c:	681b      	ldr	r3, [r3, #0]
 800402e:	021b      	lsls	r3, r3, #8
 8004030:	68fa      	ldr	r2, [r7, #12]
 8004032:	4313      	orrs	r3, r2
 8004034:	60fb      	str	r3, [r7, #12]

  /* Reset the Output Polarity level */
  tmpccer &= ~TIM_CCER_CC2P;
 8004036:	697b      	ldr	r3, [r7, #20]
 8004038:	2220      	movs	r2, #32
 800403a:	4393      	bics	r3, r2
 800403c:	617b      	str	r3, [r7, #20]
  /* Set the Output Compare Polarity */
  tmpccer |= (OC_Config->OCPolarity << 4U);
 800403e:	683b      	ldr	r3, [r7, #0]
 8004040:	689b      	ldr	r3, [r3, #8]
 8004042:	011b      	lsls	r3, r3, #4
 8004044:	697a      	ldr	r2, [r7, #20]
 8004046:	4313      	orrs	r3, r2
 8004048:	617b      	str	r3, [r7, #20]

  if (IS_TIM_CCXN_INSTANCE(TIMx, TIM_CHANNEL_2))
 800404a:	687b      	ldr	r3, [r7, #4]
 800404c:	4a24      	ldr	r2, [pc, #144]	@ (80040e0 <TIM_OC2_SetConfig+0xf0>)
 800404e:	4293      	cmp	r3, r2
 8004050:	d10d      	bne.n	800406e <TIM_OC2_SetConfig+0x7e>
  {
    assert_param(IS_TIM_OCN_POLARITY(OC_Config->OCNPolarity));

    /* Reset the Output N Polarity level */
    tmpccer &= ~TIM_CCER_CC2NP;
 8004052:	697b      	ldr	r3, [r7, #20]
 8004054:	2280      	movs	r2, #128	@ 0x80
 8004056:	4393      	bics	r3, r2
 8004058:	617b      	str	r3, [r7, #20]
    /* Set the Output N Polarity */
    tmpccer |= (OC_Config->OCNPolarity << 4U);
 800405a:	683b      	ldr	r3, [r7, #0]
 800405c:	68db      	ldr	r3, [r3, #12]
 800405e:	011b      	lsls	r3, r3, #4
 8004060:	697a      	ldr	r2, [r7, #20]
 8004062:	4313      	orrs	r3, r2
 8004064:	617b      	str	r3, [r7, #20]
    /* Reset the Output N State */
    tmpccer &= ~TIM_CCER_CC2NE;
 8004066:	697b      	ldr	r3, [r7, #20]
 8004068:	2240      	movs	r2, #64	@ 0x40
 800406a:	4393      	bics	r3, r2
 800406c:	617b      	str	r3, [r7, #20]
  }

  if (IS_TIM_BREAK_INSTANCE(TIMx))
 800406e:	687b      	ldr	r3, [r7, #4]
 8004070:	4a1b      	ldr	r2, [pc, #108]	@ (80040e0 <TIM_OC2_SetConfig+0xf0>)
 8004072:	4293      	cmp	r3, r2
 8004074:	d00b      	beq.n	800408e <TIM_OC2_SetConfig+0x9e>
 8004076:	687b      	ldr	r3, [r7, #4]
 8004078:	4a1a      	ldr	r2, [pc, #104]	@ (80040e4 <TIM_OC2_SetConfig+0xf4>)
 800407a:	4293      	cmp	r3, r2
 800407c:	d007      	beq.n	800408e <TIM_OC2_SetConfig+0x9e>
 800407e:	687b      	ldr	r3, [r7, #4]
 8004080:	4a19      	ldr	r2, [pc, #100]	@ (80040e8 <TIM_OC2_SetConfig+0xf8>)
 8004082:	4293      	cmp	r3, r2
 8004084:	d003      	beq.n	800408e <TIM_OC2_SetConfig+0x9e>
 8004086:	687b      	ldr	r3, [r7, #4]
 8004088:	4a18      	ldr	r2, [pc, #96]	@ (80040ec <TIM_OC2_SetConfig+0xfc>)
 800408a:	4293      	cmp	r3, r2
 800408c:	d113      	bne.n	80040b6 <TIM_OC2_SetConfig+0xc6>
    /* Check parameters */
    assert_param(IS_TIM_OCNIDLE_STATE(OC_Config->OCNIdleState));
    assert_param(IS_TIM_OCIDLE_STATE(OC_Config->OCIdleState));

    /* Reset the Output Compare and Output Compare N IDLE State */
    tmpcr2 &= ~TIM_CR2_OIS2;
 800408e:	693b      	ldr	r3, [r7, #16]
 8004090:	4a17      	ldr	r2, [pc, #92]	@ (80040f0 <TIM_OC2_SetConfig+0x100>)
 8004092:	4013      	ands	r3, r2
 8004094:	613b      	str	r3, [r7, #16]
    tmpcr2 &= ~TIM_CR2_OIS2N;
 8004096:	693b      	ldr	r3, [r7, #16]
 8004098:	4a16      	ldr	r2, [pc, #88]	@ (80040f4 <TIM_OC2_SetConfig+0x104>)
 800409a:	4013      	ands	r3, r2
 800409c:	613b      	str	r3, [r7, #16]
    /* Set the Output Idle state */
    tmpcr2 |= (OC_Config->OCIdleState << 2U);
 800409e:	683b      	ldr	r3, [r7, #0]
 80040a0:	695b      	ldr	r3, [r3, #20]
 80040a2:	009b      	lsls	r3, r3, #2
 80040a4:	693a      	ldr	r2, [r7, #16]
 80040a6:	4313      	orrs	r3, r2
 80040a8:	613b      	str	r3, [r7, #16]
    /* Set the Output N Idle state */
    tmpcr2 |= (OC_Config->OCNIdleState << 2U);
 80040aa:	683b      	ldr	r3, [r7, #0]
 80040ac:	699b      	ldr	r3, [r3, #24]
 80040ae:	009b      	lsls	r3, r3, #2
 80040b0:	693a      	ldr	r2, [r7, #16]
 80040b2:	4313      	orrs	r3, r2
 80040b4:	613b      	str	r3, [r7, #16]
  }

  /* Write to TIMx CR2 */
  TIMx->CR2 = tmpcr2;
 80040b6:	687b      	ldr	r3, [r7, #4]
 80040b8:	693a      	ldr	r2, [r7, #16]
 80040ba:	605a      	str	r2, [r3, #4]

  /* Write to TIMx CCMR1 */
  TIMx->CCMR1 = tmpccmrx;
 80040bc:	687b      	ldr	r3, [r7, #4]
 80040be:	68fa      	ldr	r2, [r7, #12]
 80040c0:	619a      	str	r2, [r3, #24]

  /* Set the Capture Compare Register value */
  TIMx->CCR2 = OC_Config->Pulse;
 80040c2:	683b      	ldr	r3, [r7, #0]
 80040c4:	685a      	ldr	r2, [r3, #4]
 80040c6:	687b      	ldr	r3, [r7, #4]
 80040c8:	639a      	str	r2, [r3, #56]	@ 0x38

  /* Write to TIMx CCER */
  TIMx->CCER = tmpccer;
 80040ca:	687b      	ldr	r3, [r7, #4]
 80040cc:	697a      	ldr	r2, [r7, #20]
 80040ce:	621a      	str	r2, [r3, #32]
}
 80040d0:	46c0      	nop			@ (mov r8, r8)
 80040d2:	46bd      	mov	sp, r7
 80040d4:	b006      	add	sp, #24
 80040d6:	bd80      	pop	{r7, pc}
 80040d8:	ffff8fff 	.word	0xffff8fff
 80040dc:	fffffcff 	.word	0xfffffcff
 80040e0:	40012c00 	.word	0x40012c00
 80040e4:	40014000 	.word	0x40014000
 80040e8:	40014400 	.word	0x40014400
 80040ec:	40014800 	.word	0x40014800
 80040f0:	fffffbff 	.word	0xfffffbff
 80040f4:	fffff7ff 	.word	0xfffff7ff

080040f8 <TIM_OC3_SetConfig>:
  * @param  TIMx to select the TIM peripheral
  * @param  OC_Config The output configuration structure
  * @retval None
  */
static void TIM_OC3_SetConfig(TIM_TypeDef *TIMx, const TIM_OC_InitTypeDef *OC_Config)
{
 80040f8:	b580      	push	{r7, lr}
 80040fa:	b086      	sub	sp, #24
 80040fc:	af00      	add	r7, sp, #0
 80040fe:	6078      	str	r0, [r7, #4]
 8004100:	6039      	str	r1, [r7, #0]
  uint32_t tmpccmrx;
  uint32_t tmpccer;
  uint32_t tmpcr2;

  /* Get the TIMx CCER register value */
  tmpccer = TIMx->CCER;
 8004102:	687b      	ldr	r3, [r7, #4]
 8004104:	6a1b      	ldr	r3, [r3, #32]
 8004106:	617b      	str	r3, [r7, #20]

  /* Disable the Channel 3: Reset the CC2E Bit */
  TIMx->CCER &= ~TIM_CCER_CC3E;
 8004108:	687b      	ldr	r3, [r7, #4]
 800410a:	6a1b      	ldr	r3, [r3, #32]
 800410c:	4a33      	ldr	r2, [pc, #204]	@ (80041dc <TIM_OC3_SetConfig+0xe4>)
 800410e:	401a      	ands	r2, r3
 8004110:	687b      	ldr	r3, [r7, #4]
 8004112:	621a      	str	r2, [r3, #32]

  /* Get the TIMx CR2 register value */
  tmpcr2 =  TIMx->CR2;
 8004114:	687b      	ldr	r3, [r7, #4]
 8004116:	685b      	ldr	r3, [r3, #4]
 8004118:	613b      	str	r3, [r7, #16]

  /* Get the TIMx CCMR2 register value */
  tmpccmrx = TIMx->CCMR2;
 800411a:	687b      	ldr	r3, [r7, #4]
 800411c:	69db      	ldr	r3, [r3, #28]
 800411e:	60fb      	str	r3, [r7, #12]

  /* Reset the Output Compare mode and Capture/Compare selection Bits */
  tmpccmrx &= ~TIM_CCMR2_OC3M;
 8004120:	68fb      	ldr	r3, [r7, #12]
 8004122:	2270      	movs	r2, #112	@ 0x70
 8004124:	4393      	bics	r3, r2
 8004126:	60fb      	str	r3, [r7, #12]
  tmpccmrx &= ~TIM_CCMR2_CC3S;
 8004128:	68fb      	ldr	r3, [r7, #12]
 800412a:	2203      	movs	r2, #3
 800412c:	4393      	bics	r3, r2
 800412e:	60fb      	str	r3, [r7, #12]
  /* Select the Output Compare Mode */
  tmpccmrx |= OC_Config->OCMode;
 8004130:	683b      	ldr	r3, [r7, #0]
 8004132:	681b      	ldr	r3, [r3, #0]
 8004134:	68fa      	ldr	r2, [r7, #12]
 8004136:	4313      	orrs	r3, r2
 8004138:	60fb      	str	r3, [r7, #12]

  /* Reset the Output Polarity level */
  tmpccer &= ~TIM_CCER_CC3P;
 800413a:	697b      	ldr	r3, [r7, #20]
 800413c:	4a28      	ldr	r2, [pc, #160]	@ (80041e0 <TIM_OC3_SetConfig+0xe8>)
 800413e:	4013      	ands	r3, r2
 8004140:	617b      	str	r3, [r7, #20]
  /* Set the Output Compare Polarity */
  tmpccer |= (OC_Config->OCPolarity << 8U);
 8004142:	683b      	ldr	r3, [r7, #0]
 8004144:	689b      	ldr	r3, [r3, #8]
 8004146:	021b      	lsls	r3, r3, #8
 8004148:	697a      	ldr	r2, [r7, #20]
 800414a:	4313      	orrs	r3, r2
 800414c:	617b      	str	r3, [r7, #20]

  if (IS_TIM_CCXN_INSTANCE(TIMx, TIM_CHANNEL_3))
 800414e:	687b      	ldr	r3, [r7, #4]
 8004150:	4a24      	ldr	r2, [pc, #144]	@ (80041e4 <TIM_OC3_SetConfig+0xec>)
 8004152:	4293      	cmp	r3, r2
 8004154:	d10d      	bne.n	8004172 <TIM_OC3_SetConfig+0x7a>
  {
    assert_param(IS_TIM_OCN_POLARITY(OC_Config->OCNPolarity));

    /* Reset the Output N Polarity level */
    tmpccer &= ~TIM_CCER_CC3NP;
 8004156:	697b      	ldr	r3, [r7, #20]
 8004158:	4a23      	ldr	r2, [pc, #140]	@ (80041e8 <TIM_OC3_SetConfig+0xf0>)
 800415a:	4013      	ands	r3, r2
 800415c:	617b      	str	r3, [r7, #20]
    /* Set the Output N Polarity */
    tmpccer |= (OC_Config->OCNPolarity << 8U);
 800415e:	683b      	ldr	r3, [r7, #0]
 8004160:	68db      	ldr	r3, [r3, #12]
 8004162:	021b      	lsls	r3, r3, #8
 8004164:	697a      	ldr	r2, [r7, #20]
 8004166:	4313      	orrs	r3, r2
 8004168:	617b      	str	r3, [r7, #20]
    /* Reset the Output N State */
    tmpccer &= ~TIM_CCER_CC3NE;
 800416a:	697b      	ldr	r3, [r7, #20]
 800416c:	4a1f      	ldr	r2, [pc, #124]	@ (80041ec <TIM_OC3_SetConfig+0xf4>)
 800416e:	4013      	ands	r3, r2
 8004170:	617b      	str	r3, [r7, #20]
  }

  if (IS_TIM_BREAK_INSTANCE(TIMx))
 8004172:	687b      	ldr	r3, [r7, #4]
 8004174:	4a1b      	ldr	r2, [pc, #108]	@ (80041e4 <TIM_OC3_SetConfig+0xec>)
 8004176:	4293      	cmp	r3, r2
 8004178:	d00b      	beq.n	8004192 <TIM_OC3_SetConfig+0x9a>
 800417a:	687b      	ldr	r3, [r7, #4]
 800417c:	4a1c      	ldr	r2, [pc, #112]	@ (80041f0 <TIM_OC3_SetConfig+0xf8>)
 800417e:	4293      	cmp	r3, r2
 8004180:	d007      	beq.n	8004192 <TIM_OC3_SetConfig+0x9a>
 8004182:	687b      	ldr	r3, [r7, #4]
 8004184:	4a1b      	ldr	r2, [pc, #108]	@ (80041f4 <TIM_OC3_SetConfig+0xfc>)
 8004186:	4293      	cmp	r3, r2
 8004188:	d003      	beq.n	8004192 <TIM_OC3_SetConfig+0x9a>
 800418a:	687b      	ldr	r3, [r7, #4]
 800418c:	4a1a      	ldr	r2, [pc, #104]	@ (80041f8 <TIM_OC3_SetConfig+0x100>)
 800418e:	4293      	cmp	r3, r2
 8004190:	d113      	bne.n	80041ba <TIM_OC3_SetConfig+0xc2>
    /* Check parameters */
    assert_param(IS_TIM_OCNIDLE_STATE(OC_Config->OCNIdleState));
    assert_param(IS_TIM_OCIDLE_STATE(OC_Config->OCIdleState));

    /* Reset the Output Compare and Output Compare N IDLE State */
    tmpcr2 &= ~TIM_CR2_OIS3;
 8004192:	693b      	ldr	r3, [r7, #16]
 8004194:	4a19      	ldr	r2, [pc, #100]	@ (80041fc <TIM_OC3_SetConfig+0x104>)
 8004196:	4013      	ands	r3, r2
 8004198:	613b      	str	r3, [r7, #16]
    tmpcr2 &= ~TIM_CR2_OIS3N;
 800419a:	693b      	ldr	r3, [r7, #16]
 800419c:	4a18      	ldr	r2, [pc, #96]	@ (8004200 <TIM_OC3_SetConfig+0x108>)
 800419e:	4013      	ands	r3, r2
 80041a0:	613b      	str	r3, [r7, #16]
    /* Set the Output Idle state */
    tmpcr2 |= (OC_Config->OCIdleState << 4U);
 80041a2:	683b      	ldr	r3, [r7, #0]
 80041a4:	695b      	ldr	r3, [r3, #20]
 80041a6:	011b      	lsls	r3, r3, #4
 80041a8:	693a      	ldr	r2, [r7, #16]
 80041aa:	4313      	orrs	r3, r2
 80041ac:	613b      	str	r3, [r7, #16]
    /* Set the Output N Idle state */
    tmpcr2 |= (OC_Config->OCNIdleState << 4U);
 80041ae:	683b      	ldr	r3, [r7, #0]
 80041b0:	699b      	ldr	r3, [r3, #24]
 80041b2:	011b      	lsls	r3, r3, #4
 80041b4:	693a      	ldr	r2, [r7, #16]
 80041b6:	4313      	orrs	r3, r2
 80041b8:	613b      	str	r3, [r7, #16]
  }

  /* Write to TIMx CR2 */
  TIMx->CR2 = tmpcr2;
 80041ba:	687b      	ldr	r3, [r7, #4]
 80041bc:	693a      	ldr	r2, [r7, #16]
 80041be:	605a      	str	r2, [r3, #4]

  /* Write to TIMx CCMR2 */
  TIMx->CCMR2 = tmpccmrx;
 80041c0:	687b      	ldr	r3, [r7, #4]
 80041c2:	68fa      	ldr	r2, [r7, #12]
 80041c4:	61da      	str	r2, [r3, #28]

  /* Set the Capture Compare Register value */
  TIMx->CCR3 = OC_Config->Pulse;
 80041c6:	683b      	ldr	r3, [r7, #0]
 80041c8:	685a      	ldr	r2, [r3, #4]
 80041ca:	687b      	ldr	r3, [r7, #4]
 80041cc:	63da      	str	r2, [r3, #60]	@ 0x3c

  /* Write to TIMx CCER */
  TIMx->CCER = tmpccer;
 80041ce:	687b      	ldr	r3, [r7, #4]
 80041d0:	697a      	ldr	r2, [r7, #20]
 80041d2:	621a      	str	r2, [r3, #32]
}
 80041d4:	46c0      	nop			@ (mov r8, r8)
 80041d6:	46bd      	mov	sp, r7
 80041d8:	b006      	add	sp, #24
 80041da:	bd80      	pop	{r7, pc}
 80041dc:	fffffeff 	.word	0xfffffeff
 80041e0:	fffffdff 	.word	0xfffffdff
 80041e4:	40012c00 	.word	0x40012c00
 80041e8:	fffff7ff 	.word	0xfffff7ff
 80041ec:	fffffbff 	.word	0xfffffbff
 80041f0:	40014000 	.word	0x40014000
 80041f4:	40014400 	.word	0x40014400
 80041f8:	40014800 	.word	0x40014800
 80041fc:	ffffefff 	.word	0xffffefff
 8004200:	ffffdfff 	.word	0xffffdfff

08004204 <TIM_OC4_SetConfig>:
  * @param  TIMx to select the TIM peripheral
  * @param  OC_Config The output configuration structure
  * @retval None
  */
static void TIM_OC4_SetConfig(TIM_TypeDef *TIMx, const TIM_OC_InitTypeDef *OC_Config)
{
 8004204:	b580      	push	{r7, lr}
 8004206:	b086      	sub	sp, #24
 8004208:	af00      	add	r7, sp, #0
 800420a:	6078      	str	r0, [r7, #4]
 800420c:	6039      	str	r1, [r7, #0]
  uint32_t tmpccmrx;
  uint32_t tmpccer;
  uint32_t tmpcr2;

  /* Get the TIMx CCER register value */
  tmpccer = TIMx->CCER;
 800420e:	687b      	ldr	r3, [r7, #4]
 8004210:	6a1b      	ldr	r3, [r3, #32]
 8004212:	613b      	str	r3, [r7, #16]

  /* Disable the Channel 4: Reset the CC4E Bit */
  TIMx->CCER &= ~TIM_CCER_CC4E;
 8004214:	687b      	ldr	r3, [r7, #4]
 8004216:	6a1b      	ldr	r3, [r3, #32]
 8004218:	4a26      	ldr	r2, [pc, #152]	@ (80042b4 <TIM_OC4_SetConfig+0xb0>)
 800421a:	401a      	ands	r2, r3
 800421c:	687b      	ldr	r3, [r7, #4]
 800421e:	621a      	str	r2, [r3, #32]

  /* Get the TIMx CR2 register value */
  tmpcr2 =  TIMx->CR2;
 8004220:	687b      	ldr	r3, [r7, #4]
 8004222:	685b      	ldr	r3, [r3, #4]
 8004224:	617b      	str	r3, [r7, #20]

  /* Get the TIMx CCMR2 register value */
  tmpccmrx = TIMx->CCMR2;
 8004226:	687b      	ldr	r3, [r7, #4]
 8004228:	69db      	ldr	r3, [r3, #28]
 800422a:	60fb      	str	r3, [r7, #12]

  /* Reset the Output Compare mode and Capture/Compare selection Bits */
  tmpccmrx &= ~TIM_CCMR2_OC4M;
 800422c:	68fb      	ldr	r3, [r7, #12]
 800422e:	4a22      	ldr	r2, [pc, #136]	@ (80042b8 <TIM_OC4_SetConfig+0xb4>)
 8004230:	4013      	ands	r3, r2
 8004232:	60fb      	str	r3, [r7, #12]
  tmpccmrx &= ~TIM_CCMR2_CC4S;
 8004234:	68fb      	ldr	r3, [r7, #12]
 8004236:	4a21      	ldr	r2, [pc, #132]	@ (80042bc <TIM_OC4_SetConfig+0xb8>)
 8004238:	4013      	ands	r3, r2
 800423a:	60fb      	str	r3, [r7, #12]

  /* Select the Output Compare Mode */
  tmpccmrx |= (OC_Config->OCMode << 8U);
 800423c:	683b      	ldr	r3, [r7, #0]
 800423e:	681b      	ldr	r3, [r3, #0]
 8004240:	021b      	lsls	r3, r3, #8
 8004242:	68fa      	ldr	r2, [r7, #12]
 8004244:	4313      	orrs	r3, r2
 8004246:	60fb      	str	r3, [r7, #12]

  /* Reset the Output Polarity level */
  tmpccer &= ~TIM_CCER_CC4P;
 8004248:	693b      	ldr	r3, [r7, #16]
 800424a:	4a1d      	ldr	r2, [pc, #116]	@ (80042c0 <TIM_OC4_SetConfig+0xbc>)
 800424c:	4013      	ands	r3, r2
 800424e:	613b      	str	r3, [r7, #16]
  /* Set the Output Compare Polarity */
  tmpccer |= (OC_Config->OCPolarity << 12U);
 8004250:	683b      	ldr	r3, [r7, #0]
 8004252:	689b      	ldr	r3, [r3, #8]
 8004254:	031b      	lsls	r3, r3, #12
 8004256:	693a      	ldr	r2, [r7, #16]
 8004258:	4313      	orrs	r3, r2
 800425a:	613b      	str	r3, [r7, #16]

  if (IS_TIM_BREAK_INSTANCE(TIMx))
 800425c:	687b      	ldr	r3, [r7, #4]
 800425e:	4a19      	ldr	r2, [pc, #100]	@ (80042c4 <TIM_OC4_SetConfig+0xc0>)
 8004260:	4293      	cmp	r3, r2
 8004262:	d00b      	beq.n	800427c <TIM_OC4_SetConfig+0x78>
 8004264:	687b      	ldr	r3, [r7, #4]
 8004266:	4a18      	ldr	r2, [pc, #96]	@ (80042c8 <TIM_OC4_SetConfig+0xc4>)
 8004268:	4293      	cmp	r3, r2
 800426a:	d007      	beq.n	800427c <TIM_OC4_SetConfig+0x78>
 800426c:	687b      	ldr	r3, [r7, #4]
 800426e:	4a17      	ldr	r2, [pc, #92]	@ (80042cc <TIM_OC4_SetConfig+0xc8>)
 8004270:	4293      	cmp	r3, r2
 8004272:	d003      	beq.n	800427c <TIM_OC4_SetConfig+0x78>
 8004274:	687b      	ldr	r3, [r7, #4]
 8004276:	4a16      	ldr	r2, [pc, #88]	@ (80042d0 <TIM_OC4_SetConfig+0xcc>)
 8004278:	4293      	cmp	r3, r2
 800427a:	d109      	bne.n	8004290 <TIM_OC4_SetConfig+0x8c>
  {
    /* Check parameters */
    assert_param(IS_TIM_OCIDLE_STATE(OC_Config->OCIdleState));

    /* Reset the Output Compare IDLE State */
    tmpcr2 &= ~TIM_CR2_OIS4;
 800427c:	697b      	ldr	r3, [r7, #20]
 800427e:	4a15      	ldr	r2, [pc, #84]	@ (80042d4 <TIM_OC4_SetConfig+0xd0>)
 8004280:	4013      	ands	r3, r2
 8004282:	617b      	str	r3, [r7, #20]

    /* Set the Output Idle state */
    tmpcr2 |= (OC_Config->OCIdleState << 6U);
 8004284:	683b      	ldr	r3, [r7, #0]
 8004286:	695b      	ldr	r3, [r3, #20]
 8004288:	019b      	lsls	r3, r3, #6
 800428a:	697a      	ldr	r2, [r7, #20]
 800428c:	4313      	orrs	r3, r2
 800428e:	617b      	str	r3, [r7, #20]
  }

  /* Write to TIMx CR2 */
  TIMx->CR2 = tmpcr2;
 8004290:	687b      	ldr	r3, [r7, #4]
 8004292:	697a      	ldr	r2, [r7, #20]
 8004294:	605a      	str	r2, [r3, #4]

  /* Write to TIMx CCMR2 */
  TIMx->CCMR2 = tmpccmrx;
 8004296:	687b      	ldr	r3, [r7, #4]
 8004298:	68fa      	ldr	r2, [r7, #12]
 800429a:	61da      	str	r2, [r3, #28]

  /* Set the Capture Compare Register value */
  TIMx->CCR4 = OC_Config->Pulse;
 800429c:	683b      	ldr	r3, [r7, #0]
 800429e:	685a      	ldr	r2, [r3, #4]
 80042a0:	687b      	ldr	r3, [r7, #4]
 80042a2:	641a      	str	r2, [r3, #64]	@ 0x40

  /* Write to TIMx CCER */
  TIMx->CCER = tmpccer;
 80042a4:	687b      	ldr	r3, [r7, #4]
 80042a6:	693a      	ldr	r2, [r7, #16]
 80042a8:	621a      	str	r2, [r3, #32]
}
 80042aa:	46c0      	nop			@ (mov r8, r8)
 80042ac:	46bd      	mov	sp, r7
 80042ae:	b006      	add	sp, #24
 80042b0:	bd80      	pop	{r7, pc}
 80042b2:	46c0      	nop			@ (mov r8, r8)
 80042b4:	ffffefff 	.word	0xffffefff
 80042b8:	ffff8fff 	.word	0xffff8fff
 80042bc:	fffffcff 	.word	0xfffffcff
 80042c0:	ffffdfff 	.word	0xffffdfff
 80042c4:	40012c00 	.word	0x40012c00
 80042c8:	40014000 	.word	0x40014000
 80042cc:	40014400 	.word	0x40014400
 80042d0:	40014800 	.word	0x40014800
 80042d4:	ffffbfff 	.word	0xffffbfff

080042d8 <TIM_CCxChannelCmd>:
  * @param  ChannelState specifies the TIM Channel CCxE bit new state.
  *          This parameter can be: TIM_CCx_ENABLE or TIM_CCx_DISABLE.
  * @retval None
  */
void TIM_CCxChannelCmd(TIM_TypeDef *TIMx, uint32_t Channel, uint32_t ChannelState)
{
 80042d8:	b580      	push	{r7, lr}
 80042da:	b086      	sub	sp, #24
 80042dc:	af00      	add	r7, sp, #0
 80042de:	60f8      	str	r0, [r7, #12]
 80042e0:	60b9      	str	r1, [r7, #8]
 80042e2:	607a      	str	r2, [r7, #4]

  /* Check the parameters */
  assert_param(IS_TIM_CC1_INSTANCE(TIMx));
  assert_param(IS_TIM_CHANNELS(Channel));

  tmp = TIM_CCER_CC1E << (Channel & 0x1FU); /* 0x1FU = 31 bits max shift */
 80042e4:	68bb      	ldr	r3, [r7, #8]
 80042e6:	221f      	movs	r2, #31
 80042e8:	4013      	ands	r3, r2
 80042ea:	2201      	movs	r2, #1
 80042ec:	409a      	lsls	r2, r3
 80042ee:	0013      	movs	r3, r2
 80042f0:	617b      	str	r3, [r7, #20]

  /* Reset the CCxE Bit */
  TIMx->CCER &= ~tmp;
 80042f2:	68fb      	ldr	r3, [r7, #12]
 80042f4:	6a1b      	ldr	r3, [r3, #32]
 80042f6:	697a      	ldr	r2, [r7, #20]
 80042f8:	43d2      	mvns	r2, r2
 80042fa:	401a      	ands	r2, r3
 80042fc:	68fb      	ldr	r3, [r7, #12]
 80042fe:	621a      	str	r2, [r3, #32]

  /* Set or reset the CCxE Bit */
  TIMx->CCER |= (uint32_t)(ChannelState << (Channel & 0x1FU)); /* 0x1FU = 31 bits max shift */
 8004300:	68fb      	ldr	r3, [r7, #12]
 8004302:	6a1a      	ldr	r2, [r3, #32]
 8004304:	68bb      	ldr	r3, [r7, #8]
 8004306:	211f      	movs	r1, #31
 8004308:	400b      	ands	r3, r1
 800430a:	6879      	ldr	r1, [r7, #4]
 800430c:	4099      	lsls	r1, r3
 800430e:	000b      	movs	r3, r1
 8004310:	431a      	orrs	r2, r3
 8004312:	68fb      	ldr	r3, [r7, #12]
 8004314:	621a      	str	r2, [r3, #32]
}
 8004316:	46c0      	nop			@ (mov r8, r8)
 8004318:	46bd      	mov	sp, r7
 800431a:	b006      	add	sp, #24
 800431c:	bd80      	pop	{r7, pc}
	...

08004320 <HAL_TIMEx_MasterConfigSynchronization>:
  *         mode.
  * @retval HAL status
  */
HAL_StatusTypeDef HAL_TIMEx_MasterConfigSynchronization(TIM_HandleTypeDef *htim,
                                                        const TIM_MasterConfigTypeDef *sMasterConfig)
{
 8004320:	b580      	push	{r7, lr}
 8004322:	b084      	sub	sp, #16
 8004324:	af00      	add	r7, sp, #0
 8004326:	6078      	str	r0, [r7, #4]
 8004328:	6039      	str	r1, [r7, #0]
  assert_param(IS_TIM_MASTER_INSTANCE(htim->Instance));
  assert_param(IS_TIM_TRGO_SOURCE(sMasterConfig->MasterOutputTrigger));
  assert_param(IS_TIM_MSM_STATE(sMasterConfig->MasterSlaveMode));

  /* Check input state */
  __HAL_LOCK(htim);
 800432a:	687b      	ldr	r3, [r7, #4]
 800432c:	223c      	movs	r2, #60	@ 0x3c
 800432e:	5c9b      	ldrb	r3, [r3, r2]
 8004330:	2b01      	cmp	r3, #1
 8004332:	d101      	bne.n	8004338 <HAL_TIMEx_MasterConfigSynchronization+0x18>
 8004334:	2302      	movs	r3, #2
 8004336:	e047      	b.n	80043c8 <HAL_TIMEx_MasterConfigSynchronization+0xa8>
 8004338:	687b      	ldr	r3, [r7, #4]
 800433a:	223c      	movs	r2, #60	@ 0x3c
 800433c:	2101      	movs	r1, #1
 800433e:	5499      	strb	r1, [r3, r2]

  /* Change the handler state */
  htim->State = HAL_TIM_STATE_BUSY;
 8004340:	687b      	ldr	r3, [r7, #4]
 8004342:	223d      	movs	r2, #61	@ 0x3d
 8004344:	2102      	movs	r1, #2
 8004346:	5499      	strb	r1, [r3, r2]

  /* Get the TIMx CR2 register value */
  tmpcr2 = htim->Instance->CR2;
 8004348:	687b      	ldr	r3, [r7, #4]
 800434a:	681b      	ldr	r3, [r3, #0]
 800434c:	685b      	ldr	r3, [r3, #4]
 800434e:	60fb      	str	r3, [r7, #12]

  /* Get the TIMx SMCR register value */
  tmpsmcr = htim->Instance->SMCR;
 8004350:	687b      	ldr	r3, [r7, #4]
 8004352:	681b      	ldr	r3, [r3, #0]
 8004354:	689b      	ldr	r3, [r3, #8]
 8004356:	60bb      	str	r3, [r7, #8]

  /* Reset the MMS Bits */
  tmpcr2 &= ~TIM_CR2_MMS;
 8004358:	68fb      	ldr	r3, [r7, #12]
 800435a:	2270      	movs	r2, #112	@ 0x70
 800435c:	4393      	bics	r3, r2
 800435e:	60fb      	str	r3, [r7, #12]
  /* Select the TRGO source */
  tmpcr2 |=  sMasterConfig->MasterOutputTrigger;
 8004360:	683b      	ldr	r3, [r7, #0]
 8004362:	681b      	ldr	r3, [r3, #0]
 8004364:	68fa      	ldr	r2, [r7, #12]
 8004366:	4313      	orrs	r3, r2
 8004368:	60fb      	str	r3, [r7, #12]

  /* Update TIMx CR2 */
  htim->Instance->CR2 = tmpcr2;
 800436a:	687b      	ldr	r3, [r7, #4]
 800436c:	681b      	ldr	r3, [r3, #0]
 800436e:	68fa      	ldr	r2, [r7, #12]
 8004370:	605a      	str	r2, [r3, #4]

  if (IS_TIM_SLAVE_INSTANCE(htim->Instance))
 8004372:	687b      	ldr	r3, [r7, #4]
 8004374:	681b      	ldr	r3, [r3, #0]
 8004376:	4a16      	ldr	r2, [pc, #88]	@ (80043d0 <HAL_TIMEx_MasterConfigSynchronization+0xb0>)
 8004378:	4293      	cmp	r3, r2
 800437a:	d00f      	beq.n	800439c <HAL_TIMEx_MasterConfigSynchronization+0x7c>
 800437c:	687b      	ldr	r3, [r7, #4]
 800437e:	681a      	ldr	r2, [r3, #0]
 8004380:	2380      	movs	r3, #128	@ 0x80
 8004382:	05db      	lsls	r3, r3, #23
 8004384:	429a      	cmp	r2, r3
 8004386:	d009      	beq.n	800439c <HAL_TIMEx_MasterConfigSynchronization+0x7c>
 8004388:	687b      	ldr	r3, [r7, #4]
 800438a:	681b      	ldr	r3, [r3, #0]
 800438c:	4a11      	ldr	r2, [pc, #68]	@ (80043d4 <HAL_TIMEx_MasterConfigSynchronization+0xb4>)
 800438e:	4293      	cmp	r3, r2
 8004390:	d004      	beq.n	800439c <HAL_TIMEx_MasterConfigSynchronization+0x7c>
 8004392:	687b      	ldr	r3, [r7, #4]
 8004394:	681b      	ldr	r3, [r3, #0]
 8004396:	4a10      	ldr	r2, [pc, #64]	@ (80043d8 <HAL_TIMEx_MasterConfigSynchronization+0xb8>)
 8004398:	4293      	cmp	r3, r2
 800439a:	d10c      	bne.n	80043b6 <HAL_TIMEx_MasterConfigSynchronization+0x96>
  {
    /* Reset the MSM Bit */
    tmpsmcr &= ~TIM_SMCR_MSM;
 800439c:	68bb      	ldr	r3, [r7, #8]
 800439e:	2280      	movs	r2, #128	@ 0x80
 80043a0:	4393      	bics	r3, r2
 80043a2:	60bb      	str	r3, [r7, #8]
    /* Set master mode */
    tmpsmcr |= sMasterConfig->MasterSlaveMode;
 80043a4:	683b      	ldr	r3, [r7, #0]
 80043a6:	685b      	ldr	r3, [r3, #4]
 80043a8:	68ba      	ldr	r2, [r7, #8]
 80043aa:	4313      	orrs	r3, r2
 80043ac:	60bb      	str	r3, [r7, #8]

    /* Update TIMx SMCR */
    htim->Instance->SMCR = tmpsmcr;
 80043ae:	687b      	ldr	r3, [r7, #4]
 80043b0:	681b      	ldr	r3, [r3, #0]
 80043b2:	68ba      	ldr	r2, [r7, #8]
 80043b4:	609a      	str	r2, [r3, #8]
  }

  /* Change the htim state */
  htim->State = HAL_TIM_STATE_READY;
 80043b6:	687b      	ldr	r3, [r7, #4]
 80043b8:	223d      	movs	r2, #61	@ 0x3d
 80043ba:	2101      	movs	r1, #1
 80043bc:	5499      	strb	r1, [r3, r2]

  __HAL_UNLOCK(htim);
 80043be:	687b      	ldr	r3, [r7, #4]
 80043c0:	223c      	movs	r2, #60	@ 0x3c
 80043c2:	2100      	movs	r1, #0
 80043c4:	5499      	strb	r1, [r3, r2]

  return HAL_OK;
 80043c6:	2300      	movs	r3, #0
}
 80043c8:	0018      	movs	r0, r3
 80043ca:	46bd      	mov	sp, r7
 80043cc:	b004      	add	sp, #16
 80043ce:	bd80      	pop	{r7, pc}
 80043d0:	40012c00 	.word	0x40012c00
 80043d4:	40000400 	.word	0x40000400
 80043d8:	40014000 	.word	0x40014000

080043dc <HAL_TIMEx_CommutCallback>:
  * @brief  Commutation callback in non-blocking mode
  * @param  htim TIM handle
  * @retval None
  */
__weak void HAL_TIMEx_CommutCallback(TIM_HandleTypeDef *htim)
{
 80043dc:	b580      	push	{r7, lr}
 80043de:	b082      	sub	sp, #8
 80043e0:	af00      	add	r7, sp, #0
 80043e2:	6078      	str	r0, [r7, #4]
  UNUSED(htim);

  /* NOTE : This function should not be modified, when the callback is needed,
            the HAL_TIMEx_CommutCallback could be implemented in the user file
   */
}
 80043e4:	46c0      	nop			@ (mov r8, r8)
 80043e6:	46bd      	mov	sp, r7
 80043e8:	b002      	add	sp, #8
 80043ea:	bd80      	pop	{r7, pc}

080043ec <HAL_TIMEx_BreakCallback>:
  * @brief  Break detection callback in non-blocking mode
  * @param  htim TIM handle
  * @retval None
  */
__weak void HAL_TIMEx_BreakCallback(TIM_HandleTypeDef *htim)
{
 80043ec:	b580      	push	{r7, lr}
 80043ee:	b082      	sub	sp, #8
 80043f0:	af00      	add	r7, sp, #0
 80043f2:	6078      	str	r0, [r7, #4]
  UNUSED(htim);

  /* NOTE : This function should not be modified, when the callback is needed,
            the HAL_TIMEx_BreakCallback could be implemented in the user file
   */
}
 80043f4:	46c0      	nop			@ (mov r8, r8)
 80043f6:	46bd      	mov	sp, r7
 80043f8:	b002      	add	sp, #8
 80043fa:	bd80      	pop	{r7, pc}

080043fc <memset>:
 80043fc:	0003      	movs	r3, r0
 80043fe:	1882      	adds	r2, r0, r2
 8004400:	4293      	cmp	r3, r2
 8004402:	d100      	bne.n	8004406 <memset+0xa>
 8004404:	4770      	bx	lr
 8004406:	7019      	strb	r1, [r3, #0]
 8004408:	3301      	adds	r3, #1
 800440a:	e7f9      	b.n	8004400 <memset+0x4>

0800440c <__libc_init_array>:
 800440c:	b570      	push	{r4, r5, r6, lr}
 800440e:	2600      	movs	r6, #0
 8004410:	4c0c      	ldr	r4, [pc, #48]	@ (8004444 <__libc_init_array+0x38>)
 8004412:	4d0d      	ldr	r5, [pc, #52]	@ (8004448 <__libc_init_array+0x3c>)
 8004414:	1b64      	subs	r4, r4, r5
 8004416:	10a4      	asrs	r4, r4, #2
 8004418:	42a6      	cmp	r6, r4
 800441a:	d109      	bne.n	8004430 <__libc_init_array+0x24>
 800441c:	2600      	movs	r6, #0
 800441e:	f000 f819 	bl	8004454 <_init>
 8004422:	4c0a      	ldr	r4, [pc, #40]	@ (800444c <__libc_init_array+0x40>)
 8004424:	4d0a      	ldr	r5, [pc, #40]	@ (8004450 <__libc_init_array+0x44>)
 8004426:	1b64      	subs	r4, r4, r5
 8004428:	10a4      	asrs	r4, r4, #2
 800442a:	42a6      	cmp	r6, r4
 800442c:	d105      	bne.n	800443a <__libc_init_array+0x2e>
 800442e:	bd70      	pop	{r4, r5, r6, pc}
 8004430:	00b3      	lsls	r3, r6, #2
 8004432:	58eb      	ldr	r3, [r5, r3]
 8004434:	4798      	blx	r3
 8004436:	3601      	adds	r6, #1
 8004438:	e7ee      	b.n	8004418 <__libc_init_array+0xc>
 800443a:	00b3      	lsls	r3, r6, #2
 800443c:	58eb      	ldr	r3, [r5, r3]
 800443e:	4798      	blx	r3
 8004440:	3601      	adds	r6, #1
 8004442:	e7f2      	b.n	800442a <__libc_init_array+0x1e>
 8004444:	08004518 	.word	0x08004518
 8004448:	08004518 	.word	0x08004518
 800444c:	0800451c 	.word	0x0800451c
 8004450:	08004518 	.word	0x08004518

08004454 <_init>:
 8004454:	b5f8      	push	{r3, r4, r5, r6, r7, lr}
 8004456:	46c0      	nop			@ (mov r8, r8)
 8004458:	bcf8      	pop	{r3, r4, r5, r6, r7}
 800445a:	bc08      	pop	{r3}
 800445c:	469e      	mov	lr, r3
 800445e:	4770      	bx	lr

08004460 <_fini>:
 8004460:	b5f8      	push	{r3, r4, r5, r6, r7, lr}
 8004462:	46c0      	nop			@ (mov r8, r8)
 8004464:	bcf8      	pop	{r3, r4, r5, r6, r7}
 8004466:	bc08      	pop	{r3}
 8004468:	469e      	mov	lr, r3
 800446a:	4770      	bx	lr
